SF:/mnt/f/Node/hivellm/vectorizer/src/api/advanced_api.rs
FN:1108,_RNCNvMs1_NtNtCs1YuMAXYbbDa_10vectorizer3api12advanced_apiNtB7_17AdvancedApiServer10find_route0Bb_
FN:1080,_RNCNvMs1_NtNtCs1YuMAXYbbDa_10vectorizer3api12advanced_apiNtB7_17AdvancedApiServer12start_server0Bb_
FN:1039,_RNCNvMs1_NtNtCs1YuMAXYbbDa_10vectorizer3api12advanced_apiNtB7_17AdvancedApiServer14handle_request0Bb_
FN:1086,_RNCNvMs1_NtNtCs1YuMAXYbbDa_10vectorizer3api12advanced_apiNtB7_17AdvancedApiServer16apply_middleware0Bb_
FN:1128,_RNCNvMs1_NtNtCs1YuMAXYbbDa_10vectorizer3api12advanced_apiNtB7_17AdvancedApiServer16record_analytics0Bb_
FN:1063,_RNCNvMs1_NtNtCs1YuMAXYbbDa_10vectorizer3api12advanced_apiNtB7_17AdvancedApiServer17initialize_server0Bb_
FN:1119,_RNCNvMs1_NtNtCs1YuMAXYbbDa_10vectorizer3api12advanced_apiNtB7_17AdvancedApiServer19apply_rate_limiting0Bb_
FN:1097,_RNCNvMs1_NtNtCs1YuMAXYbbDa_10vectorizer3api12advanced_apiNtB7_17AdvancedApiServer25apply_response_middleware0Bb_
FN:1033,_RNCNvMs1_NtNtCs1YuMAXYbbDa_10vectorizer3api12advanced_apiNtB7_17AdvancedApiServer4stop0Bb_
FN:1022,_RNCNvMs1_NtNtCs1YuMAXYbbDa_10vectorizer3api12advanced_apiNtB7_17AdvancedApiServer5start0Bb_
FN:1152,_RNCNvMs2_NtNtCs1YuMAXYbbDa_10vectorizer3api12advanced_apiNtB7_13ApiVersioning10initialize0Bb_
FN:1168,_RNCNvMs3_NtNtCs1YuMAXYbbDa_10vectorizer3api12advanced_apiNtB7_11RateLimiter10initialize0Bb_
FN:1174,_RNCNvMs3_NtNtCs1YuMAXYbbDa_10vectorizer3api12advanced_apiNtB7_11RateLimiter16check_rate_limit0Bb_
FN:1191,_RNCNvMs4_NtNtCs1YuMAXYbbDa_10vectorizer3api12advanced_apiNtB7_12ApiAnalytics10initialize0Bb_
FN:1197,_RNCNvMs4_NtNtCs1YuMAXYbbDa_10vectorizer3api12advanced_apiNtB7_12ApiAnalytics14record_request0Bb_
FN:1225,_RNCNvMs5_NtNtCs1YuMAXYbbDa_10vectorizer3api12advanced_apiNtB7_16ApiDocumentation10initialize0Bb_
FN:553,_RNCNvXs0_NtNtCs1YuMAXYbbDa_10vectorizer3api12advanced_apiNtB7_11TestHandlerNtB7_13ApiMiddleware15process_request0Bb_
FN:558,_RNCNvXs0_NtNtCs1YuMAXYbbDa_10vectorizer3api12advanced_apiNtB7_11TestHandlerNtB7_13ApiMiddleware16process_response0Bb_
FN:1266,_RNCNvXs7_NtNtCs1YuMAXYbbDa_10vectorizer3api12advanced_apiNtB7_25MemoryRateLimitingStorageNtB7_19RateLimitingStorage13reset_counter0Bb_
FN:1248,_RNCNvXs7_NtNtCs1YuMAXYbbDa_10vectorizer3api12advanced_apiNtB7_25MemoryRateLimitingStorageNtB7_19RateLimitingStorage16check_rate_limit0Bb_
FN:1260,_RNCNvXs7_NtNtCs1YuMAXYbbDa_10vectorizer3api12advanced_apiNtB7_25MemoryRateLimitingStorageNtB7_19RateLimitingStorage17increment_counter0Bb_
FN:1296,_RNCNvXs9_NtNtCs1YuMAXYbbDa_10vectorizer3api12advanced_apiNtB7_22MemoryAnalyticsStorageNtB7_16AnalyticsStorage10query_data0Bb_
FN:1290,_RNCNvXs9_NtNtCs1YuMAXYbbDa_10vectorizer3api12advanced_apiNtB7_22MemoryAnalyticsStorageNtB7_16AnalyticsStorage10store_data0Bb_
FN:533,_RNCNvXs_NtNtCs1YuMAXYbbDa_10vectorizer3api12advanced_apiNtB6_11TestHandlerNtB6_10ApiHandler6handle0Ba_
FN:527,_RNvMNtNtCs1YuMAXYbbDa_10vectorizer3api12advanced_apiNtB2_11TestHandler3new
FN:1108,_RNvMs1_NtNtCs1YuMAXYbbDa_10vectorizer3api12advanced_apiNtB5_17AdvancedApiServer10find_route
FN:1080,_RNvMs1_NtNtCs1YuMAXYbbDa_10vectorizer3api12advanced_apiNtB5_17AdvancedApiServer12start_server
FN:1016,_RNvMs1_NtNtCs1YuMAXYbbDa_10vectorizer3api12advanced_apiNtB5_17AdvancedApiServer14add_middleware
FN:1039,_RNvMs1_NtNtCs1YuMAXYbbDa_10vectorizer3api12advanced_apiNtB5_17AdvancedApiServer14handle_request
FN:1086,_RNvMs1_NtNtCs1YuMAXYbbDa_10vectorizer3api12advanced_apiNtB5_17AdvancedApiServer16apply_middleware
FN:1128,_RNvMs1_NtNtCs1YuMAXYbbDa_10vectorizer3api12advanced_apiNtB5_17AdvancedApiServer16record_analytics
FN:1063,_RNvMs1_NtNtCs1YuMAXYbbDa_10vectorizer3api12advanced_apiNtB5_17AdvancedApiServer17initialize_server
FN:1119,_RNvMs1_NtNtCs1YuMAXYbbDa_10vectorizer3api12advanced_apiNtB5_17AdvancedApiServer19apply_rate_limiting
FN:1097,_RNvMs1_NtNtCs1YuMAXYbbDa_10vectorizer3api12advanced_apiNtB5_17AdvancedApiServer25apply_response_middleware
FN:997,_RNvMs1_NtNtCs1YuMAXYbbDa_10vectorizer3api12advanced_apiNtB5_17AdvancedApiServer3new
FN:1033,_RNvMs1_NtNtCs1YuMAXYbbDa_10vectorizer3api12advanced_apiNtB5_17AdvancedApiServer4stop
FN:1022,_RNvMs1_NtNtCs1YuMAXYbbDa_10vectorizer3api12advanced_apiNtB5_17AdvancedApiServer5start
FN:1010,_RNvMs1_NtNtCs1YuMAXYbbDa_10vectorizer3api12advanced_apiNtB5_17AdvancedApiServer9add_route
FN:1152,_RNvMs2_NtNtCs1YuMAXYbbDa_10vectorizer3api12advanced_apiNtB5_13ApiVersioning10initialize
FN:1139,_RNvMs2_NtNtCs1YuMAXYbbDa_10vectorizer3api12advanced_apiNtB5_13ApiVersioning3new
FN:1168,_RNvMs3_NtNtCs1YuMAXYbbDa_10vectorizer3api12advanced_apiNtB5_11RateLimiter10initialize
FN:1174,_RNvMs3_NtNtCs1YuMAXYbbDa_10vectorizer3api12advanced_apiNtB5_11RateLimiter16check_rate_limit
FN:1160,_RNvMs3_NtNtCs1YuMAXYbbDa_10vectorizer3api12advanced_apiNtB5_11RateLimiter3new
FN:1191,_RNvMs4_NtNtCs1YuMAXYbbDa_10vectorizer3api12advanced_apiNtB5_12ApiAnalytics10initialize
FN:1197,_RNvMs4_NtNtCs1YuMAXYbbDa_10vectorizer3api12advanced_apiNtB5_12ApiAnalytics14record_request
FN:1182,_RNvMs4_NtNtCs1YuMAXYbbDa_10vectorizer3api12advanced_apiNtB5_12ApiAnalytics3new
FN:1225,_RNvMs5_NtNtCs1YuMAXYbbDa_10vectorizer3api12advanced_apiNtB5_16ApiDocumentation10initialize
FN:1205,_RNvMs5_NtNtCs1YuMAXYbbDa_10vectorizer3api12advanced_apiNtB5_16ApiDocumentation3new
FN:1240,_RNvMs6_NtNtCs1YuMAXYbbDa_10vectorizer3api12advanced_apiNtB5_25MemoryRateLimitingStorage3new
FN:1282,_RNvMs8_NtNtCs1YuMAXYbbDa_10vectorizer3api12advanced_apiNtB5_22MemoryAnalyticsStorage3new
FN:553,_RNvXs0_NtNtCs1YuMAXYbbDa_10vectorizer3api12advanced_apiNtB5_11TestHandlerNtB5_13ApiMiddleware15process_request
FN:558,_RNvXs0_NtNtCs1YuMAXYbbDa_10vectorizer3api12advanced_apiNtB5_11TestHandlerNtB5_13ApiMiddleware16process_response
FN:563,_RNvXs0_NtNtCs1YuMAXYbbDa_10vectorizer3api12advanced_apiNtB5_11TestHandlerNtB5_13ApiMiddleware8get_name
FN:1266,_RNvXs7_NtNtCs1YuMAXYbbDa_10vectorizer3api12advanced_apiNtB5_25MemoryRateLimitingStorageNtB5_19RateLimitingStorage13reset_counter
FN:1248,_RNvXs7_NtNtCs1YuMAXYbbDa_10vectorizer3api12advanced_apiNtB5_25MemoryRateLimitingStorageNtB5_19RateLimitingStorage16check_rate_limit
FN:1260,_RNvXs7_NtNtCs1YuMAXYbbDa_10vectorizer3api12advanced_apiNtB5_25MemoryRateLimitingStorageNtB5_19RateLimitingStorage17increment_counter
FN:1296,_RNvXs9_NtNtCs1YuMAXYbbDa_10vectorizer3api12advanced_apiNtB5_22MemoryAnalyticsStorageNtB5_16AnalyticsStorage10query_data
FN:1290,_RNvXs9_NtNtCs1YuMAXYbbDa_10vectorizer3api12advanced_apiNtB5_22MemoryAnalyticsStorageNtB5_16AnalyticsStorage10store_data
FN:542,_RNvXs_NtNtCs1YuMAXYbbDa_10vectorizer3api12advanced_apiNtB4_11TestHandlerNtB4_10ApiHandler12get_metadata
FN:533,_RNvXs_NtNtCs1YuMAXYbbDa_10vectorizer3api12advanced_apiNtB4_11TestHandlerNtB4_10ApiHandler6handle
FN:1303,_RNvXsa_NtNtCs1YuMAXYbbDa_10vectorizer3api12advanced_apiNtB5_9ApiConfigNtNtCs9Kp62OsN3pY_4core7default7Default7default
FN:1108,_RNCNvMs1_NtNtCs4Tkd3OJeaSh_10vectorizer3api12advanced_apiNtB7_17AdvancedApiServer10find_route0Bb_
FN:1080,_RNCNvMs1_NtNtCs4Tkd3OJeaSh_10vectorizer3api12advanced_apiNtB7_17AdvancedApiServer12start_server0Bb_
FN:1039,_RNCNvMs1_NtNtCs4Tkd3OJeaSh_10vectorizer3api12advanced_apiNtB7_17AdvancedApiServer14handle_request0Bb_
FN:1086,_RNCNvMs1_NtNtCs4Tkd3OJeaSh_10vectorizer3api12advanced_apiNtB7_17AdvancedApiServer16apply_middleware0Bb_
FN:1128,_RNCNvMs1_NtNtCs4Tkd3OJeaSh_10vectorizer3api12advanced_apiNtB7_17AdvancedApiServer16record_analytics0Bb_
FN:1063,_RNCNvMs1_NtNtCs4Tkd3OJeaSh_10vectorizer3api12advanced_apiNtB7_17AdvancedApiServer17initialize_server0Bb_
FN:1119,_RNCNvMs1_NtNtCs4Tkd3OJeaSh_10vectorizer3api12advanced_apiNtB7_17AdvancedApiServer19apply_rate_limiting0Bb_
FN:1097,_RNCNvMs1_NtNtCs4Tkd3OJeaSh_10vectorizer3api12advanced_apiNtB7_17AdvancedApiServer25apply_response_middleware0Bb_
FN:1033,_RNCNvMs1_NtNtCs4Tkd3OJeaSh_10vectorizer3api12advanced_apiNtB7_17AdvancedApiServer4stop0Bb_
FN:1022,_RNCNvMs1_NtNtCs4Tkd3OJeaSh_10vectorizer3api12advanced_apiNtB7_17AdvancedApiServer5start0Bb_
FN:1152,_RNCNvMs2_NtNtCs4Tkd3OJeaSh_10vectorizer3api12advanced_apiNtB7_13ApiVersioning10initialize0Bb_
FN:1168,_RNCNvMs3_NtNtCs4Tkd3OJeaSh_10vectorizer3api12advanced_apiNtB7_11RateLimiter10initialize0Bb_
FN:1174,_RNCNvMs3_NtNtCs4Tkd3OJeaSh_10vectorizer3api12advanced_apiNtB7_11RateLimiter16check_rate_limit0Bb_
FN:1191,_RNCNvMs4_NtNtCs4Tkd3OJeaSh_10vectorizer3api12advanced_apiNtB7_12ApiAnalytics10initialize0Bb_
FN:1197,_RNCNvMs4_NtNtCs4Tkd3OJeaSh_10vectorizer3api12advanced_apiNtB7_12ApiAnalytics14record_request0Bb_
FN:1225,_RNCNvMs5_NtNtCs4Tkd3OJeaSh_10vectorizer3api12advanced_apiNtB7_16ApiDocumentation10initialize0Bb_
FN:553,_RNCNvXs0_NtNtCs4Tkd3OJeaSh_10vectorizer3api12advanced_apiNtB7_11TestHandlerNtB7_13ApiMiddleware15process_request0Bb_
FN:558,_RNCNvXs0_NtNtCs4Tkd3OJeaSh_10vectorizer3api12advanced_apiNtB7_11TestHandlerNtB7_13ApiMiddleware16process_response0Bb_
FN:1266,_RNCNvXs7_NtNtCs4Tkd3OJeaSh_10vectorizer3api12advanced_apiNtB7_25MemoryRateLimitingStorageNtB7_19RateLimitingStorage13reset_counter0Bb_
FN:1248,_RNCNvXs7_NtNtCs4Tkd3OJeaSh_10vectorizer3api12advanced_apiNtB7_25MemoryRateLimitingStorageNtB7_19RateLimitingStorage16check_rate_limit0Bb_
FN:1260,_RNCNvXs7_NtNtCs4Tkd3OJeaSh_10vectorizer3api12advanced_apiNtB7_25MemoryRateLimitingStorageNtB7_19RateLimitingStorage17increment_counter0Bb_
FN:1296,_RNCNvXs9_NtNtCs4Tkd3OJeaSh_10vectorizer3api12advanced_apiNtB7_22MemoryAnalyticsStorageNtB7_16AnalyticsStorage10query_data0Bb_
FN:1290,_RNCNvXs9_NtNtCs4Tkd3OJeaSh_10vectorizer3api12advanced_apiNtB7_22MemoryAnalyticsStorageNtB7_16AnalyticsStorage10store_data0Bb_
FN:533,_RNCNvXs_NtNtCs4Tkd3OJeaSh_10vectorizer3api12advanced_apiNtB6_11TestHandlerNtB6_10ApiHandler6handle0Ba_
FN:1108,_RNvMs1_NtNtCs4Tkd3OJeaSh_10vectorizer3api12advanced_apiNtB5_17AdvancedApiServer10find_route
FN:1080,_RNvMs1_NtNtCs4Tkd3OJeaSh_10vectorizer3api12advanced_apiNtB5_17AdvancedApiServer12start_server
FN:1016,_RNvMs1_NtNtCs4Tkd3OJeaSh_10vectorizer3api12advanced_apiNtB5_17AdvancedApiServer14add_middleware
FN:1039,_RNvMs1_NtNtCs4Tkd3OJeaSh_10vectorizer3api12advanced_apiNtB5_17AdvancedApiServer14handle_request
FN:1086,_RNvMs1_NtNtCs4Tkd3OJeaSh_10vectorizer3api12advanced_apiNtB5_17AdvancedApiServer16apply_middleware
FN:1128,_RNvMs1_NtNtCs4Tkd3OJeaSh_10vectorizer3api12advanced_apiNtB5_17AdvancedApiServer16record_analytics
FN:1063,_RNvMs1_NtNtCs4Tkd3OJeaSh_10vectorizer3api12advanced_apiNtB5_17AdvancedApiServer17initialize_server
FN:1119,_RNvMs1_NtNtCs4Tkd3OJeaSh_10vectorizer3api12advanced_apiNtB5_17AdvancedApiServer19apply_rate_limiting
FN:1097,_RNvMs1_NtNtCs4Tkd3OJeaSh_10vectorizer3api12advanced_apiNtB5_17AdvancedApiServer25apply_response_middleware
FN:997,_RNvMs1_NtNtCs4Tkd3OJeaSh_10vectorizer3api12advanced_apiNtB5_17AdvancedApiServer3new
FN:1033,_RNvMs1_NtNtCs4Tkd3OJeaSh_10vectorizer3api12advanced_apiNtB5_17AdvancedApiServer4stop
FN:1022,_RNvMs1_NtNtCs4Tkd3OJeaSh_10vectorizer3api12advanced_apiNtB5_17AdvancedApiServer5start
FN:1010,_RNvMs1_NtNtCs4Tkd3OJeaSh_10vectorizer3api12advanced_apiNtB5_17AdvancedApiServer9add_route
FN:1152,_RNvMs2_NtNtCs4Tkd3OJeaSh_10vectorizer3api12advanced_apiNtB5_13ApiVersioning10initialize
FN:1139,_RNvMs2_NtNtCs4Tkd3OJeaSh_10vectorizer3api12advanced_apiNtB5_13ApiVersioning3new
FN:1168,_RNvMs3_NtNtCs4Tkd3OJeaSh_10vectorizer3api12advanced_apiNtB5_11RateLimiter10initialize
FN:1174,_RNvMs3_NtNtCs4Tkd3OJeaSh_10vectorizer3api12advanced_apiNtB5_11RateLimiter16check_rate_limit
FN:1160,_RNvMs3_NtNtCs4Tkd3OJeaSh_10vectorizer3api12advanced_apiNtB5_11RateLimiter3new
FN:1191,_RNvMs4_NtNtCs4Tkd3OJeaSh_10vectorizer3api12advanced_apiNtB5_12ApiAnalytics10initialize
FN:1197,_RNvMs4_NtNtCs4Tkd3OJeaSh_10vectorizer3api12advanced_apiNtB5_12ApiAnalytics14record_request
FN:1182,_RNvMs4_NtNtCs4Tkd3OJeaSh_10vectorizer3api12advanced_apiNtB5_12ApiAnalytics3new
FN:1225,_RNvMs5_NtNtCs4Tkd3OJeaSh_10vectorizer3api12advanced_apiNtB5_16ApiDocumentation10initialize
FN:1205,_RNvMs5_NtNtCs4Tkd3OJeaSh_10vectorizer3api12advanced_apiNtB5_16ApiDocumentation3new
FN:1240,_RNvMs6_NtNtCs4Tkd3OJeaSh_10vectorizer3api12advanced_apiNtB5_25MemoryRateLimitingStorage3new
FN:1282,_RNvMs8_NtNtCs4Tkd3OJeaSh_10vectorizer3api12advanced_apiNtB5_22MemoryAnalyticsStorage3new
FN:553,_RNvXs0_NtNtCs4Tkd3OJeaSh_10vectorizer3api12advanced_apiNtB5_11TestHandlerNtB5_13ApiMiddleware15process_request
FN:558,_RNvXs0_NtNtCs4Tkd3OJeaSh_10vectorizer3api12advanced_apiNtB5_11TestHandlerNtB5_13ApiMiddleware16process_response
FN:563,_RNvXs0_NtNtCs4Tkd3OJeaSh_10vectorizer3api12advanced_apiNtB5_11TestHandlerNtB5_13ApiMiddleware8get_name
FN:1266,_RNvXs7_NtNtCs4Tkd3OJeaSh_10vectorizer3api12advanced_apiNtB5_25MemoryRateLimitingStorageNtB5_19RateLimitingStorage13reset_counter
FN:1248,_RNvXs7_NtNtCs4Tkd3OJeaSh_10vectorizer3api12advanced_apiNtB5_25MemoryRateLimitingStorageNtB5_19RateLimitingStorage16check_rate_limit
FN:1260,_RNvXs7_NtNtCs4Tkd3OJeaSh_10vectorizer3api12advanced_apiNtB5_25MemoryRateLimitingStorageNtB5_19RateLimitingStorage17increment_counter
FN:1296,_RNvXs9_NtNtCs4Tkd3OJeaSh_10vectorizer3api12advanced_apiNtB5_22MemoryAnalyticsStorageNtB5_16AnalyticsStorage10query_data
FN:1290,_RNvXs9_NtNtCs4Tkd3OJeaSh_10vectorizer3api12advanced_apiNtB5_22MemoryAnalyticsStorageNtB5_16AnalyticsStorage10store_data
FN:542,_RNvXs_NtNtCs4Tkd3OJeaSh_10vectorizer3api12advanced_apiNtB4_11TestHandlerNtB4_10ApiHandler12get_metadata
FN:533,_RNvXs_NtNtCs4Tkd3OJeaSh_10vectorizer3api12advanced_apiNtB4_11TestHandlerNtB4_10ApiHandler6handle
FN:1383,_RNvNtNtNtCs4Tkd3OJeaSh_10vectorizer3api12advanced_api5testss_23test_api_config_default
FN:1398,_RNvNtNtNtCs4Tkd3OJeaSh_10vectorizer3api12advanced_api5testss_23test_api_route_creation
FN:1454,_RNvNtNtNtCs4Tkd3OJeaSh_10vectorizer3api12advanced_api5testss_24test_rate_limit_creation
FN:1422,_RNvNtNtNtCs4Tkd3OJeaSh_10vectorizer3api12advanced_api5testss_25test_api_request_creation
FN:1442,_RNvNtNtNtCs4Tkd3OJeaSh_10vectorizer3api12advanced_api5testss_26test_api_response_creation
FN:527,_RNvMNtNtCs4Tkd3OJeaSh_10vectorizer3api12advanced_apiNtB2_11TestHandler3new
FN:1303,_RNvXsa_NtNtCs4Tkd3OJeaSh_10vectorizer3api12advanced_apiNtB5_9ApiConfigNtNtCs9Kp62OsN3pY_4core7default7Default7default
FNDA:0,_RNCNvMs1_NtNtCs1YuMAXYbbDa_10vectorizer3api12advanced_apiNtB7_17AdvancedApiServer10find_route0Bb_
FNDA:0,_RNCNvMs1_NtNtCs1YuMAXYbbDa_10vectorizer3api12advanced_apiNtB7_17AdvancedApiServer12start_server0Bb_
FNDA:0,_RNCNvMs1_NtNtCs1YuMAXYbbDa_10vectorizer3api12advanced_apiNtB7_17AdvancedApiServer14handle_request0Bb_
FNDA:0,_RNCNvMs1_NtNtCs1YuMAXYbbDa_10vectorizer3api12advanced_apiNtB7_17AdvancedApiServer16apply_middleware0Bb_
FNDA:0,_RNCNvMs1_NtNtCs1YuMAXYbbDa_10vectorizer3api12advanced_apiNtB7_17AdvancedApiServer16record_analytics0Bb_
FNDA:0,_RNCNvMs1_NtNtCs1YuMAXYbbDa_10vectorizer3api12advanced_apiNtB7_17AdvancedApiServer17initialize_server0Bb_
FNDA:0,_RNCNvMs1_NtNtCs1YuMAXYbbDa_10vectorizer3api12advanced_apiNtB7_17AdvancedApiServer19apply_rate_limiting0Bb_
FNDA:0,_RNCNvMs1_NtNtCs1YuMAXYbbDa_10vectorizer3api12advanced_apiNtB7_17AdvancedApiServer25apply_response_middleware0Bb_
FNDA:0,_RNCNvMs1_NtNtCs1YuMAXYbbDa_10vectorizer3api12advanced_apiNtB7_17AdvancedApiServer4stop0Bb_
FNDA:0,_RNCNvMs1_NtNtCs1YuMAXYbbDa_10vectorizer3api12advanced_apiNtB7_17AdvancedApiServer5start0Bb_
FNDA:0,_RNCNvMs2_NtNtCs1YuMAXYbbDa_10vectorizer3api12advanced_apiNtB7_13ApiVersioning10initialize0Bb_
FNDA:0,_RNCNvMs3_NtNtCs1YuMAXYbbDa_10vectorizer3api12advanced_apiNtB7_11RateLimiter10initialize0Bb_
FNDA:0,_RNCNvMs3_NtNtCs1YuMAXYbbDa_10vectorizer3api12advanced_apiNtB7_11RateLimiter16check_rate_limit0Bb_
FNDA:0,_RNCNvMs4_NtNtCs1YuMAXYbbDa_10vectorizer3api12advanced_apiNtB7_12ApiAnalytics10initialize0Bb_
FNDA:0,_RNCNvMs4_NtNtCs1YuMAXYbbDa_10vectorizer3api12advanced_apiNtB7_12ApiAnalytics14record_request0Bb_
FNDA:0,_RNCNvMs5_NtNtCs1YuMAXYbbDa_10vectorizer3api12advanced_apiNtB7_16ApiDocumentation10initialize0Bb_
FNDA:0,_RNCNvXs0_NtNtCs1YuMAXYbbDa_10vectorizer3api12advanced_apiNtB7_11TestHandlerNtB7_13ApiMiddleware15process_request0Bb_
FNDA:0,_RNCNvXs0_NtNtCs1YuMAXYbbDa_10vectorizer3api12advanced_apiNtB7_11TestHandlerNtB7_13ApiMiddleware16process_response0Bb_
FNDA:0,_RNCNvXs7_NtNtCs1YuMAXYbbDa_10vectorizer3api12advanced_apiNtB7_25MemoryRateLimitingStorageNtB7_19RateLimitingStorage13reset_counter0Bb_
FNDA:0,_RNCNvXs7_NtNtCs1YuMAXYbbDa_10vectorizer3api12advanced_apiNtB7_25MemoryRateLimitingStorageNtB7_19RateLimitingStorage16check_rate_limit0Bb_
FNDA:0,_RNCNvXs7_NtNtCs1YuMAXYbbDa_10vectorizer3api12advanced_apiNtB7_25MemoryRateLimitingStorageNtB7_19RateLimitingStorage17increment_counter0Bb_
FNDA:0,_RNCNvXs9_NtNtCs1YuMAXYbbDa_10vectorizer3api12advanced_apiNtB7_22MemoryAnalyticsStorageNtB7_16AnalyticsStorage10query_data0Bb_
FNDA:0,_RNCNvXs9_NtNtCs1YuMAXYbbDa_10vectorizer3api12advanced_apiNtB7_22MemoryAnalyticsStorageNtB7_16AnalyticsStorage10store_data0Bb_
FNDA:0,_RNCNvXs_NtNtCs1YuMAXYbbDa_10vectorizer3api12advanced_apiNtB6_11TestHandlerNtB6_10ApiHandler6handle0Ba_
FNDA:0,_RNvMNtNtCs1YuMAXYbbDa_10vectorizer3api12advanced_apiNtB2_11TestHandler3new
FNDA:0,_RNvMs1_NtNtCs1YuMAXYbbDa_10vectorizer3api12advanced_apiNtB5_17AdvancedApiServer10find_route
FNDA:0,_RNvMs1_NtNtCs1YuMAXYbbDa_10vectorizer3api12advanced_apiNtB5_17AdvancedApiServer12start_server
FNDA:0,_RNvMs1_NtNtCs1YuMAXYbbDa_10vectorizer3api12advanced_apiNtB5_17AdvancedApiServer14add_middleware
FNDA:0,_RNvMs1_NtNtCs1YuMAXYbbDa_10vectorizer3api12advanced_apiNtB5_17AdvancedApiServer14handle_request
FNDA:0,_RNvMs1_NtNtCs1YuMAXYbbDa_10vectorizer3api12advanced_apiNtB5_17AdvancedApiServer16apply_middleware
FNDA:0,_RNvMs1_NtNtCs1YuMAXYbbDa_10vectorizer3api12advanced_apiNtB5_17AdvancedApiServer16record_analytics
FNDA:0,_RNvMs1_NtNtCs1YuMAXYbbDa_10vectorizer3api12advanced_apiNtB5_17AdvancedApiServer17initialize_server
FNDA:0,_RNvMs1_NtNtCs1YuMAXYbbDa_10vectorizer3api12advanced_apiNtB5_17AdvancedApiServer19apply_rate_limiting
FNDA:0,_RNvMs1_NtNtCs1YuMAXYbbDa_10vectorizer3api12advanced_apiNtB5_17AdvancedApiServer25apply_response_middleware
FNDA:0,_RNvMs1_NtNtCs1YuMAXYbbDa_10vectorizer3api12advanced_apiNtB5_17AdvancedApiServer3new
FNDA:0,_RNvMs1_NtNtCs1YuMAXYbbDa_10vectorizer3api12advanced_apiNtB5_17AdvancedApiServer4stop
FNDA:0,_RNvMs1_NtNtCs1YuMAXYbbDa_10vectorizer3api12advanced_apiNtB5_17AdvancedApiServer5start
FNDA:0,_RNvMs1_NtNtCs1YuMAXYbbDa_10vectorizer3api12advanced_apiNtB5_17AdvancedApiServer9add_route
FNDA:0,_RNvMs2_NtNtCs1YuMAXYbbDa_10vectorizer3api12advanced_apiNtB5_13ApiVersioning10initialize
FNDA:0,_RNvMs2_NtNtCs1YuMAXYbbDa_10vectorizer3api12advanced_apiNtB5_13ApiVersioning3new
FNDA:0,_RNvMs3_NtNtCs1YuMAXYbbDa_10vectorizer3api12advanced_apiNtB5_11RateLimiter10initialize
FNDA:0,_RNvMs3_NtNtCs1YuMAXYbbDa_10vectorizer3api12advanced_apiNtB5_11RateLimiter16check_rate_limit
FNDA:0,_RNvMs3_NtNtCs1YuMAXYbbDa_10vectorizer3api12advanced_apiNtB5_11RateLimiter3new
FNDA:0,_RNvMs4_NtNtCs1YuMAXYbbDa_10vectorizer3api12advanced_apiNtB5_12ApiAnalytics10initialize
FNDA:0,_RNvMs4_NtNtCs1YuMAXYbbDa_10vectorizer3api12advanced_apiNtB5_12ApiAnalytics14record_request
FNDA:0,_RNvMs4_NtNtCs1YuMAXYbbDa_10vectorizer3api12advanced_apiNtB5_12ApiAnalytics3new
FNDA:0,_RNvMs5_NtNtCs1YuMAXYbbDa_10vectorizer3api12advanced_apiNtB5_16ApiDocumentation10initialize
FNDA:0,_RNvMs5_NtNtCs1YuMAXYbbDa_10vectorizer3api12advanced_apiNtB5_16ApiDocumentation3new
FNDA:0,_RNvMs6_NtNtCs1YuMAXYbbDa_10vectorizer3api12advanced_apiNtB5_25MemoryRateLimitingStorage3new
FNDA:0,_RNvMs8_NtNtCs1YuMAXYbbDa_10vectorizer3api12advanced_apiNtB5_22MemoryAnalyticsStorage3new
FNDA:0,_RNvXs0_NtNtCs1YuMAXYbbDa_10vectorizer3api12advanced_apiNtB5_11TestHandlerNtB5_13ApiMiddleware15process_request
FNDA:0,_RNvXs0_NtNtCs1YuMAXYbbDa_10vectorizer3api12advanced_apiNtB5_11TestHandlerNtB5_13ApiMiddleware16process_response
FNDA:0,_RNvXs0_NtNtCs1YuMAXYbbDa_10vectorizer3api12advanced_apiNtB5_11TestHandlerNtB5_13ApiMiddleware8get_name
FNDA:0,_RNvXs7_NtNtCs1YuMAXYbbDa_10vectorizer3api12advanced_apiNtB5_25MemoryRateLimitingStorageNtB5_19RateLimitingStorage13reset_counter
FNDA:0,_RNvXs7_NtNtCs1YuMAXYbbDa_10vectorizer3api12advanced_apiNtB5_25MemoryRateLimitingStorageNtB5_19RateLimitingStorage16check_rate_limit
FNDA:0,_RNvXs7_NtNtCs1YuMAXYbbDa_10vectorizer3api12advanced_apiNtB5_25MemoryRateLimitingStorageNtB5_19RateLimitingStorage17increment_counter
FNDA:0,_RNvXs9_NtNtCs1YuMAXYbbDa_10vectorizer3api12advanced_apiNtB5_22MemoryAnalyticsStorageNtB5_16AnalyticsStorage10query_data
FNDA:0,_RNvXs9_NtNtCs1YuMAXYbbDa_10vectorizer3api12advanced_apiNtB5_22MemoryAnalyticsStorageNtB5_16AnalyticsStorage10store_data
FNDA:0,_RNvXs_NtNtCs1YuMAXYbbDa_10vectorizer3api12advanced_apiNtB4_11TestHandlerNtB4_10ApiHandler12get_metadata
FNDA:0,_RNvXs_NtNtCs1YuMAXYbbDa_10vectorizer3api12advanced_apiNtB4_11TestHandlerNtB4_10ApiHandler6handle
FNDA:0,_RNvXsa_NtNtCs1YuMAXYbbDa_10vectorizer3api12advanced_apiNtB5_9ApiConfigNtNtCs9Kp62OsN3pY_4core7default7Default7default
FNDA:0,_RNCNvMs1_NtNtCs4Tkd3OJeaSh_10vectorizer3api12advanced_apiNtB7_17AdvancedApiServer10find_route0Bb_
FNDA:0,_RNCNvMs1_NtNtCs4Tkd3OJeaSh_10vectorizer3api12advanced_apiNtB7_17AdvancedApiServer12start_server0Bb_
FNDA:0,_RNCNvMs1_NtNtCs4Tkd3OJeaSh_10vectorizer3api12advanced_apiNtB7_17AdvancedApiServer14handle_request0Bb_
FNDA:0,_RNCNvMs1_NtNtCs4Tkd3OJeaSh_10vectorizer3api12advanced_apiNtB7_17AdvancedApiServer16apply_middleware0Bb_
FNDA:0,_RNCNvMs1_NtNtCs4Tkd3OJeaSh_10vectorizer3api12advanced_apiNtB7_17AdvancedApiServer16record_analytics0Bb_
FNDA:0,_RNCNvMs1_NtNtCs4Tkd3OJeaSh_10vectorizer3api12advanced_apiNtB7_17AdvancedApiServer17initialize_server0Bb_
FNDA:0,_RNCNvMs1_NtNtCs4Tkd3OJeaSh_10vectorizer3api12advanced_apiNtB7_17AdvancedApiServer19apply_rate_limiting0Bb_
FNDA:0,_RNCNvMs1_NtNtCs4Tkd3OJeaSh_10vectorizer3api12advanced_apiNtB7_17AdvancedApiServer25apply_response_middleware0Bb_
FNDA:0,_RNCNvMs1_NtNtCs4Tkd3OJeaSh_10vectorizer3api12advanced_apiNtB7_17AdvancedApiServer4stop0Bb_
FNDA:0,_RNCNvMs1_NtNtCs4Tkd3OJeaSh_10vectorizer3api12advanced_apiNtB7_17AdvancedApiServer5start0Bb_
FNDA:0,_RNCNvMs2_NtNtCs4Tkd3OJeaSh_10vectorizer3api12advanced_apiNtB7_13ApiVersioning10initialize0Bb_
FNDA:0,_RNCNvMs3_NtNtCs4Tkd3OJeaSh_10vectorizer3api12advanced_apiNtB7_11RateLimiter10initialize0Bb_
FNDA:0,_RNCNvMs3_NtNtCs4Tkd3OJeaSh_10vectorizer3api12advanced_apiNtB7_11RateLimiter16check_rate_limit0Bb_
FNDA:0,_RNCNvMs4_NtNtCs4Tkd3OJeaSh_10vectorizer3api12advanced_apiNtB7_12ApiAnalytics10initialize0Bb_
FNDA:0,_RNCNvMs4_NtNtCs4Tkd3OJeaSh_10vectorizer3api12advanced_apiNtB7_12ApiAnalytics14record_request0Bb_
FNDA:0,_RNCNvMs5_NtNtCs4Tkd3OJeaSh_10vectorizer3api12advanced_apiNtB7_16ApiDocumentation10initialize0Bb_
FNDA:0,_RNCNvXs0_NtNtCs4Tkd3OJeaSh_10vectorizer3api12advanced_apiNtB7_11TestHandlerNtB7_13ApiMiddleware15process_request0Bb_
FNDA:0,_RNCNvXs0_NtNtCs4Tkd3OJeaSh_10vectorizer3api12advanced_apiNtB7_11TestHandlerNtB7_13ApiMiddleware16process_response0Bb_
FNDA:0,_RNCNvXs7_NtNtCs4Tkd3OJeaSh_10vectorizer3api12advanced_apiNtB7_25MemoryRateLimitingStorageNtB7_19RateLimitingStorage13reset_counter0Bb_
FNDA:0,_RNCNvXs7_NtNtCs4Tkd3OJeaSh_10vectorizer3api12advanced_apiNtB7_25MemoryRateLimitingStorageNtB7_19RateLimitingStorage16check_rate_limit0Bb_
FNDA:0,_RNCNvXs7_NtNtCs4Tkd3OJeaSh_10vectorizer3api12advanced_apiNtB7_25MemoryRateLimitingStorageNtB7_19RateLimitingStorage17increment_counter0Bb_
FNDA:0,_RNCNvXs9_NtNtCs4Tkd3OJeaSh_10vectorizer3api12advanced_apiNtB7_22MemoryAnalyticsStorageNtB7_16AnalyticsStorage10query_data0Bb_
FNDA:0,_RNCNvXs9_NtNtCs4Tkd3OJeaSh_10vectorizer3api12advanced_apiNtB7_22MemoryAnalyticsStorageNtB7_16AnalyticsStorage10store_data0Bb_
FNDA:0,_RNCNvXs_NtNtCs4Tkd3OJeaSh_10vectorizer3api12advanced_apiNtB6_11TestHandlerNtB6_10ApiHandler6handle0Ba_
FNDA:0,_RNvMs1_NtNtCs4Tkd3OJeaSh_10vectorizer3api12advanced_apiNtB5_17AdvancedApiServer10find_route
FNDA:0,_RNvMs1_NtNtCs4Tkd3OJeaSh_10vectorizer3api12advanced_apiNtB5_17AdvancedApiServer12start_server
FNDA:0,_RNvMs1_NtNtCs4Tkd3OJeaSh_10vectorizer3api12advanced_apiNtB5_17AdvancedApiServer14add_middleware
FNDA:0,_RNvMs1_NtNtCs4Tkd3OJeaSh_10vectorizer3api12advanced_apiNtB5_17AdvancedApiServer14handle_request
FNDA:0,_RNvMs1_NtNtCs4Tkd3OJeaSh_10vectorizer3api12advanced_apiNtB5_17AdvancedApiServer16apply_middleware
FNDA:0,_RNvMs1_NtNtCs4Tkd3OJeaSh_10vectorizer3api12advanced_apiNtB5_17AdvancedApiServer16record_analytics
FNDA:0,_RNvMs1_NtNtCs4Tkd3OJeaSh_10vectorizer3api12advanced_apiNtB5_17AdvancedApiServer17initialize_server
FNDA:0,_RNvMs1_NtNtCs4Tkd3OJeaSh_10vectorizer3api12advanced_apiNtB5_17AdvancedApiServer19apply_rate_limiting
FNDA:0,_RNvMs1_NtNtCs4Tkd3OJeaSh_10vectorizer3api12advanced_apiNtB5_17AdvancedApiServer25apply_response_middleware
FNDA:0,_RNvMs1_NtNtCs4Tkd3OJeaSh_10vectorizer3api12advanced_apiNtB5_17AdvancedApiServer3new
FNDA:0,_RNvMs1_NtNtCs4Tkd3OJeaSh_10vectorizer3api12advanced_apiNtB5_17AdvancedApiServer4stop
FNDA:0,_RNvMs1_NtNtCs4Tkd3OJeaSh_10vectorizer3api12advanced_apiNtB5_17AdvancedApiServer5start
FNDA:0,_RNvMs1_NtNtCs4Tkd3OJeaSh_10vectorizer3api12advanced_apiNtB5_17AdvancedApiServer9add_route
FNDA:0,_RNvMs2_NtNtCs4Tkd3OJeaSh_10vectorizer3api12advanced_apiNtB5_13ApiVersioning10initialize
FNDA:0,_RNvMs2_NtNtCs4Tkd3OJeaSh_10vectorizer3api12advanced_apiNtB5_13ApiVersioning3new
FNDA:0,_RNvMs3_NtNtCs4Tkd3OJeaSh_10vectorizer3api12advanced_apiNtB5_11RateLimiter10initialize
FNDA:0,_RNvMs3_NtNtCs4Tkd3OJeaSh_10vectorizer3api12advanced_apiNtB5_11RateLimiter16check_rate_limit
FNDA:0,_RNvMs3_NtNtCs4Tkd3OJeaSh_10vectorizer3api12advanced_apiNtB5_11RateLimiter3new
FNDA:0,_RNvMs4_NtNtCs4Tkd3OJeaSh_10vectorizer3api12advanced_apiNtB5_12ApiAnalytics10initialize
FNDA:0,_RNvMs4_NtNtCs4Tkd3OJeaSh_10vectorizer3api12advanced_apiNtB5_12ApiAnalytics14record_request
FNDA:0,_RNvMs4_NtNtCs4Tkd3OJeaSh_10vectorizer3api12advanced_apiNtB5_12ApiAnalytics3new
FNDA:0,_RNvMs5_NtNtCs4Tkd3OJeaSh_10vectorizer3api12advanced_apiNtB5_16ApiDocumentation10initialize
FNDA:0,_RNvMs5_NtNtCs4Tkd3OJeaSh_10vectorizer3api12advanced_apiNtB5_16ApiDocumentation3new
FNDA:0,_RNvMs6_NtNtCs4Tkd3OJeaSh_10vectorizer3api12advanced_apiNtB5_25MemoryRateLimitingStorage3new
FNDA:0,_RNvMs8_NtNtCs4Tkd3OJeaSh_10vectorizer3api12advanced_apiNtB5_22MemoryAnalyticsStorage3new
FNDA:0,_RNvXs0_NtNtCs4Tkd3OJeaSh_10vectorizer3api12advanced_apiNtB5_11TestHandlerNtB5_13ApiMiddleware15process_request
FNDA:0,_RNvXs0_NtNtCs4Tkd3OJeaSh_10vectorizer3api12advanced_apiNtB5_11TestHandlerNtB5_13ApiMiddleware16process_response
FNDA:0,_RNvXs0_NtNtCs4Tkd3OJeaSh_10vectorizer3api12advanced_apiNtB5_11TestHandlerNtB5_13ApiMiddleware8get_name
FNDA:0,_RNvXs7_NtNtCs4Tkd3OJeaSh_10vectorizer3api12advanced_apiNtB5_25MemoryRateLimitingStorageNtB5_19RateLimitingStorage13reset_counter
FNDA:0,_RNvXs7_NtNtCs4Tkd3OJeaSh_10vectorizer3api12advanced_apiNtB5_25MemoryRateLimitingStorageNtB5_19RateLimitingStorage16check_rate_limit
FNDA:0,_RNvXs7_NtNtCs4Tkd3OJeaSh_10vectorizer3api12advanced_apiNtB5_25MemoryRateLimitingStorageNtB5_19RateLimitingStorage17increment_counter
FNDA:0,_RNvXs9_NtNtCs4Tkd3OJeaSh_10vectorizer3api12advanced_apiNtB5_22MemoryAnalyticsStorageNtB5_16AnalyticsStorage10query_data
FNDA:0,_RNvXs9_NtNtCs4Tkd3OJeaSh_10vectorizer3api12advanced_apiNtB5_22MemoryAnalyticsStorageNtB5_16AnalyticsStorage10store_data
FNDA:0,_RNvXs_NtNtCs4Tkd3OJeaSh_10vectorizer3api12advanced_apiNtB4_11TestHandlerNtB4_10ApiHandler12get_metadata
FNDA:0,_RNvXs_NtNtCs4Tkd3OJeaSh_10vectorizer3api12advanced_apiNtB4_11TestHandlerNtB4_10ApiHandler6handle
FNDA:1,_RNvNtNtNtCs4Tkd3OJeaSh_10vectorizer3api12advanced_api5testss_23test_api_config_default
FNDA:1,_RNvNtNtNtCs4Tkd3OJeaSh_10vectorizer3api12advanced_api5testss_23test_api_route_creation
FNDA:1,_RNvNtNtNtCs4Tkd3OJeaSh_10vectorizer3api12advanced_api5testss_24test_rate_limit_creation
FNDA:1,_RNvNtNtNtCs4Tkd3OJeaSh_10vectorizer3api12advanced_api5testss_25test_api_request_creation
FNDA:1,_RNvNtNtNtCs4Tkd3OJeaSh_10vectorizer3api12advanced_api5testss_26test_api_response_creation
FNDA:1,_RNvMNtNtCs4Tkd3OJeaSh_10vectorizer3api12advanced_apiNtB2_11TestHandler3new
FNDA:1,_RNvXsa_NtNtCs4Tkd3OJeaSh_10vectorizer3api12advanced_apiNtB5_9ApiConfigNtNtCs9Kp62OsN3pY_4core7default7Default7default
FNF:66
FNH:7
DA:527,1
DA:528,1
DA:529,1
DA:533,0
DA:534,0
DA:535,0
DA:536,0
DA:537,0
DA:538,0
DA:539,0
DA:540,0
DA:542,0
DA:543,0
DA:544,0
DA:545,0
DA:546,0
DA:547,0
DA:548,0
DA:549,0
DA:553,0
DA:555,0
DA:556,0
DA:558,0
DA:560,0
DA:561,0
DA:563,0
DA:564,0
DA:565,0
DA:997,0
DA:998,0
DA:999,0
DA:1000,0
DA:1001,0
DA:1002,0
DA:1003,0
DA:1004,0
DA:1005,0
DA:1006,0
DA:1007,0
DA:1010,0
DA:1011,0
DA:1012,0
DA:1013,0
DA:1016,0
DA:1017,0
DA:1018,0
DA:1019,0
DA:1022,0
DA:1024,0
DA:1027,0
DA:1029,0
DA:1030,0
DA:1033,0
DA:1035,0
DA:1036,0
DA:1039,0
DA:1041,0
DA:1042,0
DA:1045,0
DA:1048,0
DA:1051,0
DA:1054,0
DA:1057,0
DA:1059,0
DA:1060,0
DA:1063,0
DA:1065,0
DA:1068,0
DA:1071,0
DA:1074,0
DA:1076,0
DA:1077,0
DA:1080,0
DA:1082,0
DA:1083,0
DA:1086,0
DA:1087,0
DA:1089,0
DA:1090,0
DA:1093,0
DA:1094,0
DA:1097,0
DA:1098,0
DA:1100,0
DA:1101,0
DA:1104,0
DA:1105,0
DA:1108,0
DA:1109,0
DA:1111,0
DA:1112,0
DA:1114,0
DA:1116,0
DA:1119,0
DA:1120,0
DA:1121,0
DA:1122,0
DA:1124,0
DA:1125,0
DA:1128,0
DA:1129,0
DA:1130,0
DA:1131,0
DA:1133,0
DA:1134,0
DA:1139,0
DA:1140,0
DA:1141,0
DA:1142,0
DA:1143,0
DA:1144,0
DA:1145,0
DA:1146,0
DA:1147,0
DA:1148,0
DA:1149,0
DA:1152,0
DA:1154,0
DA:1155,0
DA:1160,0
DA:1161,0
DA:1162,0
DA:1163,0
DA:1164,0
DA:1165,0
DA:1168,0
DA:1170,0
DA:1171,0
DA:1174,0
DA:1176,0
DA:1177,0
DA:1182,0
DA:1183,0
DA:1184,0
DA:1185,0
DA:1186,0
DA:1187,0
DA:1188,0
DA:1191,0
DA:1193,0
DA:1194,0
DA:1197,0
DA:1199,0
DA:1200,0
DA:1205,0
DA:1206,0
DA:1207,0
DA:1208,0
DA:1209,0
DA:1210,0
DA:1211,0
DA:1212,0
DA:1213,0
DA:1214,0
DA:1215,0
DA:1216,0
DA:1217,0
DA:1218,0
DA:1219,0
DA:1220,0
DA:1221,0
DA:1222,0
DA:1225,0
DA:1227,0
DA:1228,0
DA:1240,0
DA:1241,0
DA:1242,0
DA:1243,0
DA:1244,0
DA:1248,0
DA:1249,0
DA:1250,0
DA:1252,0
DA:1253,0
DA:1254,0
DA:1255,0
DA:1256,0
DA:1257,0
DA:1258,0
DA:1260,0
DA:1261,0
DA:1262,0
DA:1263,0
DA:1264,0
DA:1266,0
DA:1267,0
DA:1268,0
DA:1269,0
DA:1270,0
DA:1282,0
DA:1283,0
DA:1284,0
DA:1285,0
DA:1286,0
DA:1290,0
DA:1291,0
DA:1292,0
DA:1293,0
DA:1294,0
DA:1296,0
DA:1297,0
DA:1298,0
DA:1299,0
DA:1303,1
DA:1304,1
DA:1305,1
DA:1306,1
DA:1307,1
DA:1308,1
DA:1309,1
DA:1310,1
DA:1311,1
DA:1312,1
DA:1313,1
DA:1314,1
DA:1315,1
DA:1316,1
DA:1317,1
DA:1318,1
DA:1319,1
DA:1320,1
DA:1321,1
DA:1322,1
DA:1323,1
DA:1324,1
DA:1325,1
DA:1326,1
DA:1327,1
DA:1328,1
DA:1329,1
DA:1330,1
DA:1331,1
DA:1332,1
DA:1333,1
DA:1334,1
DA:1335,1
DA:1336,1
DA:1337,1
DA:1338,1
DA:1339,1
DA:1340,1
DA:1341,1
DA:1342,1
DA:1343,1
DA:1344,1
DA:1345,1
DA:1346,1
DA:1347,1
DA:1348,1
DA:1349,1
DA:1350,1
DA:1351,1
DA:1352,1
DA:1353,1
DA:1354,1
DA:1355,1
DA:1356,1
DA:1357,1
DA:1358,1
DA:1359,1
DA:1360,1
DA:1361,1
DA:1362,1
DA:1363,1
DA:1364,1
DA:1365,1
DA:1366,1
DA:1367,1
DA:1368,1
DA:1369,1
DA:1370,1
DA:1371,1
DA:1372,1
DA:1373,1
DA:1374,1
DA:1375,1
DA:1383,1
DA:1384,1
DA:1385,1
DA:1386,1
DA:1387,1
DA:1388,1
DA:1389,1
DA:1390,1
DA:1391,1
DA:1392,1
DA:1393,1
DA:1394,1
DA:1395,1
DA:1398,1
DA:1399,1
DA:1400,1
DA:1401,1
DA:1402,1
DA:1403,1
DA:1404,1
DA:1405,1
DA:1406,1
DA:1407,1
DA:1408,1
DA:1409,1
DA:1410,1
DA:1411,1
DA:1412,1
DA:1413,1
DA:1414,1
DA:1416,1
DA:1417,1
DA:1418,1
DA:1419,1
DA:1422,1
DA:1423,1
DA:1424,1
DA:1425,1
DA:1426,1
DA:1427,1
DA:1428,1
DA:1429,1
DA:1430,1
DA:1431,1
DA:1432,1
DA:1433,1
DA:1434,1
DA:1436,1
DA:1437,1
DA:1438,1
DA:1439,1
DA:1442,1
DA:1443,1
DA:1444,1
DA:1445,1
DA:1446,1
DA:1447,1
DA:1448,1
DA:1450,1
DA:1451,1
DA:1454,1
DA:1455,1
DA:1456,1
DA:1457,1
DA:1458,1
DA:1459,1
DA:1460,1
DA:1461,1
DA:1463,1
DA:1464,1
DA:1465,1
DA:1466,1
DA:1467,1
BRF:0
BRH:0
LF:374
LH:149
end_of_record
SF:/mnt/f/Node/hivellm/vectorizer/src/auth/api_keys.rs
FN:182,_RNCNCNCNvMNtNtCs1YuMAXYbbDa_10vectorizer4auth8api_keysNtB8_13ApiKeyManager20cleanup_expired_keys000Bc_
FN:166,_RNCNCNvMNtNtCs1YuMAXYbbDa_10vectorizer4auth8api_keysNtB6_13ApiKeyManager12get_key_info00Ba_
FN:182,_RNCNCNvMNtNtCs1YuMAXYbbDa_10vectorizer4auth8api_keysNtB6_13ApiKeyManager20cleanup_expired_keys00Ba_
FN:183,_RNCNCNvMNtNtCs1YuMAXYbbDa_10vectorizer4auth8api_keysNtB6_13ApiKeyManager20cleanup_expired_keys0s_0Ba_
FN:161,_RNCNvMNtNtCs1YuMAXYbbDa_10vectorizer4auth8api_keysNtB4_13ApiKeyManager12get_key_info0B8_
FN:170,_RNCNvMNtNtCs1YuMAXYbbDa_10vectorizer4auth8api_keysNtB4_13ApiKeyManager13list_all_keys0B8_
FN:176,_RNCNvMNtNtCs1YuMAXYbbDa_10vectorizer4auth8api_keysNtB4_13ApiKeyManager20cleanup_expired_keys0B8_
FN:137,_RNCNCNvMNtNtCs1YuMAXYbbDa_10vectorizer4auth8api_keysNtB6_13ApiKeyManager18list_keys_for_user00Ba_
FN:68,_RNCNvMNtNtCs1YuMAXYbbDa_10vectorizer4auth8api_keysNtB4_13ApiKeyManager10create_key0B8_
FN:145,_RNCNvMNtNtCs1YuMAXYbbDa_10vectorizer4auth8api_keysNtB4_13ApiKeyManager10revoke_key0B8_
FN:47,_RNCNvMNtNtCs1YuMAXYbbDa_10vectorizer4auth8api_keysNtB4_13ApiKeyManager12generate_key0B8_
FN:94,_RNCNvMNtNtCs1YuMAXYbbDa_10vectorizer4auth8api_keysNtB4_13ApiKeyManager12validate_key0B8_
FN:121,_RNCNvMNtNtCs1YuMAXYbbDa_10vectorizer4auth8api_keysNtB4_13ApiKeyManager16update_last_used0B8_
FN:132,_RNCNvMNtNtCs1YuMAXYbbDa_10vectorizer4auth8api_keysNtB4_13ApiKeyManager18list_keys_for_user0B8_
FN:62,_RNvMNtNtCs1YuMAXYbbDa_10vectorizer4auth8api_keysNtB2_13ApiKeyManager10create_key
FN:145,_RNvMNtNtCs1YuMAXYbbDa_10vectorizer4auth8api_keysNtB2_13ApiKeyManager10revoke_key
FN:41,_RNvMNtNtCs1YuMAXYbbDa_10vectorizer4auth8api_keysNtB2_13ApiKeyManager12generate_key
FN:161,_RNvMNtNtCs1YuMAXYbbDa_10vectorizer4auth8api_keysNtB2_13ApiKeyManager12get_key_info
FN:94,_RNvMNtNtCs1YuMAXYbbDa_10vectorizer4auth8api_keysNtB2_13ApiKeyManager12validate_key
FN:170,_RNvMNtNtCs1YuMAXYbbDa_10vectorizer4auth8api_keysNtB2_13ApiKeyManager13list_all_keys
FN:121,_RNvMNtNtCs1YuMAXYbbDa_10vectorizer4auth8api_keysNtB2_13ApiKeyManager16update_last_used
FN:132,_RNvMNtNtCs1YuMAXYbbDa_10vectorizer4auth8api_keysNtB2_13ApiKeyManager18list_keys_for_user
FN:176,_RNvMNtNtCs1YuMAXYbbDa_10vectorizer4auth8api_keysNtB2_13ApiKeyManager20cleanup_expired_keys
FN:27,_RNvMNtNtCs1YuMAXYbbDa_10vectorizer4auth8api_keysNtB2_13ApiKeyManager3new
FN:55,_RNvMNtNtCs1YuMAXYbbDa_10vectorizer4auth8api_keysNtB2_13ApiKeyManager8hash_key
FN:166,_RNCNCNvMNtNtCs4Tkd3OJeaSh_10vectorizer4auth8api_keysNtB6_13ApiKeyManager12get_key_info00Ba_
FN:161,_RNCNvMNtNtCs4Tkd3OJeaSh_10vectorizer4auth8api_keysNtB4_13ApiKeyManager12get_key_info0B8_
FN:161,_RNvMNtNtCs4Tkd3OJeaSh_10vectorizer4auth8api_keysNtB2_13ApiKeyManager12get_key_info
FN:182,_RNCNCNCNvMNtNtCs4Tkd3OJeaSh_10vectorizer4auth8api_keysNtB8_13ApiKeyManager20cleanup_expired_keys000Bc_
FN:137,_RNCNCNvMNtNtCs4Tkd3OJeaSh_10vectorizer4auth8api_keysNtB6_13ApiKeyManager18list_keys_for_user00Ba_
FN:182,_RNCNCNvMNtNtCs4Tkd3OJeaSh_10vectorizer4auth8api_keysNtB6_13ApiKeyManager20cleanup_expired_keys00Ba_
FN:183,_RNCNCNvMNtNtCs4Tkd3OJeaSh_10vectorizer4auth8api_keysNtB6_13ApiKeyManager20cleanup_expired_keys0s_0Ba_
FN:68,_RNCNvMNtNtCs4Tkd3OJeaSh_10vectorizer4auth8api_keysNtB4_13ApiKeyManager10create_key0B8_
FN:145,_RNCNvMNtNtCs4Tkd3OJeaSh_10vectorizer4auth8api_keysNtB4_13ApiKeyManager10revoke_key0B8_
FN:47,_RNCNvMNtNtCs4Tkd3OJeaSh_10vectorizer4auth8api_keysNtB4_13ApiKeyManager12generate_key0B8_
FN:94,_RNCNvMNtNtCs4Tkd3OJeaSh_10vectorizer4auth8api_keysNtB4_13ApiKeyManager12validate_key0B8_
FN:170,_RNCNvMNtNtCs4Tkd3OJeaSh_10vectorizer4auth8api_keysNtB4_13ApiKeyManager13list_all_keys0B8_
FN:121,_RNCNvMNtNtCs4Tkd3OJeaSh_10vectorizer4auth8api_keysNtB4_13ApiKeyManager16update_last_used0B8_
FN:132,_RNCNvMNtNtCs4Tkd3OJeaSh_10vectorizer4auth8api_keysNtB4_13ApiKeyManager18list_keys_for_user0B8_
FN:176,_RNCNvMNtNtCs4Tkd3OJeaSh_10vectorizer4auth8api_keysNtB4_13ApiKeyManager20cleanup_expired_keys0B8_
FN:62,_RNvMNtNtCs4Tkd3OJeaSh_10vectorizer4auth8api_keysNtB2_13ApiKeyManager10create_key
FN:145,_RNvMNtNtCs4Tkd3OJeaSh_10vectorizer4auth8api_keysNtB2_13ApiKeyManager10revoke_key
FN:41,_RNvMNtNtCs4Tkd3OJeaSh_10vectorizer4auth8api_keysNtB2_13ApiKeyManager12generate_key
FN:94,_RNvMNtNtCs4Tkd3OJeaSh_10vectorizer4auth8api_keysNtB2_13ApiKeyManager12validate_key
FN:170,_RNvMNtNtCs4Tkd3OJeaSh_10vectorizer4auth8api_keysNtB2_13ApiKeyManager13list_all_keys
FN:121,_RNvMNtNtCs4Tkd3OJeaSh_10vectorizer4auth8api_keysNtB2_13ApiKeyManager16update_last_used
FN:132,_RNvMNtNtCs4Tkd3OJeaSh_10vectorizer4auth8api_keysNtB2_13ApiKeyManager18list_keys_for_user
FN:176,_RNvMNtNtCs4Tkd3OJeaSh_10vectorizer4auth8api_keysNtB2_13ApiKeyManager20cleanup_expired_keys
FN:27,_RNvMNtNtCs4Tkd3OJeaSh_10vectorizer4auth8api_keysNtB2_13ApiKeyManager3new
FN:55,_RNvMNtNtCs4Tkd3OJeaSh_10vectorizer4auth8api_keysNtB2_13ApiKeyManager8hash_key
FN:246,_RNCNvNtNtNtCs4Tkd3OJeaSh_10vectorizer4auth8api_keys5testss_20test_invalid_api_key0B9_
FN:216,_RNCNvNtNtNtCs4Tkd3OJeaSh_10vectorizer4auth8api_keys5testss_21test_api_key_creation0B9_
FN:258,_RNCNvNtNtNtCs4Tkd3OJeaSh_10vectorizer4auth8api_keys5testss_23test_api_key_expiration0B9_
FN:289,_RNCNvNtNtNtCs4Tkd3OJeaSh_10vectorizer4auth8api_keys5testss_23test_api_key_revocation0B9_
FN:232,_RNCNvNtNtNtCs4Tkd3OJeaSh_10vectorizer4auth8api_keys5testss_23test_api_key_validation0B9_
FN:313,_RNCNvNtNtNtCs4Tkd3OJeaSh_10vectorizer4auth8api_keys5testss_23test_list_keys_for_user0B9_
FN:340,_RNCNvNtNtNtCs4Tkd3OJeaSh_10vectorizer4auth8api_keys5testss_25test_cleanup_expired_keys0B9_
FN:200,_RNCNvNtNtNtCs4Tkd3OJeaSh_10vectorizer4auth8api_keys5testss_29test_api_key_manager_creation0B9_
FN:206,_RNCNvNtNtNtCs4Tkd3OJeaSh_10vectorizer4auth8api_keys5testss_33test_api_key_manager_short_length0B9_
FN:246,_RNvNtNtNtCs4Tkd3OJeaSh_10vectorizer4auth8api_keys5testss_20test_invalid_api_key
FN:216,_RNvNtNtNtCs4Tkd3OJeaSh_10vectorizer4auth8api_keys5testss_21test_api_key_creation
FN:258,_RNvNtNtNtCs4Tkd3OJeaSh_10vectorizer4auth8api_keys5testss_23test_api_key_expiration
FN:289,_RNvNtNtNtCs4Tkd3OJeaSh_10vectorizer4auth8api_keys5testss_23test_api_key_revocation
FN:232,_RNvNtNtNtCs4Tkd3OJeaSh_10vectorizer4auth8api_keys5testss_23test_api_key_validation
FN:313,_RNvNtNtNtCs4Tkd3OJeaSh_10vectorizer4auth8api_keys5testss_23test_list_keys_for_user
FN:340,_RNvNtNtNtCs4Tkd3OJeaSh_10vectorizer4auth8api_keys5testss_25test_cleanup_expired_keys
FN:200,_RNvNtNtNtCs4Tkd3OJeaSh_10vectorizer4auth8api_keys5testss_29test_api_key_manager_creation
FN:206,_RNvNtNtNtCs4Tkd3OJeaSh_10vectorizer4auth8api_keys5testss_33test_api_key_manager_short_length
FNDA:0,_RNCNCNCNvMNtNtCs1YuMAXYbbDa_10vectorizer4auth8api_keysNtB8_13ApiKeyManager20cleanup_expired_keys000Bc_
FNDA:0,_RNCNCNvMNtNtCs1YuMAXYbbDa_10vectorizer4auth8api_keysNtB6_13ApiKeyManager12get_key_info00Ba_
FNDA:0,_RNCNCNvMNtNtCs1YuMAXYbbDa_10vectorizer4auth8api_keysNtB6_13ApiKeyManager20cleanup_expired_keys00Ba_
FNDA:0,_RNCNCNvMNtNtCs1YuMAXYbbDa_10vectorizer4auth8api_keysNtB6_13ApiKeyManager20cleanup_expired_keys0s_0Ba_
FNDA:0,_RNCNvMNtNtCs1YuMAXYbbDa_10vectorizer4auth8api_keysNtB4_13ApiKeyManager12get_key_info0B8_
FNDA:0,_RNCNvMNtNtCs1YuMAXYbbDa_10vectorizer4auth8api_keysNtB4_13ApiKeyManager13list_all_keys0B8_
FNDA:0,_RNCNvMNtNtCs1YuMAXYbbDa_10vectorizer4auth8api_keysNtB4_13ApiKeyManager20cleanup_expired_keys0B8_
FNDA:0,_RNCNCNvMNtNtCs1YuMAXYbbDa_10vectorizer4auth8api_keysNtB6_13ApiKeyManager18list_keys_for_user00Ba_
FNDA:0,_RNCNvMNtNtCs1YuMAXYbbDa_10vectorizer4auth8api_keysNtB4_13ApiKeyManager10create_key0B8_
FNDA:0,_RNCNvMNtNtCs1YuMAXYbbDa_10vectorizer4auth8api_keysNtB4_13ApiKeyManager10revoke_key0B8_
FNDA:0,_RNCNvMNtNtCs1YuMAXYbbDa_10vectorizer4auth8api_keysNtB4_13ApiKeyManager12generate_key0B8_
FNDA:0,_RNCNvMNtNtCs1YuMAXYbbDa_10vectorizer4auth8api_keysNtB4_13ApiKeyManager12validate_key0B8_
FNDA:0,_RNCNvMNtNtCs1YuMAXYbbDa_10vectorizer4auth8api_keysNtB4_13ApiKeyManager16update_last_used0B8_
FNDA:0,_RNCNvMNtNtCs1YuMAXYbbDa_10vectorizer4auth8api_keysNtB4_13ApiKeyManager18list_keys_for_user0B8_
FNDA:0,_RNvMNtNtCs1YuMAXYbbDa_10vectorizer4auth8api_keysNtB2_13ApiKeyManager10create_key
FNDA:0,_RNvMNtNtCs1YuMAXYbbDa_10vectorizer4auth8api_keysNtB2_13ApiKeyManager10revoke_key
FNDA:0,_RNvMNtNtCs1YuMAXYbbDa_10vectorizer4auth8api_keysNtB2_13ApiKeyManager12generate_key
FNDA:0,_RNvMNtNtCs1YuMAXYbbDa_10vectorizer4auth8api_keysNtB2_13ApiKeyManager12get_key_info
FNDA:0,_RNvMNtNtCs1YuMAXYbbDa_10vectorizer4auth8api_keysNtB2_13ApiKeyManager12validate_key
FNDA:0,_RNvMNtNtCs1YuMAXYbbDa_10vectorizer4auth8api_keysNtB2_13ApiKeyManager13list_all_keys
FNDA:0,_RNvMNtNtCs1YuMAXYbbDa_10vectorizer4auth8api_keysNtB2_13ApiKeyManager16update_last_used
FNDA:0,_RNvMNtNtCs1YuMAXYbbDa_10vectorizer4auth8api_keysNtB2_13ApiKeyManager18list_keys_for_user
FNDA:0,_RNvMNtNtCs1YuMAXYbbDa_10vectorizer4auth8api_keysNtB2_13ApiKeyManager20cleanup_expired_keys
FNDA:0,_RNvMNtNtCs1YuMAXYbbDa_10vectorizer4auth8api_keysNtB2_13ApiKeyManager3new
FNDA:0,_RNvMNtNtCs1YuMAXYbbDa_10vectorizer4auth8api_keysNtB2_13ApiKeyManager8hash_key
FNDA:0,_RNCNCNvMNtNtCs4Tkd3OJeaSh_10vectorizer4auth8api_keysNtB6_13ApiKeyManager12get_key_info00Ba_
FNDA:0,_RNCNvMNtNtCs4Tkd3OJeaSh_10vectorizer4auth8api_keysNtB4_13ApiKeyManager12get_key_info0B8_
FNDA:0,_RNvMNtNtCs4Tkd3OJeaSh_10vectorizer4auth8api_keysNtB2_13ApiKeyManager12get_key_info
FNDA:1,_RNCNCNCNvMNtNtCs4Tkd3OJeaSh_10vectorizer4auth8api_keysNtB8_13ApiKeyManager20cleanup_expired_keys000Bc_
FNDA:6,_RNCNCNvMNtNtCs4Tkd3OJeaSh_10vectorizer4auth8api_keysNtB6_13ApiKeyManager18list_keys_for_user00Ba_
FNDA:2,_RNCNCNvMNtNtCs4Tkd3OJeaSh_10vectorizer4auth8api_keysNtB6_13ApiKeyManager20cleanup_expired_keys00Ba_
FNDA:1,_RNCNCNvMNtNtCs4Tkd3OJeaSh_10vectorizer4auth8api_keysNtB6_13ApiKeyManager20cleanup_expired_keys0s_0Ba_
FNDA:14,_RNCNvMNtNtCs4Tkd3OJeaSh_10vectorizer4auth8api_keysNtB4_13ApiKeyManager10create_key0B8_
FNDA:1,_RNCNvMNtNtCs4Tkd3OJeaSh_10vectorizer4auth8api_keysNtB4_13ApiKeyManager10revoke_key0B8_
FNDA:448,_RNCNvMNtNtCs4Tkd3OJeaSh_10vectorizer4auth8api_keysNtB4_13ApiKeyManager12generate_key0B8_
FNDA:17,_RNCNvMNtNtCs4Tkd3OJeaSh_10vectorizer4auth8api_keysNtB4_13ApiKeyManager12validate_key0B8_
FNDA:1,_RNCNvMNtNtCs4Tkd3OJeaSh_10vectorizer4auth8api_keysNtB4_13ApiKeyManager13list_all_keys0B8_
FNDA:6,_RNCNvMNtNtCs4Tkd3OJeaSh_10vectorizer4auth8api_keysNtB4_13ApiKeyManager16update_last_used0B8_
FNDA:2,_RNCNvMNtNtCs4Tkd3OJeaSh_10vectorizer4auth8api_keysNtB4_13ApiKeyManager18list_keys_for_user0B8_
FNDA:1,_RNCNvMNtNtCs4Tkd3OJeaSh_10vectorizer4auth8api_keysNtB4_13ApiKeyManager20cleanup_expired_keys0B8_
FNDA:14,_RNvMNtNtCs4Tkd3OJeaSh_10vectorizer4auth8api_keysNtB2_13ApiKeyManager10create_key
FNDA:1,_RNvMNtNtCs4Tkd3OJeaSh_10vectorizer4auth8api_keysNtB2_13ApiKeyManager10revoke_key
FNDA:14,_RNvMNtNtCs4Tkd3OJeaSh_10vectorizer4auth8api_keysNtB2_13ApiKeyManager12generate_key
FNDA:17,_RNvMNtNtCs4Tkd3OJeaSh_10vectorizer4auth8api_keysNtB2_13ApiKeyManager12validate_key
FNDA:1,_RNvMNtNtCs4Tkd3OJeaSh_10vectorizer4auth8api_keysNtB2_13ApiKeyManager13list_all_keys
FNDA:6,_RNvMNtNtCs4Tkd3OJeaSh_10vectorizer4auth8api_keysNtB2_13ApiKeyManager16update_last_used
FNDA:2,_RNvMNtNtCs4Tkd3OJeaSh_10vectorizer4auth8api_keysNtB2_13ApiKeyManager18list_keys_for_user
FNDA:1,_RNvMNtNtCs4Tkd3OJeaSh_10vectorizer4auth8api_keysNtB2_13ApiKeyManager20cleanup_expired_keys
FNDA:29,_RNvMNtNtCs4Tkd3OJeaSh_10vectorizer4auth8api_keysNtB2_13ApiKeyManager3new
FNDA:31,_RNvMNtNtCs4Tkd3OJeaSh_10vectorizer4auth8api_keysNtB2_13ApiKeyManager8hash_key
FNDA:1,_RNCNvNtNtNtCs4Tkd3OJeaSh_10vectorizer4auth8api_keys5testss_20test_invalid_api_key0B9_
FNDA:1,_RNCNvNtNtNtCs4Tkd3OJeaSh_10vectorizer4auth8api_keys5testss_21test_api_key_creation0B9_
FNDA:1,_RNCNvNtNtNtCs4Tkd3OJeaSh_10vectorizer4auth8api_keys5testss_23test_api_key_expiration0B9_
FNDA:1,_RNCNvNtNtNtCs4Tkd3OJeaSh_10vectorizer4auth8api_keys5testss_23test_api_key_revocation0B9_
FNDA:1,_RNCNvNtNtNtCs4Tkd3OJeaSh_10vectorizer4auth8api_keys5testss_23test_api_key_validation0B9_
FNDA:1,_RNCNvNtNtNtCs4Tkd3OJeaSh_10vectorizer4auth8api_keys5testss_23test_list_keys_for_user0B9_
FNDA:1,_RNCNvNtNtNtCs4Tkd3OJeaSh_10vectorizer4auth8api_keys5testss_25test_cleanup_expired_keys0B9_
FNDA:1,_RNCNvNtNtNtCs4Tkd3OJeaSh_10vectorizer4auth8api_keys5testss_29test_api_key_manager_creation0B9_
FNDA:1,_RNCNvNtNtNtCs4Tkd3OJeaSh_10vectorizer4auth8api_keys5testss_33test_api_key_manager_short_length0B9_
FNDA:1,_RNvNtNtNtCs4Tkd3OJeaSh_10vectorizer4auth8api_keys5testss_20test_invalid_api_key
FNDA:1,_RNvNtNtNtCs4Tkd3OJeaSh_10vectorizer4auth8api_keys5testss_21test_api_key_creation
FNDA:1,_RNvNtNtNtCs4Tkd3OJeaSh_10vectorizer4auth8api_keys5testss_23test_api_key_expiration
FNDA:1,_RNvNtNtNtCs4Tkd3OJeaSh_10vectorizer4auth8api_keys5testss_23test_api_key_revocation
FNDA:1,_RNvNtNtNtCs4Tkd3OJeaSh_10vectorizer4auth8api_keys5testss_23test_api_key_validation
FNDA:1,_RNvNtNtNtCs4Tkd3OJeaSh_10vectorizer4auth8api_keys5testss_23test_list_keys_for_user
FNDA:1,_RNvNtNtNtCs4Tkd3OJeaSh_10vectorizer4auth8api_keys5testss_25test_cleanup_expired_keys
FNDA:1,_RNvNtNtNtCs4Tkd3OJeaSh_10vectorizer4auth8api_keys5testss_29test_api_key_manager_creation
FNDA:1,_RNvNtNtNtCs4Tkd3OJeaSh_10vectorizer4auth8api_keys5testss_33test_api_key_manager_short_length
FNF:43
FNH:40
DA:27,29
DA:28,29
DA:29,1
DA:30,1
DA:31,1
DA:32,28
DA:34,28
DA:35,28
DA:36,28
DA:37,28
DA:38,29
DA:41,14
DA:45,14
DA:46,14
DA:47,448
DA:48,448
DA:49,448
DA:50,448
DA:51,14
DA:52,14
DA:55,31
DA:56,31
DA:57,31
DA:58,31
DA:59,31
DA:62,14
DA:63,14
DA:64,14
DA:65,14
DA:66,14
DA:67,14
DA:68,14
DA:69,14
DA:70,14
DA:71,14
DA:73,14
DA:75,14
DA:76,14
DA:77,14
DA:78,14
DA:79,14
DA:80,14
DA:81,14
DA:82,14
DA:83,14
DA:84,14
DA:85,14
DA:87,14
DA:88,14
DA:90,14
DA:91,14
DA:94,17
DA:95,17
DA:96,17
DA:99,17
DA:100,12
DA:102,11
DA:103,2
DA:104,2
DA:105,1
DA:106,1
DA:107,1
DA:108,1
DA:109,9
DA:111,10
DA:112,1
DA:115,6
DA:116,6
DA:117,6
DA:118,17
DA:121,6
DA:122,6
DA:124,6
DA:125,6
DA:126,6
DA:128,6
DA:129,6
DA:132,2
DA:133,2
DA:135,2
DA:136,2
DA:137,6
DA:138,2
DA:139,2
DA:141,2
DA:142,2
DA:145,1
DA:146,1
DA:148,1
DA:149,1
DA:150,1
DA:151,0
DA:152,0
DA:153,0
DA:154,0
DA:157,1
DA:158,1
DA:161,0
DA:162,0
DA:164,0
DA:165,0
DA:166,0
DA:167,0
DA:170,1
DA:171,1
DA:172,1
DA:173,1
DA:176,1
DA:177,1
DA:178,1
DA:180,1
DA:181,1
DA:182,2
DA:183,1
DA:184,1
DA:186,2
DA:187,1
DA:188,1
DA:190,1
DA:191,1
DA:200,1
DA:201,1
DA:202,1
DA:203,1
DA:206,1
DA:207,1
DA:208,1
DA:209,1
DA:210,1
DA:211,1
DA:212,1
DA:213,1
DA:216,1
DA:217,1
DA:219,1
DA:220,1
DA:221,1
DA:222,1
DA:224,1
DA:225,1
DA:226,1
DA:227,1
DA:228,1
DA:229,1
DA:232,1
DA:233,1
DA:235,1
DA:236,1
DA:237,1
DA:238,1
DA:240,1
DA:241,1
DA:242,1
DA:243,1
DA:246,1
DA:247,1
DA:249,1
DA:250,1
DA:251,1
DA:252,1
DA:253,1
DA:254,1
DA:255,1
DA:258,1
DA:259,1
DA:262,1
DA:263,1
DA:264,1
DA:265,1
DA:266,1
DA:267,1
DA:268,1
DA:269,1
DA:270,1
DA:271,1
DA:274,1
DA:277,1
DA:280,1
DA:281,1
DA:282,1
DA:283,1
DA:284,1
DA:285,1
DA:286,1
DA:289,1
DA:290,1
DA:292,1
DA:293,1
DA:294,1
DA:295,1
DA:298,1
DA:301,1
DA:304,1
DA:305,1
DA:306,1
DA:307,1
DA:308,1
DA:309,1
DA:310,1
DA:313,1
DA:314,1
DA:317,1
DA:318,1
DA:319,1
DA:320,1
DA:321,1
DA:322,1
DA:323,1
DA:324,1
DA:327,1
DA:328,1
DA:329,1
DA:330,1
DA:332,1
DA:333,1
DA:335,1
DA:336,1
DA:337,1
DA:340,1
DA:341,1
DA:344,1
DA:345,1
DA:346,1
DA:347,1
DA:348,1
DA:349,1
DA:350,1
DA:351,1
DA:352,1
DA:353,1
DA:356,1
DA:357,1
DA:358,1
DA:359,1
DA:361,1
DA:362,1
DA:364,1
DA:365,1
DA:366,1
DA:367,1
BRF:0
BRH:0
LF:276
LH:264
end_of_record
SF:/mnt/f/Node/hivellm/vectorizer/src/auth/jwt.rs
FN:93,_RNvMNtNtCs1YuMAXYbbDa_10vectorizer4auth3jwtNtB2_10JwtManager10expiration
FN:85,_RNvMNtNtCs1YuMAXYbbDa_10vectorizer4auth3jwtNtB2_10JwtManager13refresh_token
FN:37,_RNvMNtNtCs1YuMAXYbbDa_10vectorizer4auth3jwtNtB2_10JwtManager14generate_token
FN:64,_RNvMNtNtCs1YuMAXYbbDa_10vectorizer4auth3jwtNtB2_10JwtManager14validate_token
FN:23,_RNvMNtNtCs1YuMAXYbbDa_10vectorizer4auth3jwtNtB2_10JwtManager3new
FN:45,_RNCNvMNtNtCs1YuMAXYbbDa_10vectorizer4auth3jwtNtB4_10JwtManager14generate_token0B8_
FN:60,_RNCNvMNtNtCs1YuMAXYbbDa_10vectorizer4auth3jwtNtB4_10JwtManager14generate_tokens_0B8_
FN:69,_RNCNvMNtNtCs1YuMAXYbbDa_10vectorizer4auth3jwtNtB4_10JwtManager14validate_token0B8_
FN:93,_RNvMNtNtCs4Tkd3OJeaSh_10vectorizer4auth3jwtNtB2_10JwtManager10expiration
FN:85,_RNvMNtNtCs4Tkd3OJeaSh_10vectorizer4auth3jwtNtB2_10JwtManager13refresh_token
FN:37,_RNvMNtNtCs4Tkd3OJeaSh_10vectorizer4auth3jwtNtB2_10JwtManager14generate_token
FN:64,_RNvMNtNtCs4Tkd3OJeaSh_10vectorizer4auth3jwtNtB2_10JwtManager14validate_token
FN:23,_RNvMNtNtCs4Tkd3OJeaSh_10vectorizer4auth3jwtNtB2_10JwtManager3new
FN:45,_RNCNvMNtNtCs4Tkd3OJeaSh_10vectorizer4auth3jwtNtB4_10JwtManager14generate_token0B8_
FN:60,_RNCNvMNtNtCs4Tkd3OJeaSh_10vectorizer4auth3jwtNtB4_10JwtManager14generate_tokens_0B8_
FN:69,_RNCNvMNtNtCs4Tkd3OJeaSh_10vectorizer4auth3jwtNtB4_10JwtManager14validate_token0B8_
FN:140,_RNvNtNtNtCs4Tkd3OJeaSh_10vectorizer4auth3jwt5testss_18test_invalid_token
FN:153,_RNvNtNtNtCs4Tkd3OJeaSh_10vectorizer4auth3jwt5testss_18test_token_refresh
FN:104,_RNvNtNtNtCs4Tkd3OJeaSh_10vectorizer4auth3jwt5testss_25test_jwt_manager_creation
FN:112,_RNvNtNtNtCs4Tkd3OJeaSh_10vectorizer4auth3jwt5testss_29test_jwt_manager_short_secret
FN:124,_RNvNtNtNtCs4Tkd3OJeaSh_10vectorizer4auth3jwt5testss_36test_token_generation_and_validation
FNDA:0,_RNvMNtNtCs1YuMAXYbbDa_10vectorizer4auth3jwtNtB2_10JwtManager10expiration
FNDA:0,_RNvMNtNtCs1YuMAXYbbDa_10vectorizer4auth3jwtNtB2_10JwtManager13refresh_token
FNDA:0,_RNvMNtNtCs1YuMAXYbbDa_10vectorizer4auth3jwtNtB2_10JwtManager14generate_token
FNDA:0,_RNvMNtNtCs1YuMAXYbbDa_10vectorizer4auth3jwtNtB2_10JwtManager14validate_token
FNDA:0,_RNvMNtNtCs1YuMAXYbbDa_10vectorizer4auth3jwtNtB2_10JwtManager3new
FNDA:0,_RNCNvMNtNtCs1YuMAXYbbDa_10vectorizer4auth3jwtNtB4_10JwtManager14generate_token0B8_
FNDA:0,_RNCNvMNtNtCs1YuMAXYbbDa_10vectorizer4auth3jwtNtB4_10JwtManager14generate_tokens_0B8_
FNDA:0,_RNCNvMNtNtCs1YuMAXYbbDa_10vectorizer4auth3jwtNtB4_10JwtManager14validate_token0B8_
FNDA:1,_RNvMNtNtCs4Tkd3OJeaSh_10vectorizer4auth3jwtNtB2_10JwtManager10expiration
FNDA:1,_RNvMNtNtCs4Tkd3OJeaSh_10vectorizer4auth3jwtNtB2_10JwtManager13refresh_token
FNDA:10,_RNvMNtNtCs4Tkd3OJeaSh_10vectorizer4auth3jwtNtB2_10JwtManager14generate_token
FNDA:14,_RNvMNtNtCs4Tkd3OJeaSh_10vectorizer4auth3jwtNtB2_10JwtManager14validate_token
FNDA:25,_RNvMNtNtCs4Tkd3OJeaSh_10vectorizer4auth3jwtNtB2_10JwtManager3new
FNDA:0,_RNCNvMNtNtCs4Tkd3OJeaSh_10vectorizer4auth3jwtNtB4_10JwtManager14generate_token0B8_
FNDA:0,_RNCNvMNtNtCs4Tkd3OJeaSh_10vectorizer4auth3jwtNtB4_10JwtManager14generate_tokens_0B8_
FNDA:3,_RNCNvMNtNtCs4Tkd3OJeaSh_10vectorizer4auth3jwtNtB4_10JwtManager14validate_token0B8_
FNDA:1,_RNvNtNtNtCs4Tkd3OJeaSh_10vectorizer4auth3jwt5testss_18test_invalid_token
FNDA:1,_RNvNtNtNtCs4Tkd3OJeaSh_10vectorizer4auth3jwt5testss_18test_token_refresh
FNDA:1,_RNvNtNtNtCs4Tkd3OJeaSh_10vectorizer4auth3jwt5testss_25test_jwt_manager_creation
FNDA:1,_RNvNtNtNtCs4Tkd3OJeaSh_10vectorizer4auth3jwt5testss_29test_jwt_manager_short_secret
FNDA:1,_RNvNtNtNtCs4Tkd3OJeaSh_10vectorizer4auth3jwt5testss_36test_token_generation_and_validation
FNF:13
FNH:11
DA:23,25
DA:24,25
DA:25,1
DA:26,1
DA:27,1
DA:28,24
DA:30,24
DA:31,24
DA:32,24
DA:33,24
DA:34,25
DA:37,10
DA:38,10
DA:39,10
DA:40,10
DA:41,10
DA:42,10
DA:43,10
DA:44,10
DA:45,10
DA:46,10
DA:48,10
DA:49,10
DA:50,10
DA:51,10
DA:52,10
DA:53,10
DA:54,10
DA:56,10
DA:57,10
DA:59,10
DA:60,10
DA:61,10
DA:64,14
DA:65,14
DA:66,14
DA:68,14
DA:69,14
DA:71,0
DA:74,2
DA:77,1
DA:79,3
DA:81,11
DA:82,14
DA:85,1
DA:86,1
DA:89,1
DA:90,1
DA:93,1
DA:94,1
DA:95,1
DA:104,1
DA:105,1
DA:106,1
DA:108,1
DA:109,1
DA:112,1
DA:113,1
DA:114,1
DA:116,1
DA:117,1
DA:118,1
DA:121,1
DA:124,1
DA:125,1
DA:126,1
DA:128,1
DA:129,1
DA:130,1
DA:132,1
DA:133,1
DA:134,1
DA:135,1
DA:136,1
DA:137,1
DA:140,1
DA:141,1
DA:142,1
DA:144,1
DA:145,1
DA:146,1
DA:147,1
DA:150,1
DA:153,1
DA:154,1
DA:155,1
DA:157,1
DA:158,1
DA:159,1
DA:161,1
DA:164,1
DA:165,1
DA:167,1
DA:168,1
DA:169,1
DA:170,1
BRF:0
BRH:0
LF:100
LH:97
end_of_record
SF:/mnt/f/Node/hivellm/vectorizer/src/auth/middleware.rs
FN:184,_RNCNCNvMs2_NtNtCs1YuMAXYbbDa_10vectorizer4auth10middlewareNtB9_27RequirePermissionMiddleware18require_permission00Bd_
FN:41,_RNCNvMNtNtCs1YuMAXYbbDa_10vectorizer4auth10middlewareNtB4_14AuthMiddleware12extract_auth0B8_
FN:52,_RNCNvMNtNtCs1YuMAXYbbDa_10vectorizer4auth10middlewareNtB4_14AuthMiddleware20authenticate_request0B8_
FN:119,_RNCNvMs0_NtNtCs1YuMAXYbbDa_10vectorizer4auth10middlewareNtB7_21RequireAuthMiddleware12require_auth0Bb_
FN:144,_RNCNvMs1_NtNtCs1YuMAXYbbDa_10vectorizer4auth10middlewareNtB7_21RequireRoleMiddleware12require_role0Bb_
FN:173,_RNCNvMs2_NtNtCs1YuMAXYbbDa_10vectorizer4auth10middlewareNtB7_27RequirePermissionMiddleware18require_permission0Bb_
FN:207,_RNCNvMs3_NtNtCs1YuMAXYbbDa_10vectorizer4auth10middlewareNtB7_19RateLimitMiddleware10rate_limit0Bb_
FN:37,_RNvMNtNtCs1YuMAXYbbDa_10vectorizer4auth10middlewareNtB2_14AuthMiddleware12extract_auth
FN:52,_RNvMNtNtCs1YuMAXYbbDa_10vectorizer4auth10middlewareNtB2_14AuthMiddleware20authenticate_request
FN:32,_RNvMNtNtCs1YuMAXYbbDa_10vectorizer4auth10middlewareNtB2_14AuthMiddleware3new
FN:115,_RNvMs0_NtNtCs1YuMAXYbbDa_10vectorizer4auth10middlewareNtB5_21RequireAuthMiddleware12require_auth
FN:139,_RNvMs1_NtNtCs1YuMAXYbbDa_10vectorizer4auth10middlewareNtB5_21RequireRoleMiddleware12require_role
FN:168,_RNvMs2_NtNtCs1YuMAXYbbDa_10vectorizer4auth10middlewareNtB5_27RequirePermissionMiddleware18require_permission
FN:203,_RNvMs3_NtNtCs1YuMAXYbbDa_10vectorizer4auth10middlewareNtB5_19RateLimitMiddleware10rate_limit
FN:242,_RNvMs4_NtNtCs1YuMAXYbbDa_10vectorizer4auth10middlewareNtB5_17AuthErrorResponse12rate_limited
FN:224,_RNvMs4_NtNtCs1YuMAXYbbDa_10vectorizer4auth10middlewareNtB5_17AuthErrorResponse12unauthorized
FN:233,_RNvMs4_NtNtCs1YuMAXYbbDa_10vectorizer4auth10middlewareNtB5_17AuthErrorResponse9forbidden
FN:105,_RNvXs_NtNtCs1YuMAXYbbDa_10vectorizer4auth10middlewareNtB4_14AuthMiddlewareNtNtCs9Kp62OsN3pY_4core7default7Default7default
FN:184,_RNCNCNvMs2_NtNtCs4Tkd3OJeaSh_10vectorizer4auth10middlewareNtB9_27RequirePermissionMiddleware18require_permission00Bd_
FN:41,_RNCNvMNtNtCs4Tkd3OJeaSh_10vectorizer4auth10middlewareNtB4_14AuthMiddleware12extract_auth0B8_
FN:119,_RNCNvMs0_NtNtCs4Tkd3OJeaSh_10vectorizer4auth10middlewareNtB7_21RequireAuthMiddleware12require_auth0Bb_
FN:144,_RNCNvMs1_NtNtCs4Tkd3OJeaSh_10vectorizer4auth10middlewareNtB7_21RequireRoleMiddleware12require_role0Bb_
FN:173,_RNCNvMs2_NtNtCs4Tkd3OJeaSh_10vectorizer4auth10middlewareNtB7_27RequirePermissionMiddleware18require_permission0Bb_
FN:207,_RNCNvMs3_NtNtCs4Tkd3OJeaSh_10vectorizer4auth10middlewareNtB7_19RateLimitMiddleware10rate_limit0Bb_
FN:37,_RNvMNtNtCs4Tkd3OJeaSh_10vectorizer4auth10middlewareNtB2_14AuthMiddleware12extract_auth
FN:115,_RNvMs0_NtNtCs4Tkd3OJeaSh_10vectorizer4auth10middlewareNtB5_21RequireAuthMiddleware12require_auth
FN:139,_RNvMs1_NtNtCs4Tkd3OJeaSh_10vectorizer4auth10middlewareNtB5_21RequireRoleMiddleware12require_role
FN:168,_RNvMs2_NtNtCs4Tkd3OJeaSh_10vectorizer4auth10middlewareNtB5_27RequirePermissionMiddleware18require_permission
FN:203,_RNvMs3_NtNtCs4Tkd3OJeaSh_10vectorizer4auth10middlewareNtB5_19RateLimitMiddleware10rate_limit
FN:52,_RNCNvMNtNtCs4Tkd3OJeaSh_10vectorizer4auth10middlewareNtB4_14AuthMiddleware20authenticate_request0B8_
FN:52,_RNvMNtNtCs4Tkd3OJeaSh_10vectorizer4auth10middlewareNtB2_14AuthMiddleware20authenticate_request
FN:32,_RNvMNtNtCs4Tkd3OJeaSh_10vectorizer4auth10middlewareNtB2_14AuthMiddleware3new
FN:242,_RNvMs4_NtNtCs4Tkd3OJeaSh_10vectorizer4auth10middlewareNtB5_17AuthErrorResponse12rate_limited
FN:224,_RNvMs4_NtNtCs4Tkd3OJeaSh_10vectorizer4auth10middlewareNtB5_17AuthErrorResponse12unauthorized
FN:233,_RNvMs4_NtNtCs4Tkd3OJeaSh_10vectorizer4auth10middlewareNtB5_17AuthErrorResponse9forbidden
FN:105,_RNvXs_NtNtCs4Tkd3OJeaSh_10vectorizer4auth10middlewareNtB4_14AuthMiddlewareNtNtCs9Kp62OsN3pY_4core7default7Default7default
FN:263,_RNvNtNtNtCs4Tkd3OJeaSh_10vectorizer4auth10middleware5testss_24test_auth_middleware_jwt
FN:337,_RNvNtNtNtCs4Tkd3OJeaSh_10vectorizer4auth10middleware5testss_25test_auth_error_responses
FN:579,_RNvNtNtNtCs4Tkd3OJeaSh_10vectorizer4auth10middleware5testss_26test_rate_limit_middleware
FN:285,_RNvNtNtNtCs4Tkd3OJeaSh_10vectorizer4auth10middleware5testss_28test_auth_middleware_api_key
FN:447,_RNvNtNtNtCs4Tkd3OJeaSh_10vectorizer4auth10middleware5testss_28test_auth_middleware_default
FN:307,_RNvNtNtNtCs4Tkd3OJeaSh_10vectorizer4auth10middleware5testss_28test_auth_middleware_no_auth
FN:320,_RNvNtNtNtCs4Tkd3OJeaSh_10vectorizer4auth10middleware5testss_34test_auth_middleware_invalid_token
FN:505,_RNvNtNtNtCs4Tkd3OJeaSh_10vectorizer4auth10middleware5testss_36test_require_role_middleware_no_role
FN:485,_RNvNtNtNtCs4Tkd3OJeaSh_10vectorizer4auth10middleware5testss_37test_require_role_middleware_has_role
FN:352,_RNvNtNtNtCs4Tkd3OJeaSh_10vectorizer4auth10middleware5testss_40test_auth_middleware_api_key_query_param
FN:373,_RNvNtNtNtCs4Tkd3OJeaSh_10vectorizer4auth10middleware5testss_40test_auth_middleware_invalid_auth_header
FN:423,_RNvNtNtNtCs4Tkd3OJeaSh_10vectorizer4auth10middleware5testss_41test_auth_middleware_query_param_multiple
FN:407,_RNvNtNtNtCs4Tkd3OJeaSh_10vectorizer4auth10middleware5testss_41test_auth_middleware_query_param_no_match
FN:390,_RNvNtNtNtCs4Tkd3OJeaSh_10vectorizer4auth10middleware5testss_42test_auth_middleware_malformed_auth_header
FN:453,_RNvNtNtNtCs4Tkd3OJeaSh_10vectorizer4auth10middleware5testss_42test_require_auth_middleware_authenticated
FN:474,_RNvNtNtNtCs4Tkd3OJeaSh_10vectorizer4auth10middleware5testss_44test_require_auth_middleware_unauthenticated
FN:552,_RNvNtNtNtCs4Tkd3OJeaSh_10vectorizer4auth10middleware5testss_48test_require_permission_middleware_no_permission
FN:525,_RNvNtNtNtCs4Tkd3OJeaSh_10vectorizer4auth10middleware5testss_49test_require_permission_middleware_has_permission
FN:574,_RNCNCNvNtNtNtCs4Tkd3OJeaSh_10vectorizer4auth10middleware5testss_48test_require_permission_middleware_no_permission00Bb_
FN:547,_RNCNCNvNtNtNtCs4Tkd3OJeaSh_10vectorizer4auth10middleware5testss_49test_require_permission_middleware_has_permission00Bb_
FN:263,_RNCNvNtNtNtCs4Tkd3OJeaSh_10vectorizer4auth10middleware5testss_24test_auth_middleware_jwt0B9_
FN:579,_RNCNvNtNtNtCs4Tkd3OJeaSh_10vectorizer4auth10middleware5testss_26test_rate_limit_middleware0B9_
FN:285,_RNCNvNtNtNtCs4Tkd3OJeaSh_10vectorizer4auth10middleware5testss_28test_auth_middleware_api_key0B9_
FN:307,_RNCNvNtNtNtCs4Tkd3OJeaSh_10vectorizer4auth10middleware5testss_28test_auth_middleware_no_auth0B9_
FN:320,_RNCNvNtNtNtCs4Tkd3OJeaSh_10vectorizer4auth10middleware5testss_34test_auth_middleware_invalid_token0B9_
FN:505,_RNCNvNtNtNtCs4Tkd3OJeaSh_10vectorizer4auth10middleware5testss_36test_require_role_middleware_no_role0B9_
FN:485,_RNCNvNtNtNtCs4Tkd3OJeaSh_10vectorizer4auth10middleware5testss_37test_require_role_middleware_has_role0B9_
FN:352,_RNCNvNtNtNtCs4Tkd3OJeaSh_10vectorizer4auth10middleware5testss_40test_auth_middleware_api_key_query_param0B9_
FN:373,_RNCNvNtNtNtCs4Tkd3OJeaSh_10vectorizer4auth10middleware5testss_40test_auth_middleware_invalid_auth_header0B9_
FN:423,_RNCNvNtNtNtCs4Tkd3OJeaSh_10vectorizer4auth10middleware5testss_41test_auth_middleware_query_param_multiple0B9_
FN:407,_RNCNvNtNtNtCs4Tkd3OJeaSh_10vectorizer4auth10middleware5testss_41test_auth_middleware_query_param_no_match0B9_
FN:390,_RNCNvNtNtNtCs4Tkd3OJeaSh_10vectorizer4auth10middleware5testss_42test_auth_middleware_malformed_auth_header0B9_
FN:453,_RNCNvNtNtNtCs4Tkd3OJeaSh_10vectorizer4auth10middleware5testss_42test_require_auth_middleware_authenticated0B9_
FN:474,_RNCNvNtNtNtCs4Tkd3OJeaSh_10vectorizer4auth10middleware5testss_44test_require_auth_middleware_unauthenticated0B9_
FN:552,_RNCNvNtNtNtCs4Tkd3OJeaSh_10vectorizer4auth10middleware5testss_48test_require_permission_middleware_no_permission0B9_
FN:525,_RNCNvNtNtNtCs4Tkd3OJeaSh_10vectorizer4auth10middleware5testss_49test_require_permission_middleware_has_permission0B9_
FNDA:0,_RNCNCNvMs2_NtNtCs1YuMAXYbbDa_10vectorizer4auth10middlewareNtB9_27RequirePermissionMiddleware18require_permission00Bd_
FNDA:0,_RNCNvMNtNtCs1YuMAXYbbDa_10vectorizer4auth10middlewareNtB4_14AuthMiddleware12extract_auth0B8_
FNDA:0,_RNCNvMNtNtCs1YuMAXYbbDa_10vectorizer4auth10middlewareNtB4_14AuthMiddleware20authenticate_request0B8_
FNDA:0,_RNCNvMs0_NtNtCs1YuMAXYbbDa_10vectorizer4auth10middlewareNtB7_21RequireAuthMiddleware12require_auth0Bb_
FNDA:0,_RNCNvMs1_NtNtCs1YuMAXYbbDa_10vectorizer4auth10middlewareNtB7_21RequireRoleMiddleware12require_role0Bb_
FNDA:0,_RNCNvMs2_NtNtCs1YuMAXYbbDa_10vectorizer4auth10middlewareNtB7_27RequirePermissionMiddleware18require_permission0Bb_
FNDA:0,_RNCNvMs3_NtNtCs1YuMAXYbbDa_10vectorizer4auth10middlewareNtB7_19RateLimitMiddleware10rate_limit0Bb_
FNDA:0,_RNvMNtNtCs1YuMAXYbbDa_10vectorizer4auth10middlewareNtB2_14AuthMiddleware12extract_auth
FNDA:0,_RNvMNtNtCs1YuMAXYbbDa_10vectorizer4auth10middlewareNtB2_14AuthMiddleware20authenticate_request
FNDA:0,_RNvMNtNtCs1YuMAXYbbDa_10vectorizer4auth10middlewareNtB2_14AuthMiddleware3new
FNDA:0,_RNvMs0_NtNtCs1YuMAXYbbDa_10vectorizer4auth10middlewareNtB5_21RequireAuthMiddleware12require_auth
FNDA:0,_RNvMs1_NtNtCs1YuMAXYbbDa_10vectorizer4auth10middlewareNtB5_21RequireRoleMiddleware12require_role
FNDA:0,_RNvMs2_NtNtCs1YuMAXYbbDa_10vectorizer4auth10middlewareNtB5_27RequirePermissionMiddleware18require_permission
FNDA:0,_RNvMs3_NtNtCs1YuMAXYbbDa_10vectorizer4auth10middlewareNtB5_19RateLimitMiddleware10rate_limit
FNDA:0,_RNvMs4_NtNtCs1YuMAXYbbDa_10vectorizer4auth10middlewareNtB5_17AuthErrorResponse12rate_limited
FNDA:0,_RNvMs4_NtNtCs1YuMAXYbbDa_10vectorizer4auth10middlewareNtB5_17AuthErrorResponse12unauthorized
FNDA:0,_RNvMs4_NtNtCs1YuMAXYbbDa_10vectorizer4auth10middlewareNtB5_17AuthErrorResponse9forbidden
FNDA:0,_RNvXs_NtNtCs1YuMAXYbbDa_10vectorizer4auth10middlewareNtB4_14AuthMiddlewareNtNtCs9Kp62OsN3pY_4core7default7Default7default
FNDA:0,_RNCNCNvMs2_NtNtCs4Tkd3OJeaSh_10vectorizer4auth10middlewareNtB9_27RequirePermissionMiddleware18require_permission00Bd_
FNDA:0,_RNCNvMNtNtCs4Tkd3OJeaSh_10vectorizer4auth10middlewareNtB4_14AuthMiddleware12extract_auth0B8_
FNDA:0,_RNCNvMs0_NtNtCs4Tkd3OJeaSh_10vectorizer4auth10middlewareNtB7_21RequireAuthMiddleware12require_auth0Bb_
FNDA:0,_RNCNvMs1_NtNtCs4Tkd3OJeaSh_10vectorizer4auth10middlewareNtB7_21RequireRoleMiddleware12require_role0Bb_
FNDA:0,_RNCNvMs2_NtNtCs4Tkd3OJeaSh_10vectorizer4auth10middlewareNtB7_27RequirePermissionMiddleware18require_permission0Bb_
FNDA:0,_RNCNvMs3_NtNtCs4Tkd3OJeaSh_10vectorizer4auth10middlewareNtB7_19RateLimitMiddleware10rate_limit0Bb_
FNDA:0,_RNvMNtNtCs4Tkd3OJeaSh_10vectorizer4auth10middlewareNtB2_14AuthMiddleware12extract_auth
FNDA:0,_RNvMs0_NtNtCs4Tkd3OJeaSh_10vectorizer4auth10middlewareNtB5_21RequireAuthMiddleware12require_auth
FNDA:0,_RNvMs1_NtNtCs4Tkd3OJeaSh_10vectorizer4auth10middlewareNtB5_21RequireRoleMiddleware12require_role
FNDA:0,_RNvMs2_NtNtCs4Tkd3OJeaSh_10vectorizer4auth10middlewareNtB5_27RequirePermissionMiddleware18require_permission
FNDA:0,_RNvMs3_NtNtCs4Tkd3OJeaSh_10vectorizer4auth10middlewareNtB5_19RateLimitMiddleware10rate_limit
FNDA:16,_RNCNvMNtNtCs4Tkd3OJeaSh_10vectorizer4auth10middlewareNtB4_14AuthMiddleware20authenticate_request0B8_
FNDA:16,_RNvMNtNtCs4Tkd3OJeaSh_10vectorizer4auth10middlewareNtB2_14AuthMiddleware20authenticate_request
FNDA:1,_RNvMNtNtCs4Tkd3OJeaSh_10vectorizer4auth10middlewareNtB2_14AuthMiddleware3new
FNDA:1,_RNvMs4_NtNtCs4Tkd3OJeaSh_10vectorizer4auth10middlewareNtB5_17AuthErrorResponse12rate_limited
FNDA:1,_RNvMs4_NtNtCs4Tkd3OJeaSh_10vectorizer4auth10middlewareNtB5_17AuthErrorResponse12unauthorized
FNDA:1,_RNvMs4_NtNtCs4Tkd3OJeaSh_10vectorizer4auth10middlewareNtB5_17AuthErrorResponse9forbidden
FNDA:1,_RNvXs_NtNtCs4Tkd3OJeaSh_10vectorizer4auth10middlewareNtB4_14AuthMiddlewareNtNtCs9Kp62OsN3pY_4core7default7Default7default
FNDA:1,_RNvNtNtNtCs4Tkd3OJeaSh_10vectorizer4auth10middleware5testss_24test_auth_middleware_jwt
FNDA:1,_RNvNtNtNtCs4Tkd3OJeaSh_10vectorizer4auth10middleware5testss_25test_auth_error_responses
FNDA:1,_RNvNtNtNtCs4Tkd3OJeaSh_10vectorizer4auth10middleware5testss_26test_rate_limit_middleware
FNDA:1,_RNvNtNtNtCs4Tkd3OJeaSh_10vectorizer4auth10middleware5testss_28test_auth_middleware_api_key
FNDA:1,_RNvNtNtNtCs4Tkd3OJeaSh_10vectorizer4auth10middleware5testss_28test_auth_middleware_default
FNDA:1,_RNvNtNtNtCs4Tkd3OJeaSh_10vectorizer4auth10middleware5testss_28test_auth_middleware_no_auth
FNDA:1,_RNvNtNtNtCs4Tkd3OJeaSh_10vectorizer4auth10middleware5testss_34test_auth_middleware_invalid_token
FNDA:1,_RNvNtNtNtCs4Tkd3OJeaSh_10vectorizer4auth10middleware5testss_36test_require_role_middleware_no_role
FNDA:1,_RNvNtNtNtCs4Tkd3OJeaSh_10vectorizer4auth10middleware5testss_37test_require_role_middleware_has_role
FNDA:1,_RNvNtNtNtCs4Tkd3OJeaSh_10vectorizer4auth10middleware5testss_40test_auth_middleware_api_key_query_param
FNDA:1,_RNvNtNtNtCs4Tkd3OJeaSh_10vectorizer4auth10middleware5testss_40test_auth_middleware_invalid_auth_header
FNDA:1,_RNvNtNtNtCs4Tkd3OJeaSh_10vectorizer4auth10middleware5testss_41test_auth_middleware_query_param_multiple
FNDA:1,_RNvNtNtNtCs4Tkd3OJeaSh_10vectorizer4auth10middleware5testss_41test_auth_middleware_query_param_no_match
FNDA:1,_RNvNtNtNtCs4Tkd3OJeaSh_10vectorizer4auth10middleware5testss_42test_auth_middleware_malformed_auth_header
FNDA:1,_RNvNtNtNtCs4Tkd3OJeaSh_10vectorizer4auth10middleware5testss_42test_require_auth_middleware_authenticated
FNDA:1,_RNvNtNtNtCs4Tkd3OJeaSh_10vectorizer4auth10middleware5testss_44test_require_auth_middleware_unauthenticated
FNDA:1,_RNvNtNtNtCs4Tkd3OJeaSh_10vectorizer4auth10middleware5testss_48test_require_permission_middleware_no_permission
FNDA:1,_RNvNtNtNtCs4Tkd3OJeaSh_10vectorizer4auth10middleware5testss_49test_require_permission_middleware_has_permission
FNDA:1,_RNCNCNvNtNtNtCs4Tkd3OJeaSh_10vectorizer4auth10middleware5testss_48test_require_permission_middleware_no_permission00Bb_
FNDA:1,_RNCNCNvNtNtNtCs4Tkd3OJeaSh_10vectorizer4auth10middleware5testss_49test_require_permission_middleware_has_permission00Bb_
FNDA:1,_RNCNvNtNtNtCs4Tkd3OJeaSh_10vectorizer4auth10middleware5testss_24test_auth_middleware_jwt0B9_
FNDA:1,_RNCNvNtNtNtCs4Tkd3OJeaSh_10vectorizer4auth10middleware5testss_26test_rate_limit_middleware0B9_
FNDA:1,_RNCNvNtNtNtCs4Tkd3OJeaSh_10vectorizer4auth10middleware5testss_28test_auth_middleware_api_key0B9_
FNDA:1,_RNCNvNtNtNtCs4Tkd3OJeaSh_10vectorizer4auth10middleware5testss_28test_auth_middleware_no_auth0B9_
FNDA:1,_RNCNvNtNtNtCs4Tkd3OJeaSh_10vectorizer4auth10middleware5testss_34test_auth_middleware_invalid_token0B9_
FNDA:1,_RNCNvNtNtNtCs4Tkd3OJeaSh_10vectorizer4auth10middleware5testss_36test_require_role_middleware_no_role0B9_
FNDA:1,_RNCNvNtNtNtCs4Tkd3OJeaSh_10vectorizer4auth10middleware5testss_37test_require_role_middleware_has_role0B9_
FNDA:1,_RNCNvNtNtNtCs4Tkd3OJeaSh_10vectorizer4auth10middleware5testss_40test_auth_middleware_api_key_query_param0B9_
FNDA:1,_RNCNvNtNtNtCs4Tkd3OJeaSh_10vectorizer4auth10middleware5testss_40test_auth_middleware_invalid_auth_header0B9_
FNDA:1,_RNCNvNtNtNtCs4Tkd3OJeaSh_10vectorizer4auth10middleware5testss_41test_auth_middleware_query_param_multiple0B9_
FNDA:1,_RNCNvNtNtNtCs4Tkd3OJeaSh_10vectorizer4auth10middleware5testss_41test_auth_middleware_query_param_no_match0B9_
FNDA:1,_RNCNvNtNtNtCs4Tkd3OJeaSh_10vectorizer4auth10middleware5testss_42test_auth_middleware_malformed_auth_header0B9_
FNDA:1,_RNCNvNtNtNtCs4Tkd3OJeaSh_10vectorizer4auth10middleware5testss_42test_require_auth_middleware_authenticated0B9_
FNDA:1,_RNCNvNtNtNtCs4Tkd3OJeaSh_10vectorizer4auth10middleware5testss_44test_require_auth_middleware_unauthenticated0B9_
FNDA:1,_RNCNvNtNtNtCs4Tkd3OJeaSh_10vectorizer4auth10middleware5testss_48test_require_permission_middleware_no_permission0B9_
FNDA:1,_RNCNvNtNtNtCs4Tkd3OJeaSh_10vectorizer4auth10middleware5testss_49test_require_permission_middleware_has_permission0B9_
FNF:54
FNH:43
DA:32,1
DA:33,1
DA:34,1
DA:37,0
DA:38,0
DA:39,0
DA:40,0
DA:41,0
DA:42,0
DA:45,0
DA:46,0
DA:48,0
DA:49,0
DA:52,16
DA:54,16
DA:55,10
DA:57,10
DA:58,8
DA:59,6
DA:60,6
DA:61,6
DA:62,6
DA:63,2
DA:64,2
DA:67,4
DA:68,1
DA:69,1
DA:70,1
DA:71,1
DA:72,3
DA:73,0
DA:74,6
DA:77,9
DA:78,5
DA:79,5
DA:80,3
DA:81,2
DA:82,2
DA:83,2
DA:84,2
DA:85,1
DA:86,2
DA:88,6
DA:91,7
DA:92,7
DA:93,7
DA:94,7
DA:95,7
DA:96,7
DA:97,7
DA:98,7
DA:99,7
DA:100,7
DA:101,16
DA:105,1
DA:106,1
DA:107,1
DA:115,0
DA:116,0
DA:117,0
DA:118,0
DA:119,0
DA:120,0
DA:122,0
DA:123,0
DA:124,0
DA:127,0
DA:128,0
DA:130,0
DA:131,0
DA:139,0
DA:140,0
DA:141,0
DA:142,0
DA:143,0
DA:144,0
DA:145,0
DA:147,0
DA:148,0
DA:149,0
DA:151,0
DA:152,0
DA:153,0
DA:156,0
DA:157,0
DA:159,0
DA:160,0
DA:168,0
DA:169,0
DA:170,0
DA:171,0
DA:172,0
DA:173,0
DA:174,0
DA:176,0
DA:177,0
DA:178,0
DA:180,0
DA:181,0
DA:182,0
DA:183,0
DA:184,0
DA:186,0
DA:187,0
DA:188,0
DA:191,0
DA:192,0
DA:194,0
DA:195,0
DA:203,0
DA:204,0
DA:205,0
DA:206,0
DA:207,0
DA:210,0
DA:211,0
DA:224,1
DA:225,1
DA:226,1
DA:227,1
DA:228,1
DA:229,1
DA:230,1
DA:233,1
DA:234,1
DA:235,1
DA:236,1
DA:237,1
DA:238,1
DA:239,1
DA:242,1
DA:243,1
DA:244,1
DA:245,1
DA:246,1
DA:247,1
DA:248,1
DA:263,1
DA:264,1
DA:265,1
DA:267,1
DA:268,1
DA:269,1
DA:271,1
DA:272,1
DA:273,1
DA:274,1
DA:275,1
DA:277,1
DA:279,1
DA:280,1
DA:281,1
DA:282,1
DA:285,1
DA:286,1
DA:287,1
DA:289,1
DA:290,1
DA:291,1
DA:292,1
DA:294,1
DA:295,1
DA:296,1
DA:297,1
DA:298,1
DA:300,1
DA:302,1
DA:303,1
DA:304,1
DA:307,1
DA:308,1
DA:309,1
DA:311,1
DA:313,1
DA:315,1
DA:316,1
DA:317,1
DA:320,1
DA:321,1
DA:322,1
DA:324,1
DA:325,1
DA:326,1
DA:327,1
DA:328,1
DA:330,1
DA:332,1
DA:333,1
DA:334,1
DA:337,1
DA:338,1
DA:339,1
DA:340,1
DA:342,1
DA:343,1
DA:344,1
DA:346,1
DA:347,1
DA:348,1
DA:349,1
DA:352,1
DA:353,1
DA:354,1
DA:356,1
DA:357,1
DA:358,1
DA:359,1
DA:361,1
DA:362,1
DA:363,1
DA:364,1
DA:366,1
DA:368,1
DA:369,1
DA:370,1
DA:373,1
DA:374,1
DA:375,1
DA:377,1
DA:378,1
DA:379,1
DA:380,1
DA:381,1
DA:383,1
DA:385,1
DA:386,1
DA:387,1
DA:390,1
DA:391,1
DA:392,1
DA:394,1
DA:395,1
DA:396,1
DA:397,1
DA:398,1
DA:400,1
DA:402,1
DA:403,1
DA:404,1
DA:407,1
DA:408,1
DA:409,1
DA:411,1
DA:412,1
DA:413,1
DA:414,1
DA:416,1
DA:418,1
DA:419,1
DA:420,1
DA:423,1
DA:424,1
DA:425,1
DA:427,1
DA:428,1
DA:429,1
DA:430,1
DA:432,1
DA:433,1
DA:434,1
DA:437,1
DA:438,1
DA:440,1
DA:442,1
DA:443,1
DA:444,1
DA:447,1
DA:448,1
DA:449,1
DA:450,1
DA:453,1
DA:454,1
DA:455,1
DA:457,1
DA:458,1
DA:459,1
DA:461,1
DA:462,1
DA:463,1
DA:464,1
DA:465,1
DA:469,1
DA:470,1
DA:471,1
DA:474,1
DA:475,1
DA:476,1
DA:478,1
DA:480,1
DA:481,1
DA:482,1
DA:485,1
DA:486,1
DA:487,1
DA:489,1
DA:490,1
DA:491,1
DA:493,1
DA:494,1
DA:495,1
DA:496,1
DA:497,1
DA:499,1
DA:500,1
DA:501,1
DA:502,1
DA:505,1
DA:506,1
DA:507,1
DA:509,1
DA:510,1
DA:511,1
DA:513,1
DA:514,1
DA:515,1
DA:516,1
DA:517,1
DA:519,1
DA:520,1
DA:521,1
DA:522,1
DA:525,1
DA:526,1
DA:527,1
DA:529,1
DA:530,1
DA:531,1
DA:533,1
DA:534,1
DA:535,1
DA:536,1
DA:537,1
DA:539,1
DA:540,1
DA:543,1
DA:544,1
DA:545,1
DA:546,1
DA:547,1
DA:548,1
DA:549,1
DA:552,1
DA:553,1
DA:554,1
DA:556,1
DA:557,1
DA:558,1
DA:560,1
DA:561,1
DA:562,1
DA:563,1
DA:564,1
DA:566,1
DA:567,1
DA:570,1
DA:571,1
DA:572,1
DA:573,1
DA:574,1
DA:575,1
DA:576,1
DA:579,1
DA:580,1
DA:581,1
DA:583,1
DA:587,1
DA:588,1
DA:589,1
BRF:0
BRH:0
LF:409
LH:333
end_of_record
SF:/mnt/f/Node/hivellm/vectorizer/src/auth/mod.rs
FN:189,_RNCNCNvMs_NtCs1YuMAXYbbDa_10vectorizer4authNtB8_11AuthManager16check_rate_limit00Ba_
FN:227,_RNCNvMs_NtCs1YuMAXYbbDa_10vectorizer4authNtB6_11AuthManager13list_api_keys0B8_
FN:143,_RNCNvMs_NtCs1YuMAXYbbDa_10vectorizer4authNtB6_11AuthManager14create_api_key0B8_
FN:232,_RNCNvMs_NtCs1YuMAXYbbDa_10vectorizer4authNtB6_11AuthManager14revoke_api_key0B8_
FN:180,_RNCNvMs_NtCs1YuMAXYbbDa_10vectorizer4authNtB6_11AuthManager16check_rate_limit0B8_
FN:150,_RNCNvMs_NtCs1YuMAXYbbDa_10vectorizer4authNtB6_11AuthManager16validate_api_key0B8_
FN:132,_RNvMs_NtCs1YuMAXYbbDa_10vectorizer4authNtB4_11AuthManager11new_default
FN:170,_RNvMs_NtCs1YuMAXYbbDa_10vectorizer4authNtB4_11AuthManager12generate_jwt
FN:175,_RNvMs_NtCs1YuMAXYbbDa_10vectorizer4authNtB4_11AuthManager12validate_jwt
FN:227,_RNvMs_NtCs1YuMAXYbbDa_10vectorizer4authNtB4_11AuthManager13list_api_keys
FN:137,_RNvMs_NtCs1YuMAXYbbDa_10vectorizer4authNtB4_11AuthManager14create_api_key
FN:232,_RNvMs_NtCs1YuMAXYbbDa_10vectorizer4authNtB4_11AuthManager14revoke_api_key
FN:180,_RNvMs_NtCs1YuMAXYbbDa_10vectorizer4authNtB4_11AuthManager16check_rate_limit
FN:150,_RNvMs_NtCs1YuMAXYbbDa_10vectorizer4authNtB4_11AuthManager16validate_api_key
FN:119,_RNvMs_NtCs1YuMAXYbbDa_10vectorizer4authNtB4_11AuthManager3new
FN:237,_RNvMs_NtCs1YuMAXYbbDa_10vectorizer4authNtB4_11AuthManager6config
FN:41,_RNvXNtCs1YuMAXYbbDa_10vectorizer4authNtB2_10AuthConfigNtNtCs9Kp62OsN3pY_4core7default7Default7default
FN:132,_RNvMs_NtCs4Tkd3OJeaSh_10vectorizer4authNtB4_11AuthManager11new_default
FN:170,_RNvMs_NtCs4Tkd3OJeaSh_10vectorizer4authNtB4_11AuthManager12generate_jwt
FN:175,_RNvMs_NtCs4Tkd3OJeaSh_10vectorizer4authNtB4_11AuthManager12validate_jwt
FN:227,_RNvMs_NtCs4Tkd3OJeaSh_10vectorizer4authNtB4_11AuthManager13list_api_keys
FN:137,_RNvMs_NtCs4Tkd3OJeaSh_10vectorizer4authNtB4_11AuthManager14create_api_key
FN:232,_RNvMs_NtCs4Tkd3OJeaSh_10vectorizer4authNtB4_11AuthManager14revoke_api_key
FN:180,_RNvMs_NtCs4Tkd3OJeaSh_10vectorizer4authNtB4_11AuthManager16check_rate_limit
FN:150,_RNvMs_NtCs4Tkd3OJeaSh_10vectorizer4authNtB4_11AuthManager16validate_api_key
FN:119,_RNvMs_NtCs4Tkd3OJeaSh_10vectorizer4authNtB4_11AuthManager3new
FN:237,_RNvMs_NtCs4Tkd3OJeaSh_10vectorizer4authNtB4_11AuthManager6config
FN:41,_RNvXNtCs4Tkd3OJeaSh_10vectorizer4authNtB2_10AuthConfigNtNtCs9Kp62OsN3pY_4core7default7Default7default
FN:189,_RNCNCNvMs_NtCs4Tkd3OJeaSh_10vectorizer4authNtB8_11AuthManager16check_rate_limit00Ba_
FN:227,_RNCNvMs_NtCs4Tkd3OJeaSh_10vectorizer4authNtB6_11AuthManager13list_api_keys0B8_
FN:143,_RNCNvMs_NtCs4Tkd3OJeaSh_10vectorizer4authNtB6_11AuthManager14create_api_key0B8_
FN:232,_RNCNvMs_NtCs4Tkd3OJeaSh_10vectorizer4authNtB6_11AuthManager14revoke_api_key0B8_
FN:180,_RNCNvMs_NtCs4Tkd3OJeaSh_10vectorizer4authNtB6_11AuthManager16check_rate_limit0B8_
FN:150,_RNCNvMs_NtCs4Tkd3OJeaSh_10vectorizer4authNtB6_11AuthManager16validate_api_key0B8_
FN:289,_RNCNvNtNtCs4Tkd3OJeaSh_10vectorizer4auth5testss_18test_rate_limiting0B7_
FN:247,_RNCNvNtNtCs4Tkd3OJeaSh_10vectorizer4auth5testss_26test_auth_manager_creation0B7_
FN:274,_RNCNvNtNtCs4Tkd3OJeaSh_10vectorizer4auth5testss_34test_jwt_generation_and_validation0B7_
FN:256,_RNCNvNtNtCs4Tkd3OJeaSh_10vectorizer4auth5testss_36test_api_key_creation_and_validation0B7_
FN:289,_RNvNtNtCs4Tkd3OJeaSh_10vectorizer4auth5testss_18test_rate_limiting
FN:247,_RNvNtNtCs4Tkd3OJeaSh_10vectorizer4auth5testss_26test_auth_manager_creation
FN:274,_RNvNtNtCs4Tkd3OJeaSh_10vectorizer4auth5testss_34test_jwt_generation_and_validation
FN:256,_RNvNtNtCs4Tkd3OJeaSh_10vectorizer4auth5testss_36test_api_key_creation_and_validation
FNDA:0,_RNCNCNvMs_NtCs1YuMAXYbbDa_10vectorizer4authNtB8_11AuthManager16check_rate_limit00Ba_
FNDA:0,_RNCNvMs_NtCs1YuMAXYbbDa_10vectorizer4authNtB6_11AuthManager13list_api_keys0B8_
FNDA:0,_RNCNvMs_NtCs1YuMAXYbbDa_10vectorizer4authNtB6_11AuthManager14create_api_key0B8_
FNDA:0,_RNCNvMs_NtCs1YuMAXYbbDa_10vectorizer4authNtB6_11AuthManager14revoke_api_key0B8_
FNDA:0,_RNCNvMs_NtCs1YuMAXYbbDa_10vectorizer4authNtB6_11AuthManager16check_rate_limit0B8_
FNDA:0,_RNCNvMs_NtCs1YuMAXYbbDa_10vectorizer4authNtB6_11AuthManager16validate_api_key0B8_
FNDA:0,_RNvMs_NtCs1YuMAXYbbDa_10vectorizer4authNtB4_11AuthManager11new_default
FNDA:0,_RNvMs_NtCs1YuMAXYbbDa_10vectorizer4authNtB4_11AuthManager12generate_jwt
FNDA:0,_RNvMs_NtCs1YuMAXYbbDa_10vectorizer4authNtB4_11AuthManager12validate_jwt
FNDA:0,_RNvMs_NtCs1YuMAXYbbDa_10vectorizer4authNtB4_11AuthManager13list_api_keys
FNDA:0,_RNvMs_NtCs1YuMAXYbbDa_10vectorizer4authNtB4_11AuthManager14create_api_key
FNDA:0,_RNvMs_NtCs1YuMAXYbbDa_10vectorizer4authNtB4_11AuthManager14revoke_api_key
FNDA:0,_RNvMs_NtCs1YuMAXYbbDa_10vectorizer4authNtB4_11AuthManager16check_rate_limit
FNDA:0,_RNvMs_NtCs1YuMAXYbbDa_10vectorizer4authNtB4_11AuthManager16validate_api_key
FNDA:0,_RNvMs_NtCs1YuMAXYbbDa_10vectorizer4authNtB4_11AuthManager3new
FNDA:0,_RNvMs_NtCs1YuMAXYbbDa_10vectorizer4authNtB4_11AuthManager6config
FNDA:0,_RNvXNtCs1YuMAXYbbDa_10vectorizer4authNtB2_10AuthConfigNtNtCs9Kp62OsN3pY_4core7default7Default7default
FNDA:0,_RNvMs_NtCs4Tkd3OJeaSh_10vectorizer4authNtB4_11AuthManager11new_default
FNDA:7,_RNvMs_NtCs4Tkd3OJeaSh_10vectorizer4authNtB4_11AuthManager12generate_jwt
FNDA:9,_RNvMs_NtCs4Tkd3OJeaSh_10vectorizer4authNtB4_11AuthManager12validate_jwt
FNDA:0,_RNvMs_NtCs4Tkd3OJeaSh_10vectorizer4authNtB4_11AuthManager13list_api_keys
FNDA:5,_RNvMs_NtCs4Tkd3OJeaSh_10vectorizer4authNtB4_11AuthManager14create_api_key
FNDA:0,_RNvMs_NtCs4Tkd3OJeaSh_10vectorizer4authNtB4_11AuthManager14revoke_api_key
FNDA:7,_RNvMs_NtCs4Tkd3OJeaSh_10vectorizer4authNtB4_11AuthManager16check_rate_limit
FNDA:11,_RNvMs_NtCs4Tkd3OJeaSh_10vectorizer4authNtB4_11AuthManager16validate_api_key
FNDA:20,_RNvMs_NtCs4Tkd3OJeaSh_10vectorizer4authNtB4_11AuthManager3new
FNDA:2,_RNvMs_NtCs4Tkd3OJeaSh_10vectorizer4authNtB4_11AuthManager6config
FNDA:21,_RNvXNtCs4Tkd3OJeaSh_10vectorizer4authNtB2_10AuthConfigNtNtCs9Kp62OsN3pY_4core7default7Default7default
FNDA:5,_RNCNCNvMs_NtCs4Tkd3OJeaSh_10vectorizer4authNtB8_11AuthManager16check_rate_limit00Ba_
FNDA:0,_RNCNvMs_NtCs4Tkd3OJeaSh_10vectorizer4authNtB6_11AuthManager13list_api_keys0B8_
FNDA:5,_RNCNvMs_NtCs4Tkd3OJeaSh_10vectorizer4authNtB6_11AuthManager14create_api_key0B8_
FNDA:0,_RNCNvMs_NtCs4Tkd3OJeaSh_10vectorizer4authNtB6_11AuthManager14revoke_api_key0B8_
FNDA:7,_RNCNvMs_NtCs4Tkd3OJeaSh_10vectorizer4authNtB6_11AuthManager16check_rate_limit0B8_
FNDA:11,_RNCNvMs_NtCs4Tkd3OJeaSh_10vectorizer4authNtB6_11AuthManager16validate_api_key0B8_
FNDA:1,_RNCNvNtNtCs4Tkd3OJeaSh_10vectorizer4auth5testss_18test_rate_limiting0B7_
FNDA:1,_RNCNvNtNtCs4Tkd3OJeaSh_10vectorizer4auth5testss_26test_auth_manager_creation0B7_
FNDA:1,_RNCNvNtNtCs4Tkd3OJeaSh_10vectorizer4auth5testss_34test_jwt_generation_and_validation0B7_
FNDA:1,_RNCNvNtNtCs4Tkd3OJeaSh_10vectorizer4auth5testss_36test_api_key_creation_and_validation0B7_
FNDA:1,_RNvNtNtCs4Tkd3OJeaSh_10vectorizer4auth5testss_18test_rate_limiting
FNDA:1,_RNvNtNtCs4Tkd3OJeaSh_10vectorizer4auth5testss_26test_auth_manager_creation
FNDA:1,_RNvNtNtCs4Tkd3OJeaSh_10vectorizer4auth5testss_34test_jwt_generation_and_validation
FNDA:1,_RNvNtNtCs4Tkd3OJeaSh_10vectorizer4auth5testss_36test_api_key_creation_and_validation
FNF:25
FNH:20
DA:41,21
DA:42,21
DA:43,21
DA:44,21
DA:45,21
DA:46,21
DA:47,21
DA:48,21
DA:49,21
DA:50,21
DA:119,20
DA:120,20
DA:121,20
DA:123,20
DA:124,20
DA:125,20
DA:126,20
DA:127,20
DA:128,20
DA:129,20
DA:132,0
DA:133,0
DA:134,0
DA:137,5
DA:138,5
DA:139,5
DA:140,5
DA:141,5
DA:142,5
DA:143,5
DA:144,5
DA:145,5
DA:146,5
DA:147,5
DA:150,11
DA:151,11
DA:154,7
DA:157,6
DA:160,6
DA:161,6
DA:162,6
DA:163,6
DA:164,6
DA:165,6
DA:166,6
DA:167,11
DA:170,7
DA:171,7
DA:172,7
DA:175,9
DA:176,9
DA:177,9
DA:180,7
DA:181,7
DA:182,7
DA:184,7
DA:185,7
DA:186,7
DA:189,5
DA:190,5
DA:191,5
DA:194,7
DA:195,0
DA:196,0
DA:197,7
DA:199,7
DA:200,0
DA:201,0
DA:202,7
DA:205,7
DA:206,1
DA:207,1
DA:208,1
DA:209,1
DA:210,6
DA:212,6
DA:213,0
DA:214,0
DA:215,0
DA:216,0
DA:217,6
DA:220,6
DA:221,6
DA:223,6
DA:224,7
DA:227,0
DA:228,0
DA:229,0
DA:232,0
DA:233,0
DA:234,0
DA:237,2
DA:238,2
DA:239,2
DA:247,1
DA:248,1
DA:249,1
DA:251,1
DA:252,1
DA:253,1
DA:256,1
DA:257,1
DA:258,1
DA:260,1
DA:261,1
DA:262,1
DA:263,1
DA:265,1
DA:266,1
DA:267,1
DA:269,1
DA:270,1
DA:271,1
DA:274,1
DA:275,1
DA:276,1
DA:278,1
DA:279,1
DA:280,1
DA:282,1
DA:283,1
DA:284,1
DA:285,1
DA:286,1
DA:289,1
DA:290,1
DA:291,1
DA:293,1
DA:295,1
DA:296,1
DA:297,1
DA:298,1
DA:301,1
DA:302,1
DA:305,1
DA:306,1
DA:307,1
DA:308,1
DA:309,1
DA:310,1
DA:311,1
BRF:0
BRH:0
LF:155
LH:136
end_of_record
SF:/mnt/f/Node/hivellm/vectorizer/src/auth/roles.rs
FN:26,_RNvMNtNtCs1YuMAXYbbDa_10vectorizer4auth5rolesNtB2_4Role11permissions
FN:55,_RNvMNtNtCs1YuMAXYbbDa_10vectorizer4auth5rolesNtB2_4Role14has_permission
FN:71,_RNvMNtNtCs1YuMAXYbbDa_10vectorizer4auth5rolesNtB2_4Role15can_manage_role
FN:60,_RNvMNtNtCs1YuMAXYbbDa_10vectorizer4auth5rolesNtB2_4Role15hierarchy_level
FN:158,_RNvMs0_NtNtCs1YuMAXYbbDa_10vectorizer4auth5rolesNtB5_13AccessContext13with_resource
FN:164,_RNvMs0_NtNtCs1YuMAXYbbDa_10vectorizer4auth5rolesNtB5_13AccessContext14has_permission
FN:181,_RNvMs0_NtNtCs1YuMAXYbbDa_10vectorizer4auth5rolesNtB5_13AccessContext15all_permissions
FN:152,_RNvMs0_NtNtCs1YuMAXYbbDa_10vectorizer4auth5rolesNtB5_13AccessContext15with_collection
FN:171,_RNvMs0_NtNtCs1YuMAXYbbDa_10vectorizer4auth5rolesNtB5_13AccessContext18has_any_permission
FN:176,_RNvMs0_NtNtCs1YuMAXYbbDa_10vectorizer4auth5rolesNtB5_13AccessContext19has_all_permissions
FN:142,_RNvMs0_NtNtCs1YuMAXYbbDa_10vectorizer4auth5rolesNtB5_13AccessContext3new
FN:192,_RNvMs0_NtNtCs1YuMAXYbbDa_10vectorizer4auth5rolesNtB5_13AccessContext8is_admin
FN:197,_RNvMs0_NtNtCs1YuMAXYbbDa_10vectorizer4auth5rolesNtB5_13AccessContext9can_admin
FN:243,_RNvMs1_NtNtCs1YuMAXYbbDa_10vectorizer4auth5rolesNtB5_17PermissionChecker13can_view_logs
FN:223,_RNvMs1_NtNtCs1YuMAXYbbDa_10vectorizer4auth5rolesNtB5_17PermissionChecker16can_read_vectors
FN:248,_RNvMs1_NtNtCs1YuMAXYbbDa_10vectorizer4auth5rolesNtB5_17PermissionChecker17can_modify_config
FN:228,_RNvMs1_NtNtCs1YuMAXYbbDa_10vectorizer4auth5rolesNtB5_17PermissionChecker17can_write_vectors
FN:233,_RNvMs1_NtNtCs1YuMAXYbbDa_10vectorizer4auth5rolesNtB5_17PermissionChecker18can_delete_vectors
FN:238,_RNvMs1_NtNtCs1YuMAXYbbDa_10vectorizer4auth5rolesNtB5_17PermissionChecker19can_manage_api_keys
FN:208,_RNvMs1_NtNtCs1YuMAXYbbDa_10vectorizer4auth5rolesNtB5_17PermissionChecker21can_access_collection
FN:213,_RNvMs1_NtNtCs1YuMAXYbbDa_10vectorizer4auth5rolesNtB5_17PermissionChecker21can_create_collection
FN:218,_RNvMs1_NtNtCs1YuMAXYbbDa_10vectorizer4auth5rolesNtB5_17PermissionChecker21can_delete_collection
FN:101,_RNvMs_NtNtCs1YuMAXYbbDa_10vectorizer4auth5rolesNtB4_10Permission11description
FN:116,_RNvMs_NtNtCs1YuMAXYbbDa_10vectorizer4auth5rolesNtB4_10Permission13resource_type
FN:167,_RNCNvMs0_NtNtCs1YuMAXYbbDa_10vectorizer4auth5rolesNtB7_13AccessContext14has_permission0Bb_
FN:172,_RNCNvMs0_NtNtCs1YuMAXYbbDa_10vectorizer4auth5rolesNtB7_13AccessContext18has_any_permission0Bb_
FN:177,_RNCNvMs0_NtNtCs1YuMAXYbbDa_10vectorizer4auth5rolesNtB7_13AccessContext19has_all_permissions0Bb_
FN:172,_RNCNvMs0_NtNtCs4Tkd3OJeaSh_10vectorizer4auth5rolesNtB7_13AccessContext18has_any_permission0Bb_
FN:177,_RNCNvMs0_NtNtCs4Tkd3OJeaSh_10vectorizer4auth5rolesNtB7_13AccessContext19has_all_permissions0Bb_
FN:158,_RNvMs0_NtNtCs4Tkd3OJeaSh_10vectorizer4auth5rolesNtB5_13AccessContext13with_resource
FN:171,_RNvMs0_NtNtCs4Tkd3OJeaSh_10vectorizer4auth5rolesNtB5_13AccessContext18has_any_permission
FN:176,_RNvMs0_NtNtCs4Tkd3OJeaSh_10vectorizer4auth5rolesNtB5_13AccessContext19has_all_permissions
FN:243,_RNvMs1_NtNtCs4Tkd3OJeaSh_10vectorizer4auth5rolesNtB5_17PermissionChecker13can_view_logs
FN:248,_RNvMs1_NtNtCs4Tkd3OJeaSh_10vectorizer4auth5rolesNtB5_17PermissionChecker17can_modify_config
FN:233,_RNvMs1_NtNtCs4Tkd3OJeaSh_10vectorizer4auth5rolesNtB5_17PermissionChecker18can_delete_vectors
FN:208,_RNvMs1_NtNtCs4Tkd3OJeaSh_10vectorizer4auth5rolesNtB5_17PermissionChecker21can_access_collection
FN:167,_RNCNvMs0_NtNtCs4Tkd3OJeaSh_10vectorizer4auth5rolesNtB7_13AccessContext14has_permission0Bb_
FN:306,_RNvNtNtNtCs4Tkd3OJeaSh_10vectorizer4auth5roles5testss_19test_access_context
FN:276,_RNvNtNtNtCs4Tkd3OJeaSh_10vectorizer4auth5roles5testss_19test_role_hierarchy
FN:349,_RNvNtNtNtCs4Tkd3OJeaSh_10vectorizer4auth5roles5testss_20test_all_permissions
FN:258,_RNvNtNtNtCs4Tkd3OJeaSh_10vectorizer4auth5roles5testss_21test_role_permissions
FN:325,_RNvNtNtNtCs4Tkd3OJeaSh_10vectorizer4auth5roles5testss_23test_permission_checker
FN:285,_RNvNtNtNtCs4Tkd3OJeaSh_10vectorizer4auth5roles5testss_28test_permission_descriptions
FN:298,_RNvNtNtNtCs4Tkd3OJeaSh_10vectorizer4auth5roles5testss_30test_permission_resource_types
FN:317,_RNvNtNtNtCs4Tkd3OJeaSh_10vectorizer4auth5roles5testss_35test_access_context_with_collection
FN:26,_RNvMNtNtCs4Tkd3OJeaSh_10vectorizer4auth5rolesNtB2_4Role11permissions
FN:55,_RNvMNtNtCs4Tkd3OJeaSh_10vectorizer4auth5rolesNtB2_4Role14has_permission
FN:71,_RNvMNtNtCs4Tkd3OJeaSh_10vectorizer4auth5rolesNtB2_4Role15can_manage_role
FN:60,_RNvMNtNtCs4Tkd3OJeaSh_10vectorizer4auth5rolesNtB2_4Role15hierarchy_level
FN:164,_RNvMs0_NtNtCs4Tkd3OJeaSh_10vectorizer4auth5rolesNtB5_13AccessContext14has_permission
FN:181,_RNvMs0_NtNtCs4Tkd3OJeaSh_10vectorizer4auth5rolesNtB5_13AccessContext15all_permissions
FN:152,_RNvMs0_NtNtCs4Tkd3OJeaSh_10vectorizer4auth5rolesNtB5_13AccessContext15with_collection
FN:142,_RNvMs0_NtNtCs4Tkd3OJeaSh_10vectorizer4auth5rolesNtB5_13AccessContext3new
FN:192,_RNvMs0_NtNtCs4Tkd3OJeaSh_10vectorizer4auth5rolesNtB5_13AccessContext8is_admin
FN:197,_RNvMs0_NtNtCs4Tkd3OJeaSh_10vectorizer4auth5rolesNtB5_13AccessContext9can_admin
FN:223,_RNvMs1_NtNtCs4Tkd3OJeaSh_10vectorizer4auth5rolesNtB5_17PermissionChecker16can_read_vectors
FN:228,_RNvMs1_NtNtCs4Tkd3OJeaSh_10vectorizer4auth5rolesNtB5_17PermissionChecker17can_write_vectors
FN:238,_RNvMs1_NtNtCs4Tkd3OJeaSh_10vectorizer4auth5rolesNtB5_17PermissionChecker19can_manage_api_keys
FN:213,_RNvMs1_NtNtCs4Tkd3OJeaSh_10vectorizer4auth5rolesNtB5_17PermissionChecker21can_create_collection
FN:218,_RNvMs1_NtNtCs4Tkd3OJeaSh_10vectorizer4auth5rolesNtB5_17PermissionChecker21can_delete_collection
FN:101,_RNvMs_NtNtCs4Tkd3OJeaSh_10vectorizer4auth5rolesNtB4_10Permission11description
FN:116,_RNvMs_NtNtCs4Tkd3OJeaSh_10vectorizer4auth5rolesNtB4_10Permission13resource_type
FNDA:0,_RNvMNtNtCs1YuMAXYbbDa_10vectorizer4auth5rolesNtB2_4Role11permissions
FNDA:0,_RNvMNtNtCs1YuMAXYbbDa_10vectorizer4auth5rolesNtB2_4Role14has_permission
FNDA:0,_RNvMNtNtCs1YuMAXYbbDa_10vectorizer4auth5rolesNtB2_4Role15can_manage_role
FNDA:0,_RNvMNtNtCs1YuMAXYbbDa_10vectorizer4auth5rolesNtB2_4Role15hierarchy_level
FNDA:0,_RNvMs0_NtNtCs1YuMAXYbbDa_10vectorizer4auth5rolesNtB5_13AccessContext13with_resource
FNDA:0,_RNvMs0_NtNtCs1YuMAXYbbDa_10vectorizer4auth5rolesNtB5_13AccessContext14has_permission
FNDA:0,_RNvMs0_NtNtCs1YuMAXYbbDa_10vectorizer4auth5rolesNtB5_13AccessContext15all_permissions
FNDA:0,_RNvMs0_NtNtCs1YuMAXYbbDa_10vectorizer4auth5rolesNtB5_13AccessContext15with_collection
FNDA:0,_RNvMs0_NtNtCs1YuMAXYbbDa_10vectorizer4auth5rolesNtB5_13AccessContext18has_any_permission
FNDA:0,_RNvMs0_NtNtCs1YuMAXYbbDa_10vectorizer4auth5rolesNtB5_13AccessContext19has_all_permissions
FNDA:0,_RNvMs0_NtNtCs1YuMAXYbbDa_10vectorizer4auth5rolesNtB5_13AccessContext3new
FNDA:0,_RNvMs0_NtNtCs1YuMAXYbbDa_10vectorizer4auth5rolesNtB5_13AccessContext8is_admin
FNDA:0,_RNvMs0_NtNtCs1YuMAXYbbDa_10vectorizer4auth5rolesNtB5_13AccessContext9can_admin
FNDA:0,_RNvMs1_NtNtCs1YuMAXYbbDa_10vectorizer4auth5rolesNtB5_17PermissionChecker13can_view_logs
FNDA:0,_RNvMs1_NtNtCs1YuMAXYbbDa_10vectorizer4auth5rolesNtB5_17PermissionChecker16can_read_vectors
FNDA:0,_RNvMs1_NtNtCs1YuMAXYbbDa_10vectorizer4auth5rolesNtB5_17PermissionChecker17can_modify_config
FNDA:0,_RNvMs1_NtNtCs1YuMAXYbbDa_10vectorizer4auth5rolesNtB5_17PermissionChecker17can_write_vectors
FNDA:0,_RNvMs1_NtNtCs1YuMAXYbbDa_10vectorizer4auth5rolesNtB5_17PermissionChecker18can_delete_vectors
FNDA:0,_RNvMs1_NtNtCs1YuMAXYbbDa_10vectorizer4auth5rolesNtB5_17PermissionChecker19can_manage_api_keys
FNDA:0,_RNvMs1_NtNtCs1YuMAXYbbDa_10vectorizer4auth5rolesNtB5_17PermissionChecker21can_access_collection
FNDA:0,_RNvMs1_NtNtCs1YuMAXYbbDa_10vectorizer4auth5rolesNtB5_17PermissionChecker21can_create_collection
FNDA:0,_RNvMs1_NtNtCs1YuMAXYbbDa_10vectorizer4auth5rolesNtB5_17PermissionChecker21can_delete_collection
FNDA:0,_RNvMs_NtNtCs1YuMAXYbbDa_10vectorizer4auth5rolesNtB4_10Permission11description
FNDA:0,_RNvMs_NtNtCs1YuMAXYbbDa_10vectorizer4auth5rolesNtB4_10Permission13resource_type
FNDA:0,_RNCNvMs0_NtNtCs1YuMAXYbbDa_10vectorizer4auth5rolesNtB7_13AccessContext14has_permission0Bb_
FNDA:0,_RNCNvMs0_NtNtCs1YuMAXYbbDa_10vectorizer4auth5rolesNtB7_13AccessContext18has_any_permission0Bb_
FNDA:0,_RNCNvMs0_NtNtCs1YuMAXYbbDa_10vectorizer4auth5rolesNtB7_13AccessContext19has_all_permissions0Bb_
FNDA:0,_RNCNvMs0_NtNtCs4Tkd3OJeaSh_10vectorizer4auth5rolesNtB7_13AccessContext18has_any_permission0Bb_
FNDA:0,_RNCNvMs0_NtNtCs4Tkd3OJeaSh_10vectorizer4auth5rolesNtB7_13AccessContext19has_all_permissions0Bb_
FNDA:0,_RNvMs0_NtNtCs4Tkd3OJeaSh_10vectorizer4auth5rolesNtB5_13AccessContext13with_resource
FNDA:0,_RNvMs0_NtNtCs4Tkd3OJeaSh_10vectorizer4auth5rolesNtB5_13AccessContext18has_any_permission
FNDA:0,_RNvMs0_NtNtCs4Tkd3OJeaSh_10vectorizer4auth5rolesNtB5_13AccessContext19has_all_permissions
FNDA:0,_RNvMs1_NtNtCs4Tkd3OJeaSh_10vectorizer4auth5rolesNtB5_17PermissionChecker13can_view_logs
FNDA:0,_RNvMs1_NtNtCs4Tkd3OJeaSh_10vectorizer4auth5rolesNtB5_17PermissionChecker17can_modify_config
FNDA:0,_RNvMs1_NtNtCs4Tkd3OJeaSh_10vectorizer4auth5rolesNtB5_17PermissionChecker18can_delete_vectors
FNDA:0,_RNvMs1_NtNtCs4Tkd3OJeaSh_10vectorizer4auth5rolesNtB5_17PermissionChecker21can_access_collection
FNDA:15,_RNCNvMs0_NtNtCs4Tkd3OJeaSh_10vectorizer4auth5rolesNtB7_13AccessContext14has_permission0Bb_
FNDA:1,_RNvNtNtNtCs4Tkd3OJeaSh_10vectorizer4auth5roles5testss_19test_access_context
FNDA:1,_RNvNtNtNtCs4Tkd3OJeaSh_10vectorizer4auth5roles5testss_19test_role_hierarchy
FNDA:1,_RNvNtNtNtCs4Tkd3OJeaSh_10vectorizer4auth5roles5testss_20test_all_permissions
FNDA:1,_RNvNtNtNtCs4Tkd3OJeaSh_10vectorizer4auth5roles5testss_21test_role_permissions
FNDA:1,_RNvNtNtNtCs4Tkd3OJeaSh_10vectorizer4auth5roles5testss_23test_permission_checker
FNDA:1,_RNvNtNtNtCs4Tkd3OJeaSh_10vectorizer4auth5roles5testss_28test_permission_descriptions
FNDA:1,_RNvNtNtNtCs4Tkd3OJeaSh_10vectorizer4auth5roles5testss_30test_permission_resource_types
FNDA:1,_RNvNtNtNtCs4Tkd3OJeaSh_10vectorizer4auth5roles5testss_35test_access_context_with_collection
FNDA:22,_RNvMNtNtCs4Tkd3OJeaSh_10vectorizer4auth5rolesNtB2_4Role11permissions
FNDA:17,_RNvMNtNtCs4Tkd3OJeaSh_10vectorizer4auth5rolesNtB2_4Role14has_permission
FNDA:5,_RNvMNtNtCs4Tkd3OJeaSh_10vectorizer4auth5rolesNtB2_4Role15can_manage_role
FNDA:10,_RNvMNtNtCs4Tkd3OJeaSh_10vectorizer4auth5rolesNtB2_4Role15hierarchy_level
FNDA:15,_RNvMs0_NtNtCs4Tkd3OJeaSh_10vectorizer4auth5rolesNtB5_13AccessContext14has_permission
FNDA:1,_RNvMs0_NtNtCs4Tkd3OJeaSh_10vectorizer4auth5rolesNtB5_13AccessContext15all_permissions
FNDA:1,_RNvMs0_NtNtCs4Tkd3OJeaSh_10vectorizer4auth5rolesNtB5_13AccessContext15with_collection
FNDA:6,_RNvMs0_NtNtCs4Tkd3OJeaSh_10vectorizer4auth5rolesNtB5_13AccessContext3new
FNDA:2,_RNvMs0_NtNtCs4Tkd3OJeaSh_10vectorizer4auth5rolesNtB5_13AccessContext8is_admin
FNDA:1,_RNvMs0_NtNtCs4Tkd3OJeaSh_10vectorizer4auth5rolesNtB5_13AccessContext9can_admin
FNDA:2,_RNvMs1_NtNtCs4Tkd3OJeaSh_10vectorizer4auth5rolesNtB5_17PermissionChecker16can_read_vectors
FNDA:2,_RNvMs1_NtNtCs4Tkd3OJeaSh_10vectorizer4auth5rolesNtB5_17PermissionChecker17can_write_vectors
FNDA:2,_RNvMs1_NtNtCs4Tkd3OJeaSh_10vectorizer4auth5rolesNtB5_17PermissionChecker19can_manage_api_keys
FNDA:3,_RNvMs1_NtNtCs4Tkd3OJeaSh_10vectorizer4auth5rolesNtB5_17PermissionChecker21can_create_collection
FNDA:2,_RNvMs1_NtNtCs4Tkd3OJeaSh_10vectorizer4auth5rolesNtB5_17PermissionChecker21can_delete_collection
FNDA:3,_RNvMs_NtNtCs4Tkd3OJeaSh_10vectorizer4auth5rolesNtB4_10Permission11description
FNDA:4,_RNvMs_NtNtCs4Tkd3OJeaSh_10vectorizer4auth5rolesNtB4_10Permission13resource_type
FNF:35
FNH:26
DA:26,22
DA:27,22
DA:28,5
DA:29,5
DA:30,5
DA:31,5
DA:32,5
DA:33,5
DA:34,5
DA:35,5
DA:36,5
DA:37,5
DA:39,11
DA:40,11
DA:41,11
DA:42,11
DA:44,0
DA:45,6
DA:46,0
DA:47,0
DA:48,0
DA:49,0
DA:52,22
DA:55,17
DA:56,17
DA:57,17
DA:60,10
DA:61,10
DA:62,3
DA:63,4
DA:64,0
DA:65,0
DA:66,3
DA:68,10
DA:71,5
DA:72,5
DA:73,5
DA:101,3
DA:102,3
DA:103,1
DA:104,1
DA:105,0
DA:106,0
DA:107,0
DA:108,1
DA:109,0
DA:110,0
DA:111,0
DA:113,3
DA:116,4
DA:117,4
DA:118,1
DA:119,1
DA:120,1
DA:121,0
DA:122,1
DA:124,4
DA:142,6
DA:143,6
DA:144,6
DA:145,6
DA:146,6
DA:147,6
DA:148,6
DA:149,6
DA:152,1
DA:153,1
DA:154,1
DA:155,1
DA:158,0
DA:159,0
DA:160,0
DA:161,0
DA:164,15
DA:165,15
DA:166,15
DA:167,15
DA:168,15
DA:171,0
DA:172,0
DA:173,0
DA:176,0
DA:177,0
DA:178,0
DA:181,1
DA:182,1
DA:183,3
DA:184,4
DA:185,4
DA:186,4
DA:188,1
DA:189,1
DA:192,2
DA:193,2
DA:194,2
DA:197,1
DA:198,1
DA:199,1
DA:208,0
DA:209,0
DA:210,0
DA:213,3
DA:214,3
DA:215,3
DA:218,2
DA:219,2
DA:220,2
DA:223,2
DA:224,2
DA:225,2
DA:228,2
DA:229,2
DA:230,2
DA:233,0
DA:234,0
DA:235,0
DA:238,2
DA:239,2
DA:240,2
DA:243,0
DA:244,0
DA:245,0
DA:248,0
DA:249,0
DA:250,0
DA:258,1
DA:259,1
DA:260,1
DA:261,1
DA:262,1
DA:263,1
DA:265,1
DA:266,1
DA:267,1
DA:268,1
DA:270,1
DA:271,1
DA:272,1
DA:273,1
DA:276,1
DA:277,1
DA:278,1
DA:279,1
DA:280,1
DA:281,1
DA:282,1
DA:285,1
DA:286,1
DA:287,1
DA:290,1
DA:291,1
DA:292,1
DA:295,1
DA:298,1
DA:299,1
DA:300,1
DA:301,1
DA:302,1
DA:303,1
DA:306,1
DA:307,1
DA:309,1
DA:310,1
DA:311,1
DA:312,1
DA:313,1
DA:314,1
DA:317,1
DA:318,1
DA:319,1
DA:321,1
DA:322,1
DA:325,1
DA:326,1
DA:327,1
DA:328,1
DA:331,1
DA:332,1
DA:333,1
DA:336,1
DA:337,1
DA:338,1
DA:339,1
DA:340,1
DA:343,1
DA:344,1
DA:345,1
DA:346,1
DA:349,1
DA:350,1
DA:351,1
DA:353,1
DA:354,1
DA:355,1
DA:356,1
DA:357,1
BRF:0
BRH:0
LF:199
LH:161
end_of_record
SF:/mnt/f/Node/hivellm/vectorizer/src/batch/config.rs
FN:73,_RNvMs_NtNtCs1YuMAXYbbDa_10vectorizer5batch6configNtB4_11BatchConfig10production
FN:92,_RNvMs_NtNtCs1YuMAXYbbDa_10vectorizer5batch6configNtB4_11BatchConfig11development
FN:172,_RNvMs_NtNtCs1YuMAXYbbDa_10vectorizer5batch6configNtB4_11BatchConfig19is_batch_size_valid
FN:177,_RNvMs_NtNtCs1YuMAXYbbDa_10vectorizer5batch6configNtB4_11BatchConfig21estimate_memory_usage
FN:163,_RNvMs_NtNtCs1YuMAXYbbDa_10vectorizer5batch6configNtB4_11BatchConfig24get_chunk_size_for_batch
FN:187,_RNvMs_NtNtCs1YuMAXYbbDa_10vectorizer5batch6configNtB4_11BatchConfig25would_exceed_memory_limit
FN:111,_RNvMs_NtNtCs1YuMAXYbbDa_10vectorizer5batch6configNtB4_11BatchConfig7testing
FN:130,_RNvMs_NtNtCs1YuMAXYbbDa_10vectorizer5batch6configNtB4_11BatchConfig8validate
FN:52,_RNvXNtNtCs1YuMAXYbbDa_10vectorizer5batch6configNtB2_11BatchConfigNtNtCs9Kp62OsN3pY_4core7default7Default7default
FN:197,_RNvNtNtNtCs4Tkd3OJeaSh_10vectorizer5batch6config5testss_19test_default_config
FN:223,_RNvNtNtNtCs4Tkd3OJeaSh_10vectorizer5batch6config5testss_19test_testing_config
FN:231,_RNvNtNtNtCs4Tkd3OJeaSh_10vectorizer5batch6config5testss_22test_config_validation
FN:251,_RNvNtNtNtCs4Tkd3OJeaSh_10vectorizer5batch6config5testss_22test_memory_estimation
FN:206,_RNvNtNtNtCs4Tkd3OJeaSh_10vectorizer5batch6config5testss_22test_production_config
FN:215,_RNvNtNtNtCs4Tkd3OJeaSh_10vectorizer5batch6config5testss_23test_development_config
FN:242,_RNvNtNtNtCs4Tkd3OJeaSh_10vectorizer5batch6config5testss_26test_batch_size_validation
FN:262,_RNvNtNtNtCs4Tkd3OJeaSh_10vectorizer5batch6config5testss_27test_chunk_size_calculation
FN:73,_RNvMs_NtNtCs4Tkd3OJeaSh_10vectorizer5batch6configNtB4_11BatchConfig10production
FN:92,_RNvMs_NtNtCs4Tkd3OJeaSh_10vectorizer5batch6configNtB4_11BatchConfig11development
FN:172,_RNvMs_NtNtCs4Tkd3OJeaSh_10vectorizer5batch6configNtB4_11BatchConfig19is_batch_size_valid
FN:177,_RNvMs_NtNtCs4Tkd3OJeaSh_10vectorizer5batch6configNtB4_11BatchConfig21estimate_memory_usage
FN:163,_RNvMs_NtNtCs4Tkd3OJeaSh_10vectorizer5batch6configNtB4_11BatchConfig24get_chunk_size_for_batch
FN:187,_RNvMs_NtNtCs4Tkd3OJeaSh_10vectorizer5batch6configNtB4_11BatchConfig25would_exceed_memory_limit
FN:111,_RNvMs_NtNtCs4Tkd3OJeaSh_10vectorizer5batch6configNtB4_11BatchConfig7testing
FN:130,_RNvMs_NtNtCs4Tkd3OJeaSh_10vectorizer5batch6configNtB4_11BatchConfig8validate
FN:52,_RNvXNtNtCs4Tkd3OJeaSh_10vectorizer5batch6configNtB2_11BatchConfigNtNtCs9Kp62OsN3pY_4core7default7Default7default
FNDA:0,_RNvMs_NtNtCs1YuMAXYbbDa_10vectorizer5batch6configNtB4_11BatchConfig10production
FNDA:0,_RNvMs_NtNtCs1YuMAXYbbDa_10vectorizer5batch6configNtB4_11BatchConfig11development
FNDA:0,_RNvMs_NtNtCs1YuMAXYbbDa_10vectorizer5batch6configNtB4_11BatchConfig19is_batch_size_valid
FNDA:0,_RNvMs_NtNtCs1YuMAXYbbDa_10vectorizer5batch6configNtB4_11BatchConfig21estimate_memory_usage
FNDA:0,_RNvMs_NtNtCs1YuMAXYbbDa_10vectorizer5batch6configNtB4_11BatchConfig24get_chunk_size_for_batch
FNDA:0,_RNvMs_NtNtCs1YuMAXYbbDa_10vectorizer5batch6configNtB4_11BatchConfig25would_exceed_memory_limit
FNDA:0,_RNvMs_NtNtCs1YuMAXYbbDa_10vectorizer5batch6configNtB4_11BatchConfig7testing
FNDA:0,_RNvMs_NtNtCs1YuMAXYbbDa_10vectorizer5batch6configNtB4_11BatchConfig8validate
FNDA:0,_RNvXNtNtCs1YuMAXYbbDa_10vectorizer5batch6configNtB2_11BatchConfigNtNtCs9Kp62OsN3pY_4core7default7Default7default
FNDA:1,_RNvNtNtNtCs4Tkd3OJeaSh_10vectorizer5batch6config5testss_19test_default_config
FNDA:1,_RNvNtNtNtCs4Tkd3OJeaSh_10vectorizer5batch6config5testss_19test_testing_config
FNDA:1,_RNvNtNtNtCs4Tkd3OJeaSh_10vectorizer5batch6config5testss_22test_config_validation
FNDA:1,_RNvNtNtNtCs4Tkd3OJeaSh_10vectorizer5batch6config5testss_22test_memory_estimation
FNDA:1,_RNvNtNtNtCs4Tkd3OJeaSh_10vectorizer5batch6config5testss_22test_production_config
FNDA:1,_RNvNtNtNtCs4Tkd3OJeaSh_10vectorizer5batch6config5testss_23test_development_config
FNDA:1,_RNvNtNtNtCs4Tkd3OJeaSh_10vectorizer5batch6config5testss_26test_batch_size_validation
FNDA:1,_RNvNtNtNtCs4Tkd3OJeaSh_10vectorizer5batch6config5testss_27test_chunk_size_calculation
FNDA:1,_RNvMs_NtNtCs4Tkd3OJeaSh_10vectorizer5batch6configNtB4_11BatchConfig10production
FNDA:1,_RNvMs_NtNtCs4Tkd3OJeaSh_10vectorizer5batch6configNtB4_11BatchConfig11development
FNDA:13,_RNvMs_NtNtCs4Tkd3OJeaSh_10vectorizer5batch6configNtB4_11BatchConfig19is_batch_size_valid
FNDA:5,_RNvMs_NtNtCs4Tkd3OJeaSh_10vectorizer5batch6configNtB4_11BatchConfig21estimate_memory_usage
FNDA:2,_RNvMs_NtNtCs4Tkd3OJeaSh_10vectorizer5batch6configNtB4_11BatchConfig24get_chunk_size_for_batch
FNDA:4,_RNvMs_NtNtCs4Tkd3OJeaSh_10vectorizer5batch6configNtB4_11BatchConfig25would_exceed_memory_limit
FNDA:1,_RNvMs_NtNtCs4Tkd3OJeaSh_10vectorizer5batch6configNtB4_11BatchConfig7testing
FNDA:6,_RNvMs_NtNtCs4Tkd3OJeaSh_10vectorizer5batch6configNtB4_11BatchConfig8validate
FNDA:39,_RNvXNtNtCs4Tkd3OJeaSh_10vectorizer5batch6configNtB2_11BatchConfigNtNtCs9Kp62OsN3pY_4core7default7Default7default
FNF:17
FNH:17
DA:52,39
DA:53,39
DA:54,39
DA:55,39
DA:56,39
DA:57,39
DA:58,39
DA:59,39
DA:60,39
DA:61,39
DA:62,39
DA:63,39
DA:64,39
DA:65,39
DA:66,39
DA:67,39
DA:68,39
DA:73,1
DA:74,1
DA:75,1
DA:76,1
DA:77,1
DA:78,1
DA:79,1
DA:80,1
DA:81,1
DA:82,1
DA:83,1
DA:84,1
DA:85,1
DA:86,1
DA:87,1
DA:88,1
DA:89,1
DA:92,1
DA:93,1
DA:94,1
DA:95,1
DA:96,1
DA:97,1
DA:98,1
DA:99,1
DA:100,1
DA:101,1
DA:102,1
DA:103,1
DA:104,1
DA:105,1
DA:106,1
DA:107,1
DA:108,1
DA:111,1
DA:112,1
DA:113,1
DA:114,1
DA:115,1
DA:116,1
DA:117,1
DA:118,1
DA:119,1
DA:120,1
DA:121,1
DA:122,1
DA:123,1
DA:124,1
DA:125,1
DA:126,1
DA:127,1
DA:130,6
DA:131,6
DA:132,1
DA:133,5
DA:135,5
DA:136,0
DA:137,5
DA:139,5
DA:140,0
DA:141,5
DA:143,5
DA:144,0
DA:145,5
DA:147,5
DA:148,1
DA:149,4
DA:151,4
DA:152,0
DA:153,4
DA:155,4
DA:156,0
DA:157,4
DA:159,4
DA:160,6
DA:163,2
DA:164,2
DA:165,1
DA:167,1
DA:169,2
DA:172,13
DA:173,13
DA:174,13
DA:177,5
DA:179,5
DA:180,5
DA:181,5
DA:183,5
DA:184,5
DA:187,4
DA:188,4
DA:189,4
DA:197,1
DA:198,1
DA:199,1
DA:200,1
DA:201,1
DA:202,1
DA:203,1
DA:206,1
DA:207,1
DA:208,1
DA:209,1
DA:210,1
DA:211,1
DA:212,1
DA:215,1
DA:216,1
DA:217,1
DA:218,1
DA:219,1
DA:220,1
DA:223,1
DA:224,1
DA:225,1
DA:226,1
DA:227,1
DA:228,1
DA:231,1
DA:232,1
DA:233,1
DA:234,1
DA:236,1
DA:237,1
DA:238,1
DA:239,1
DA:242,1
DA:243,1
DA:244,1
DA:245,1
DA:246,1
DA:247,1
DA:248,1
DA:251,1
DA:252,1
DA:253,1
DA:254,1
DA:256,1
DA:259,1
DA:262,1
DA:263,1
DA:266,1
DA:269,1
DA:270,1
BRF:0
BRH:0
LF:161
LH:156
end_of_record
SF:/mnt/f/Node/hivellm/vectorizer/src/batch/error.rs
FN:286,_RINvMs5_NtNtCs1YuMAXYbbDa_10vectorizer5batch5errorNtB6_15BatchStatistics11from_resultpEBa_
FN:239,_RNCNvMs3_NtNtCs1YuMAXYbbDa_10vectorizer5batch5errorINtB7_11BatchResultpE18get_errors_by_type0Bb_
FN:248,_RNCNvMs3_NtNtCs1YuMAXYbbDa_10vectorizer5batch5errorINtB7_11BatchResultpE20get_retryable_errors0Bb_
FN:220,_RNvMs3_NtNtCs1YuMAXYbbDa_10vectorizer5batch5errorINtB5_11BatchResultpE10has_errorsB9_
FN:188,_RNvMs3_NtNtCs1YuMAXYbbDa_10vectorizer5batch5errorINtB5_11BatchResultpE11add_successB9_
FN:212,_RNvMs3_NtNtCs1YuMAXYbbDa_10vectorizer5batch5errorINtB5_11BatchResultpE12success_rateB9_
FN:202,_RNvMs3_NtNtCs1YuMAXYbbDa_10vectorizer5batch5errorINtB5_11BatchResultpE13update_statusB9_
FN:236,_RNvMs3_NtNtCs1YuMAXYbbDa_10vectorizer5batch5errorINtB5_11BatchResultpE18get_errors_by_typeB9_
FN:232,_RNvMs3_NtNtCs1YuMAXYbbDa_10vectorizer5batch5errorINtB5_11BatchResultpE18is_partial_successB9_
FN:228,_RNvMs3_NtNtCs1YuMAXYbbDa_10vectorizer5batch5errorINtB5_11BatchResultpE19is_complete_failureB9_
FN:224,_RNvMs3_NtNtCs1YuMAXYbbDa_10vectorizer5batch5errorINtB5_11BatchResultpE19is_complete_successB9_
FN:245,_RNvMs3_NtNtCs1YuMAXYbbDa_10vectorizer5batch5errorINtB5_11BatchResultpE20get_retryable_errorsB9_
FN:183,_RNvMs3_NtNtCs1YuMAXYbbDa_10vectorizer5batch5errorINtB5_11BatchResultpE20with_processing_timeB9_
FN:171,_RNvMs3_NtNtCs1YuMAXYbbDa_10vectorizer5batch5errorINtB5_11BatchResultpE3newB9_
FN:195,_RNvMs3_NtNtCs1YuMAXYbbDa_10vectorizer5batch5errorINtB5_11BatchResultpE9add_errorB9_
FN:254,_RNvXININtNtCs1YuMAXYbbDa_10vectorizer5batch5errors4_0pEINtB5_11BatchResultpENtNtCs9Kp62OsN3pY_4core7default7Default7defaultB9_
FN:137,_RNvMs0_NtNtCs1YuMAXYbbDa_10vectorizer5batch5errorNtB5_10BatchError10error_code
FN:123,_RNvMs0_NtNtCs1YuMAXYbbDa_10vectorizer5batch5errorNtB5_10BatchError12is_retryable
FN:133,_RNvMs0_NtNtCs1YuMAXYbbDa_10vectorizer5batch5errorNtB5_10BatchError12should_retry
FN:118,_RNvMs0_NtNtCs1YuMAXYbbDa_10vectorizer5batch5errorNtB5_10BatchError16with_retry_count
FN:99,_RNvMs0_NtNtCs1YuMAXYbbDa_10vectorizer5batch5errorNtB5_10BatchError3new
FN:273,_RNvMs5_NtNtCs1YuMAXYbbDa_10vectorizer5batch5errorNtB5_15BatchStatistics3new
FN:375,_RNvNtNtCs1YuMAXYbbDa_10vectorizer5batch5error13timeout_error
FN:353,_RNvNtNtCs1YuMAXYbbDa_10vectorizer5batch5error18vector_store_error
FN:321,_RNvNtNtCs1YuMAXYbbDa_10vectorizer5batch5error24invalid_batch_size_error
FN:362,_RNvNtNtCs1YuMAXYbbDa_10vectorizer5batch5error26embedding_generation_error
FN:337,_RNvNtNtCs1YuMAXYbbDa_10vectorizer5batch5error27memory_limit_exceeded_error
FN:19,_RNvXNtNtCs1YuMAXYbbDa_10vectorizer5batch5errorNtB2_11BatchStatusNtNtCs9Kp62OsN3pY_4core3fmt7Display3fmt
FN:143,_RNvXs1_NtNtCs1YuMAXYbbDa_10vectorizer5batch5errorNtB5_10BatchErrorNtNtCs9Kp62OsN3pY_4core3fmt7Display3fmt
FN:315,_RNvXs6_NtNtCs1YuMAXYbbDa_10vectorizer5batch5errorNtB5_15BatchStatisticsNtNtCs9Kp62OsN3pY_4core7default7Default7default
FN:61,_RNvXs_NtNtCs1YuMAXYbbDa_10vectorizer5batch5errorNtB4_14BatchErrorTypeNtNtCs9Kp62OsN3pY_4core3fmt7Display3fmt
FN:239,_RNCNvMs3_NtNtCs4Tkd3OJeaSh_10vectorizer5batch5errorINtB7_11BatchResultpE18get_errors_by_type0Bb_
FN:133,_RNvMs0_NtNtCs4Tkd3OJeaSh_10vectorizer5batch5errorNtB5_10BatchError12should_retry
FN:118,_RNvMs0_NtNtCs4Tkd3OJeaSh_10vectorizer5batch5errorNtB5_10BatchError16with_retry_count
FN:220,_RNvMs3_NtNtCs4Tkd3OJeaSh_10vectorizer5batch5errorINtB5_11BatchResultpE10has_errorsB9_
FN:236,_RNvMs3_NtNtCs4Tkd3OJeaSh_10vectorizer5batch5errorINtB5_11BatchResultpE18get_errors_by_typeB9_
FN:228,_RNvMs3_NtNtCs4Tkd3OJeaSh_10vectorizer5batch5errorINtB5_11BatchResultpE19is_complete_failureB9_
FN:224,_RNvMs3_NtNtCs4Tkd3OJeaSh_10vectorizer5batch5errorINtB5_11BatchResultpE19is_complete_successB9_
FN:183,_RNvMs3_NtNtCs4Tkd3OJeaSh_10vectorizer5batch5errorINtB5_11BatchResultpE20with_processing_timeB9_
FN:375,_RNvNtNtCs4Tkd3OJeaSh_10vectorizer5batch5error13timeout_error
FN:353,_RNvNtNtCs4Tkd3OJeaSh_10vectorizer5batch5error18vector_store_error
FN:362,_RNvNtNtCs4Tkd3OJeaSh_10vectorizer5batch5error26embedding_generation_error
FN:254,_RNvXININtNtCs4Tkd3OJeaSh_10vectorizer5batch5errors4_0pEINtB5_11BatchResultpENtNtCs9Kp62OsN3pY_4core7default7Default7defaultB9_
FN:143,_RNvXs1_NtNtCs4Tkd3OJeaSh_10vectorizer5batch5errorNtB5_10BatchErrorNtNtCs9Kp62OsN3pY_4core3fmt7Display3fmt
FN:315,_RNvXs6_NtNtCs4Tkd3OJeaSh_10vectorizer5batch5errorNtB5_15BatchStatisticsNtNtCs9Kp62OsN3pY_4core7default7Default7default
FN:286,_RINvMs5_NtNtCs4Tkd3OJeaSh_10vectorizer5batch5errorNtB6_15BatchStatistics11from_resultNtNtCs2jSHSziefvq_5alloc6string6StringEBa_
FN:248,_RNCNvMs3_NtNtCs4Tkd3OJeaSh_10vectorizer5batch5errorINtB7_11BatchResultNtNtCs2jSHSziefvq_5alloc6string6StringE20get_retryable_errors0Bb_
FN:188,_RNvMs3_NtNtCs4Tkd3OJeaSh_10vectorizer5batch5errorINtB5_11BatchResultNtNtCs2jSHSziefvq_5alloc6string6StringE11add_successB9_
FN:212,_RNvMs3_NtNtCs4Tkd3OJeaSh_10vectorizer5batch5errorINtB5_11BatchResultNtNtCs2jSHSziefvq_5alloc6string6StringE12success_rateB9_
FN:202,_RNvMs3_NtNtCs4Tkd3OJeaSh_10vectorizer5batch5errorINtB5_11BatchResultNtNtCs2jSHSziefvq_5alloc6string6StringE13update_statusB9_
FN:232,_RNvMs3_NtNtCs4Tkd3OJeaSh_10vectorizer5batch5errorINtB5_11BatchResultNtNtCs2jSHSziefvq_5alloc6string6StringE18is_partial_successB9_
FN:245,_RNvMs3_NtNtCs4Tkd3OJeaSh_10vectorizer5batch5errorINtB5_11BatchResultNtNtCs2jSHSziefvq_5alloc6string6StringE20get_retryable_errorsB9_
FN:171,_RNvMs3_NtNtCs4Tkd3OJeaSh_10vectorizer5batch5errorINtB5_11BatchResultNtNtCs2jSHSziefvq_5alloc6string6StringE3newB9_
FN:195,_RNvMs3_NtNtCs4Tkd3OJeaSh_10vectorizer5batch5errorINtB5_11BatchResultNtNtCs2jSHSziefvq_5alloc6string6StringE9add_errorB9_
FN:137,_RNvMs0_NtNtCs4Tkd3OJeaSh_10vectorizer5batch5errorNtB5_10BatchError10error_code
FN:123,_RNvMs0_NtNtCs4Tkd3OJeaSh_10vectorizer5batch5errorNtB5_10BatchError12is_retryable
FN:99,_RNvMs0_NtNtCs4Tkd3OJeaSh_10vectorizer5batch5errorNtB5_10BatchError3new
FN:273,_RNvMs5_NtNtCs4Tkd3OJeaSh_10vectorizer5batch5errorNtB5_15BatchStatistics3new
FN:321,_RNvNtNtCs4Tkd3OJeaSh_10vectorizer5batch5error24invalid_batch_size_error
FN:337,_RNvNtNtCs4Tkd3OJeaSh_10vectorizer5batch5error27memory_limit_exceeded_error
FN:19,_RNvXNtNtCs4Tkd3OJeaSh_10vectorizer5batch5errorNtB2_11BatchStatusNtNtCs9Kp62OsN3pY_4core3fmt7Display3fmt
FN:61,_RNvXs_NtNtCs4Tkd3OJeaSh_10vectorizer5batch5errorNtB4_14BatchErrorTypeNtNtCs9Kp62OsN3pY_4core3fmt7Display3fmt
FN:490,_RNvNtNtNtCs4Tkd3OJeaSh_10vectorizer5batch5error5testss_21test_batch_statistics
FN:511,_RNvNtNtNtCs4Tkd3OJeaSh_10vectorizer5batch5error5testss_21test_helper_functions
FN:467,_RNvNtNtNtCs4Tkd3OJeaSh_10vectorizer5batch5error5testss_24test_batch_result_status
FN:412,_RNvNtNtNtCs4Tkd3OJeaSh_10vectorizer5batch5error5testss_25test_batch_error_creation
FN:389,_RNvNtNtNtCs4Tkd3OJeaSh_10vectorizer5batch5error5testss_25test_batch_status_display
FN:426,_RNvNtNtNtCs4Tkd3OJeaSh_10vectorizer5batch5error5testss_26test_batch_error_retryable
FN:445,_RNvNtNtNtCs4Tkd3OJeaSh_10vectorizer5batch5error5testss_28test_batch_result_operations
FN:396,_RNvNtNtNtCs4Tkd3OJeaSh_10vectorizer5batch5error5testss_29test_batch_error_type_display
FNDA:0,_RINvMs5_NtNtCs1YuMAXYbbDa_10vectorizer5batch5errorNtB6_15BatchStatistics11from_resultpEBa_
FNDA:0,_RNCNvMs3_NtNtCs1YuMAXYbbDa_10vectorizer5batch5errorINtB7_11BatchResultpE18get_errors_by_type0Bb_
FNDA:0,_RNCNvMs3_NtNtCs1YuMAXYbbDa_10vectorizer5batch5errorINtB7_11BatchResultpE20get_retryable_errors0Bb_
FNDA:0,_RNvMs3_NtNtCs1YuMAXYbbDa_10vectorizer5batch5errorINtB5_11BatchResultpE10has_errorsB9_
FNDA:0,_RNvMs3_NtNtCs1YuMAXYbbDa_10vectorizer5batch5errorINtB5_11BatchResultpE11add_successB9_
FNDA:0,_RNvMs3_NtNtCs1YuMAXYbbDa_10vectorizer5batch5errorINtB5_11BatchResultpE12success_rateB9_
FNDA:0,_RNvMs3_NtNtCs1YuMAXYbbDa_10vectorizer5batch5errorINtB5_11BatchResultpE13update_statusB9_
FNDA:0,_RNvMs3_NtNtCs1YuMAXYbbDa_10vectorizer5batch5errorINtB5_11BatchResultpE18get_errors_by_typeB9_
FNDA:0,_RNvMs3_NtNtCs1YuMAXYbbDa_10vectorizer5batch5errorINtB5_11BatchResultpE18is_partial_successB9_
FNDA:0,_RNvMs3_NtNtCs1YuMAXYbbDa_10vectorizer5batch5errorINtB5_11BatchResultpE19is_complete_failureB9_
FNDA:0,_RNvMs3_NtNtCs1YuMAXYbbDa_10vectorizer5batch5errorINtB5_11BatchResultpE19is_complete_successB9_
FNDA:0,_RNvMs3_NtNtCs1YuMAXYbbDa_10vectorizer5batch5errorINtB5_11BatchResultpE20get_retryable_errorsB9_
FNDA:0,_RNvMs3_NtNtCs1YuMAXYbbDa_10vectorizer5batch5errorINtB5_11BatchResultpE20with_processing_timeB9_
FNDA:0,_RNvMs3_NtNtCs1YuMAXYbbDa_10vectorizer5batch5errorINtB5_11BatchResultpE3newB9_
FNDA:0,_RNvMs3_NtNtCs1YuMAXYbbDa_10vectorizer5batch5errorINtB5_11BatchResultpE9add_errorB9_
FNDA:0,_RNvXININtNtCs1YuMAXYbbDa_10vectorizer5batch5errors4_0pEINtB5_11BatchResultpENtNtCs9Kp62OsN3pY_4core7default7Default7defaultB9_
FNDA:0,_RNvMs0_NtNtCs1YuMAXYbbDa_10vectorizer5batch5errorNtB5_10BatchError10error_code
FNDA:0,_RNvMs0_NtNtCs1YuMAXYbbDa_10vectorizer5batch5errorNtB5_10BatchError12is_retryable
FNDA:0,_RNvMs0_NtNtCs1YuMAXYbbDa_10vectorizer5batch5errorNtB5_10BatchError12should_retry
FNDA:0,_RNvMs0_NtNtCs1YuMAXYbbDa_10vectorizer5batch5errorNtB5_10BatchError16with_retry_count
FNDA:0,_RNvMs0_NtNtCs1YuMAXYbbDa_10vectorizer5batch5errorNtB5_10BatchError3new
FNDA:0,_RNvMs5_NtNtCs1YuMAXYbbDa_10vectorizer5batch5errorNtB5_15BatchStatistics3new
FNDA:0,_RNvNtNtCs1YuMAXYbbDa_10vectorizer5batch5error13timeout_error
FNDA:0,_RNvNtNtCs1YuMAXYbbDa_10vectorizer5batch5error18vector_store_error
FNDA:0,_RNvNtNtCs1YuMAXYbbDa_10vectorizer5batch5error24invalid_batch_size_error
FNDA:0,_RNvNtNtCs1YuMAXYbbDa_10vectorizer5batch5error26embedding_generation_error
FNDA:0,_RNvNtNtCs1YuMAXYbbDa_10vectorizer5batch5error27memory_limit_exceeded_error
FNDA:0,_RNvXNtNtCs1YuMAXYbbDa_10vectorizer5batch5errorNtB2_11BatchStatusNtNtCs9Kp62OsN3pY_4core3fmt7Display3fmt
FNDA:0,_RNvXs1_NtNtCs1YuMAXYbbDa_10vectorizer5batch5errorNtB5_10BatchErrorNtNtCs9Kp62OsN3pY_4core3fmt7Display3fmt
FNDA:0,_RNvXs6_NtNtCs1YuMAXYbbDa_10vectorizer5batch5errorNtB5_15BatchStatisticsNtNtCs9Kp62OsN3pY_4core7default7Default7default
FNDA:0,_RNvXs_NtNtCs1YuMAXYbbDa_10vectorizer5batch5errorNtB4_14BatchErrorTypeNtNtCs9Kp62OsN3pY_4core3fmt7Display3fmt
FNDA:0,_RNCNvMs3_NtNtCs4Tkd3OJeaSh_10vectorizer5batch5errorINtB7_11BatchResultpE18get_errors_by_type0Bb_
FNDA:0,_RNvMs0_NtNtCs4Tkd3OJeaSh_10vectorizer5batch5errorNtB5_10BatchError12should_retry
FNDA:0,_RNvMs0_NtNtCs4Tkd3OJeaSh_10vectorizer5batch5errorNtB5_10BatchError16with_retry_count
FNDA:0,_RNvMs3_NtNtCs4Tkd3OJeaSh_10vectorizer5batch5errorINtB5_11BatchResultpE10has_errorsB9_
FNDA:0,_RNvMs3_NtNtCs4Tkd3OJeaSh_10vectorizer5batch5errorINtB5_11BatchResultpE18get_errors_by_typeB9_
FNDA:0,_RNvMs3_NtNtCs4Tkd3OJeaSh_10vectorizer5batch5errorINtB5_11BatchResultpE19is_complete_failureB9_
FNDA:0,_RNvMs3_NtNtCs4Tkd3OJeaSh_10vectorizer5batch5errorINtB5_11BatchResultpE19is_complete_successB9_
FNDA:0,_RNvMs3_NtNtCs4Tkd3OJeaSh_10vectorizer5batch5errorINtB5_11BatchResultpE20with_processing_timeB9_
FNDA:0,_RNvNtNtCs4Tkd3OJeaSh_10vectorizer5batch5error13timeout_error
FNDA:0,_RNvNtNtCs4Tkd3OJeaSh_10vectorizer5batch5error18vector_store_error
FNDA:0,_RNvNtNtCs4Tkd3OJeaSh_10vectorizer5batch5error26embedding_generation_error
FNDA:0,_RNvXININtNtCs4Tkd3OJeaSh_10vectorizer5batch5errors4_0pEINtB5_11BatchResultpENtNtCs9Kp62OsN3pY_4core7default7Default7defaultB9_
FNDA:0,_RNvXs1_NtNtCs4Tkd3OJeaSh_10vectorizer5batch5errorNtB5_10BatchErrorNtNtCs9Kp62OsN3pY_4core3fmt7Display3fmt
FNDA:0,_RNvXs6_NtNtCs4Tkd3OJeaSh_10vectorizer5batch5errorNtB5_15BatchStatisticsNtNtCs9Kp62OsN3pY_4core7default7Default7default
FNDA:1,_RINvMs5_NtNtCs4Tkd3OJeaSh_10vectorizer5batch5errorNtB6_15BatchStatistics11from_resultNtNtCs2jSHSziefvq_5alloc6string6StringEBa_
FNDA:1,_RNCNvMs3_NtNtCs4Tkd3OJeaSh_10vectorizer5batch5errorINtB7_11BatchResultNtNtCs2jSHSziefvq_5alloc6string6StringE20get_retryable_errors0Bb_
FNDA:5,_RNvMs3_NtNtCs4Tkd3OJeaSh_10vectorizer5batch5errorINtB5_11BatchResultNtNtCs2jSHSziefvq_5alloc6string6StringE11add_successB9_
FNDA:1,_RNvMs3_NtNtCs4Tkd3OJeaSh_10vectorizer5batch5errorINtB5_11BatchResultNtNtCs2jSHSziefvq_5alloc6string6StringE12success_rateB9_
FNDA:8,_RNvMs3_NtNtCs4Tkd3OJeaSh_10vectorizer5batch5errorINtB5_11BatchResultNtNtCs2jSHSziefvq_5alloc6string6StringE13update_statusB9_
FNDA:1,_RNvMs3_NtNtCs4Tkd3OJeaSh_10vectorizer5batch5errorINtB5_11BatchResultNtNtCs2jSHSziefvq_5alloc6string6StringE18is_partial_successB9_
FNDA:1,_RNvMs3_NtNtCs4Tkd3OJeaSh_10vectorizer5batch5errorINtB5_11BatchResultNtNtCs2jSHSziefvq_5alloc6string6StringE20get_retryable_errorsB9_
FNDA:3,_RNvMs3_NtNtCs4Tkd3OJeaSh_10vectorizer5batch5errorINtB5_11BatchResultNtNtCs2jSHSziefvq_5alloc6string6StringE3newB9_
FNDA:3,_RNvMs3_NtNtCs4Tkd3OJeaSh_10vectorizer5batch5errorINtB5_11BatchResultNtNtCs2jSHSziefvq_5alloc6string6StringE9add_errorB9_
FNDA:1,_RNvMs0_NtNtCs4Tkd3OJeaSh_10vectorizer5batch5errorNtB5_10BatchError10error_code
FNDA:3,_RNvMs0_NtNtCs4Tkd3OJeaSh_10vectorizer5batch5errorNtB5_10BatchError12is_retryable
FNDA:39,_RNvMs0_NtNtCs4Tkd3OJeaSh_10vectorizer5batch5errorNtB5_10BatchError3new
FNDA:1,_RNvMs5_NtNtCs4Tkd3OJeaSh_10vectorizer5batch5errorNtB5_15BatchStatistics3new
FNDA:1,_RNvNtNtCs4Tkd3OJeaSh_10vectorizer5batch5error24invalid_batch_size_error
FNDA:1,_RNvNtNtCs4Tkd3OJeaSh_10vectorizer5batch5error27memory_limit_exceeded_error
FNDA:3,_RNvXNtNtCs4Tkd3OJeaSh_10vectorizer5batch5errorNtB2_11BatchStatusNtNtCs9Kp62OsN3pY_4core3fmt7Display3fmt
FNDA:4,_RNvXs_NtNtCs4Tkd3OJeaSh_10vectorizer5batch5errorNtB4_14BatchErrorTypeNtNtCs9Kp62OsN3pY_4core3fmt7Display3fmt
FNDA:1,_RNvNtNtNtCs4Tkd3OJeaSh_10vectorizer5batch5error5testss_21test_batch_statistics
FNDA:1,_RNvNtNtNtCs4Tkd3OJeaSh_10vectorizer5batch5error5testss_21test_helper_functions
FNDA:1,_RNvNtNtNtCs4Tkd3OJeaSh_10vectorizer5batch5error5testss_24test_batch_result_status
FNDA:1,_RNvNtNtNtCs4Tkd3OJeaSh_10vectorizer5batch5error5testss_25test_batch_error_creation
FNDA:1,_RNvNtNtNtCs4Tkd3OJeaSh_10vectorizer5batch5error5testss_25test_batch_status_display
FNDA:1,_RNvNtNtNtCs4Tkd3OJeaSh_10vectorizer5batch5error5testss_26test_batch_error_retryable
FNDA:1,_RNvNtNtNtCs4Tkd3OJeaSh_10vectorizer5batch5error5testss_28test_batch_result_operations
FNDA:1,_RNvNtNtNtCs4Tkd3OJeaSh_10vectorizer5batch5error5testss_29test_batch_error_type_display
FNF:39
FNH:25
DA:19,3
DA:20,3
DA:21,1
DA:22,1
DA:23,1
DA:25,3
DA:61,4
DA:62,4
DA:63,1
DA:64,0
DA:65,0
DA:66,0
DA:67,0
DA:68,1
DA:69,1
DA:70,0
DA:72,0
DA:74,0
DA:75,0
DA:76,0
DA:77,0
DA:78,0
DA:79,0
DA:80,0
DA:81,0
DA:82,1
DA:84,4
DA:99,39
DA:100,39
DA:101,39
DA:102,39
DA:103,39
DA:104,39
DA:105,39
DA:106,39
DA:107,39
DA:108,39
DA:109,39
DA:110,39
DA:111,39
DA:112,39
DA:113,39
DA:114,39
DA:115,39
DA:116,39
DA:118,0
DA:119,0
DA:120,0
DA:121,0
DA:123,3
DA:124,3
DA:128,2
DA:129,1
DA:131,3
DA:133,0
DA:134,0
DA:135,0
DA:137,1
DA:138,1
DA:139,1
DA:143,0
DA:144,0
DA:145,0
DA:146,0
DA:153,0
DA:171,3
DA:172,3
DA:173,3
DA:174,3
DA:175,3
DA:176,3
DA:177,3
DA:178,3
DA:179,3
DA:180,3
DA:181,3
DA:183,0
DA:184,0
DA:185,0
DA:186,0
DA:188,5
DA:189,5
DA:190,5
DA:191,5
DA:192,5
DA:193,5
DA:195,3
DA:196,3
DA:197,3
DA:198,3
DA:199,3
DA:200,3
DA:202,8
DA:203,8
DA:204,5
DA:205,3
DA:206,3
DA:208,0
DA:210,8
DA:212,1
DA:213,1
DA:214,0
DA:216,1
DA:218,1
DA:220,0
DA:221,0
DA:222,0
DA:224,0
DA:225,0
DA:226,0
DA:228,0
DA:229,0
DA:230,0
DA:232,1
DA:233,1
DA:234,1
DA:236,0
DA:237,0
DA:238,0
DA:239,0
DA:240,0
DA:241,0
DA:242,0
DA:243,0
DA:245,1
DA:246,1
DA:247,1
DA:248,1
DA:249,1
DA:250,1
DA:254,0
DA:255,0
DA:256,0
DA:273,1
DA:274,1
DA:275,1
DA:276,1
DA:277,1
DA:278,1
DA:279,1
DA:280,1
DA:281,1
DA:282,1
DA:283,1
DA:284,1
DA:286,1
DA:287,1
DA:289,1
DA:290,1
DA:291,1
DA:292,1
DA:295,1
DA:296,0
DA:297,0
DA:298,0
DA:299,1
DA:302,1
DA:305,2
DA:306,1
DA:307,1
DA:308,1
DA:310,1
DA:311,1
DA:315,0
DA:316,0
DA:317,0
DA:321,1
DA:322,1
DA:323,1
DA:324,1
DA:325,1
DA:326,1
DA:327,1
DA:328,1
DA:329,1
DA:330,1
DA:333,1
DA:335,1
DA:337,1
DA:338,1
DA:339,1
DA:340,1
DA:341,1
DA:342,1
DA:343,1
DA:344,1
DA:345,1
DA:346,1
DA:349,1
DA:351,1
DA:353,0
DA:354,0
DA:355,0
DA:356,0
DA:357,0
DA:358,0
DA:360,0
DA:362,0
DA:363,0
DA:364,0
DA:365,0
DA:366,0
DA:367,0
DA:368,0
DA:369,0
DA:370,0
DA:371,0
DA:373,0
DA:375,0
DA:376,0
DA:377,0
DA:378,0
DA:379,0
DA:380,0
DA:382,0
DA:389,1
DA:390,1
DA:391,1
DA:392,1
DA:393,1
DA:396,1
DA:397,1
DA:398,1
DA:401,1
DA:402,1
DA:405,1
DA:406,1
DA:409,1
DA:412,1
DA:413,1
DA:414,1
DA:415,1
DA:416,1
DA:417,1
DA:420,1
DA:421,1
DA:422,1
DA:423,1
DA:426,1
DA:427,1
DA:428,1
DA:429,1
DA:430,1
DA:431,1
DA:433,1
DA:435,1
DA:436,1
DA:437,1
DA:438,1
DA:439,1
DA:441,1
DA:442,1
DA:445,1
DA:446,1
DA:448,1
DA:449,1
DA:451,1
DA:452,1
DA:453,1
DA:454,1
DA:455,1
DA:457,1
DA:459,1
DA:460,1
DA:461,1
DA:462,1
DA:463,1
DA:464,1
DA:467,1
DA:468,1
DA:471,1
DA:474,1
DA:475,1
DA:478,1
DA:479,1
DA:480,1
DA:481,1
DA:482,1
DA:484,1
DA:485,1
DA:486,1
DA:487,1
DA:490,1
DA:491,1
DA:492,1
DA:493,1
DA:495,1
DA:496,1
DA:497,1
DA:498,1
DA:499,1
DA:501,1
DA:503,1
DA:504,1
DA:505,1
DA:506,1
DA:507,1
DA:508,1
DA:511,1
DA:512,1
DA:513,1
DA:514,1
DA:515,1
DA:517,1
DA:518,1
DA:519,1
DA:520,1
DA:521,1
BRF:0
BRH:0
LF:310
LH:226
end_of_record
SF:/mnt/f/Node/hivellm/vectorizer/src/batch/mod.rs
FN:102,_RNvMNtCs1YuMAXYbbDa_10vectorizer5batchNtB2_21BatchProcessorBuilder11with_config
FN:91,_RNvMNtCs1YuMAXYbbDa_10vectorizer5batchNtB2_21BatchProcessorBuilder3new
FN:107,_RNvMNtCs1YuMAXYbbDa_10vectorizer5batchNtB2_21BatchProcessorBuilder5build
FN:102,_RNvMNtCs4Tkd3OJeaSh_10vectorizer5batchNtB2_21BatchProcessorBuilder11with_config
FN:91,_RNvMNtCs4Tkd3OJeaSh_10vectorizer5batchNtB2_21BatchProcessorBuilder3new
FN:107,_RNvMNtCs4Tkd3OJeaSh_10vectorizer5batchNtB2_21BatchProcessorBuilder5build
FN:121,_RNvNtNtCs4Tkd3OJeaSh_10vectorizer5batch5testss_25test_batch_config_default
FN:132,_RNvNtNtCs4Tkd3OJeaSh_10vectorizer5batch5testss_26test_batch_status_equality
FN:150,_RNvNtNtCs4Tkd3OJeaSh_10vectorizer5batch5testss_26test_search_query_creation
FN:222,_RNvNtNtCs4Tkd3OJeaSh_10vectorizer5batch5testss_27test_batch_operation_delete
FN:164,_RNvNtNtCs4Tkd3OJeaSh_10vectorizer5batch5testss_27test_batch_operation_insert
FN:243,_RNvNtNtCs4Tkd3OJeaSh_10vectorizer5batch5testss_27test_batch_operation_search
FN:193,_RNvNtNtCs4Tkd3OJeaSh_10vectorizer5batch5testss_27test_batch_operation_update
FN:331,_RNvNtNtCs4Tkd3OJeaSh_10vectorizer5batch5testss_27test_search_query_text_only
FN:138,_RNvNtNtCs4Tkd3OJeaSh_10vectorizer5batch5testss_27test_vector_update_creation
FN:389,_RNvNtNtCs4Tkd3OJeaSh_10vectorizer5batch5testss_28test_batch_processor_builder
FN:347,_RNvNtNtCs4Tkd3OJeaSh_10vectorizer5batch5testss_29test_search_query_vector_only
FN:310,_RNvNtNtCs4Tkd3OJeaSh_10vectorizer5batch5testss_30test_search_query_with_filters
FN:276,_RNvNtNtCs4Tkd3OJeaSh_10vectorizer5batch5testss_32test_vector_update_serialization
FN:363,_RNvNtNtCs4Tkd3OJeaSh_10vectorizer5batch5testss_34test_batch_operation_serialization
FN:297,_RNvNtNtCs4Tkd3OJeaSh_10vectorizer5batch5testss_35test_vector_update_with_none_values
FN:407,_RNvNtNtCs4Tkd3OJeaSh_10vectorizer5batch5testss_43test_batch_processor_builder_default_config
FNDA:0,_RNvMNtCs1YuMAXYbbDa_10vectorizer5batchNtB2_21BatchProcessorBuilder11with_config
FNDA:0,_RNvMNtCs1YuMAXYbbDa_10vectorizer5batchNtB2_21BatchProcessorBuilder3new
FNDA:0,_RNvMNtCs1YuMAXYbbDa_10vectorizer5batchNtB2_21BatchProcessorBuilder5build
FNDA:1,_RNvMNtCs4Tkd3OJeaSh_10vectorizer5batchNtB2_21BatchProcessorBuilder11with_config
FNDA:2,_RNvMNtCs4Tkd3OJeaSh_10vectorizer5batchNtB2_21BatchProcessorBuilder3new
FNDA:2,_RNvMNtCs4Tkd3OJeaSh_10vectorizer5batchNtB2_21BatchProcessorBuilder5build
FNDA:1,_RNvNtNtCs4Tkd3OJeaSh_10vectorizer5batch5testss_25test_batch_config_default
FNDA:1,_RNvNtNtCs4Tkd3OJeaSh_10vectorizer5batch5testss_26test_batch_status_equality
FNDA:1,_RNvNtNtCs4Tkd3OJeaSh_10vectorizer5batch5testss_26test_search_query_creation
FNDA:1,_RNvNtNtCs4Tkd3OJeaSh_10vectorizer5batch5testss_27test_batch_operation_delete
FNDA:1,_RNvNtNtCs4Tkd3OJeaSh_10vectorizer5batch5testss_27test_batch_operation_insert
FNDA:1,_RNvNtNtCs4Tkd3OJeaSh_10vectorizer5batch5testss_27test_batch_operation_search
FNDA:1,_RNvNtNtCs4Tkd3OJeaSh_10vectorizer5batch5testss_27test_batch_operation_update
FNDA:1,_RNvNtNtCs4Tkd3OJeaSh_10vectorizer5batch5testss_27test_search_query_text_only
FNDA:1,_RNvNtNtCs4Tkd3OJeaSh_10vectorizer5batch5testss_27test_vector_update_creation
FNDA:1,_RNvNtNtCs4Tkd3OJeaSh_10vectorizer5batch5testss_28test_batch_processor_builder
FNDA:1,_RNvNtNtCs4Tkd3OJeaSh_10vectorizer5batch5testss_29test_search_query_vector_only
FNDA:1,_RNvNtNtCs4Tkd3OJeaSh_10vectorizer5batch5testss_30test_search_query_with_filters
FNDA:1,_RNvNtNtCs4Tkd3OJeaSh_10vectorizer5batch5testss_32test_vector_update_serialization
FNDA:1,_RNvNtNtCs4Tkd3OJeaSh_10vectorizer5batch5testss_34test_batch_operation_serialization
FNDA:1,_RNvNtNtCs4Tkd3OJeaSh_10vectorizer5batch5testss_35test_vector_update_with_none_values
FNDA:1,_RNvNtNtCs4Tkd3OJeaSh_10vectorizer5batch5testss_43test_batch_processor_builder_default_config
FNF:19
FNH:19
DA:91,2
DA:92,2
DA:93,2
DA:94,2
DA:95,2
DA:96,2
DA:97,2
DA:98,2
DA:99,2
DA:100,2
DA:102,1
DA:103,1
DA:104,1
DA:105,1
DA:107,2
DA:108,2
DA:109,2
DA:110,2
DA:111,2
DA:113,2
DA:121,1
DA:122,1
DA:123,1
DA:124,1
DA:125,1
DA:126,1
DA:127,1
DA:128,1
DA:129,1
DA:132,1
DA:133,1
DA:134,1
DA:135,1
DA:138,1
DA:139,1
DA:140,1
DA:141,1
DA:142,1
DA:143,1
DA:145,1
DA:146,1
DA:147,1
DA:150,1
DA:151,1
DA:152,1
DA:153,1
DA:154,1
DA:155,1
DA:156,1
DA:157,1
DA:159,1
DA:160,1
DA:161,1
DA:164,1
DA:165,1
DA:166,1
DA:167,1
DA:168,1
DA:169,1
DA:170,1
DA:171,1
DA:172,1
DA:173,1
DA:174,1
DA:175,1
DA:178,1
DA:179,1
DA:180,1
DA:181,1
DA:183,1
DA:184,1
DA:185,1
DA:186,1
DA:188,0
DA:190,1
DA:193,1
DA:194,1
DA:195,1
DA:196,1
DA:197,1
DA:198,1
DA:199,1
DA:200,1
DA:201,1
DA:202,1
DA:203,1
DA:204,1
DA:207,1
DA:208,1
DA:209,1
DA:210,1
DA:212,1
DA:213,1
DA:214,1
DA:215,1
DA:217,0
DA:219,1
DA:222,1
DA:223,1
DA:225,1
DA:226,1
DA:227,1
DA:228,1
DA:230,1
DA:232,1
DA:233,1
DA:235,1
DA:236,1
DA:238,0
DA:240,1
DA:243,1
DA:244,1
DA:245,1
DA:246,1
DA:247,1
DA:248,1
DA:249,1
DA:250,1
DA:251,1
DA:252,1
DA:253,1
DA:254,1
DA:255,1
DA:256,1
DA:257,1
DA:258,1
DA:261,1
DA:262,1
DA:263,1
DA:264,1
DA:266,1
DA:267,1
DA:268,1
DA:269,1
DA:271,0
DA:273,1
DA:276,1
DA:277,1
DA:278,1
DA:279,1
DA:281,1
DA:282,1
DA:283,1
DA:284,1
DA:285,1
DA:288,1
DA:289,1
DA:291,1
DA:292,1
DA:293,1
DA:294,1
DA:297,1
DA:298,1
DA:299,1
DA:300,1
DA:301,1
DA:302,1
DA:304,1
DA:305,1
DA:306,1
DA:307,1
DA:310,1
DA:311,1
DA:312,1
DA:313,1
DA:315,1
DA:316,1
DA:317,1
DA:318,1
DA:319,1
DA:320,1
DA:321,1
DA:323,1
DA:324,1
DA:325,1
DA:326,1
DA:327,1
DA:328,1
DA:331,1
DA:332,1
DA:333,1
DA:334,1
DA:335,1
DA:336,1
DA:337,1
DA:338,1
DA:340,1
DA:341,1
DA:342,1
DA:343,1
DA:344,1
DA:347,1
DA:348,1
DA:349,1
DA:350,1
DA:351,1
DA:352,1
DA:353,1
DA:354,1
DA:356,1
DA:357,1
DA:358,1
DA:359,1
DA:360,1
DA:363,1
DA:364,1
DA:365,1
DA:366,1
DA:367,1
DA:368,1
DA:370,1
DA:371,1
DA:372,1
DA:373,1
DA:376,1
DA:377,1
DA:379,1
DA:380,1
DA:381,1
DA:382,1
DA:384,0
DA:386,1
DA:389,1
DA:395,1
DA:396,1
DA:398,1
DA:399,1
DA:400,1
DA:403,1
DA:404,1
DA:407,1
DA:413,1
DA:414,1
DA:416,1
DA:419,1
DA:420,1
BRF:0
BRH:0
LF:236
LH:231
end_of_record
SF:/mnt/f/Node/hivellm/vectorizer/src/batch/operations.rs
FN:219,_RINvMNtNtCs1YuMAXYbbDa_10vectorizer5batch10operationsNtB3_21BatchOperationManager17execute_operationpEB7_
FN:222,_RNCINvMNtNtCs1YuMAXYbbDa_10vectorizer5batch10operationsNtB5_21BatchOperationManager17execute_operationpE0B9_
FN:233,_RNCNvMNtNtCs1YuMAXYbbDa_10vectorizer5batch10operationsNtB4_21BatchOperationManager21get_active_operations0B8_
FN:233,_RNvMNtNtCs1YuMAXYbbDa_10vectorizer5batch10operationsNtB2_21BatchOperationManager21get_active_operations
FN:206,_RNvMNtNtCs1YuMAXYbbDa_10vectorizer5batch10operationsNtB2_21BatchOperationManager3new
FN:94,_RNvXs0_NtNtCs1YuMAXYbbDa_10vectorizer5batch10operationsNtB5_20BatchUpdateOperationNtB5_19BatchOperationTrait12operation_id
FN:97,_RNvXs0_NtNtCs1YuMAXYbbDa_10vectorizer5batch10operationsNtB5_20BatchUpdateOperationNtB5_19BatchOperationTrait15collection_name
FN:109,_RNvXs0_NtNtCs1YuMAXYbbDa_10vectorizer5batch10operationsNtB5_20BatchUpdateOperationNtB5_19BatchOperationTrait7execute
FN:100,_RNvXs0_NtNtCs1YuMAXYbbDa_10vectorizer5batch10operationsNtB5_20BatchUpdateOperationNtB5_19BatchOperationTrait9is_atomic
FN:133,_RNvXs1_NtNtCs1YuMAXYbbDa_10vectorizer5batch10operationsNtB5_20BatchDeleteOperationNtB5_19BatchOperationTrait12operation_id
FN:136,_RNvXs1_NtNtCs1YuMAXYbbDa_10vectorizer5batch10operationsNtB5_20BatchDeleteOperationNtB5_19BatchOperationTrait15collection_name
FN:148,_RNvXs1_NtNtCs1YuMAXYbbDa_10vectorizer5batch10operationsNtB5_20BatchDeleteOperationNtB5_19BatchOperationTrait7execute
FN:139,_RNvXs1_NtNtCs1YuMAXYbbDa_10vectorizer5batch10operationsNtB5_20BatchDeleteOperationNtB5_19BatchOperationTrait9is_atomic
FN:172,_RNvXs2_NtNtCs1YuMAXYbbDa_10vectorizer5batch10operationsNtB5_20BatchSearchOperationNtB5_19BatchOperationTrait12operation_id
FN:175,_RNvXs2_NtNtCs1YuMAXYbbDa_10vectorizer5batch10operationsNtB5_20BatchSearchOperationNtB5_19BatchOperationTrait15collection_name
FN:187,_RNvXs2_NtNtCs1YuMAXYbbDa_10vectorizer5batch10operationsNtB5_20BatchSearchOperationNtB5_19BatchOperationTrait7execute
FN:178,_RNvXs2_NtNtCs1YuMAXYbbDa_10vectorizer5batch10operationsNtB5_20BatchSearchOperationNtB5_19BatchOperationTrait9is_atomic
FN:54,_RNvXs_NtNtCs1YuMAXYbbDa_10vectorizer5batch10operationsNtB4_20BatchInsertOperationNtB4_19BatchOperationTrait12operation_id
FN:57,_RNvXs_NtNtCs1YuMAXYbbDa_10vectorizer5batch10operationsNtB4_20BatchInsertOperationNtB4_19BatchOperationTrait15collection_name
FN:69,_RNvXs_NtNtCs1YuMAXYbbDa_10vectorizer5batch10operationsNtB4_20BatchInsertOperationNtB4_19BatchOperationTrait7execute
FN:60,_RNvXs_NtNtCs1YuMAXYbbDa_10vectorizer5batch10operationsNtB4_20BatchInsertOperationNtB4_19BatchOperationTrait9is_atomic
FN:219,_RINvMNtNtCs4Tkd3OJeaSh_10vectorizer5batch10operationsNtB3_21BatchOperationManager17execute_operationpEB7_
FN:222,_RNCINvMNtNtCs4Tkd3OJeaSh_10vectorizer5batch10operationsNtB5_21BatchOperationManager17execute_operationpE0B9_
FN:233,_RNCNvMNtNtCs4Tkd3OJeaSh_10vectorizer5batch10operationsNtB4_21BatchOperationManager21get_active_operations0B8_
FN:233,_RNvMNtNtCs4Tkd3OJeaSh_10vectorizer5batch10operationsNtB2_21BatchOperationManager21get_active_operations
FN:206,_RNvMNtNtCs4Tkd3OJeaSh_10vectorizer5batch10operationsNtB2_21BatchOperationManager3new
FN:109,_RNvXs0_NtNtCs4Tkd3OJeaSh_10vectorizer5batch10operationsNtB5_20BatchUpdateOperationNtB5_19BatchOperationTrait7execute
FN:148,_RNvXs1_NtNtCs4Tkd3OJeaSh_10vectorizer5batch10operationsNtB5_20BatchDeleteOperationNtB5_19BatchOperationTrait7execute
FN:187,_RNvXs2_NtNtCs4Tkd3OJeaSh_10vectorizer5batch10operationsNtB5_20BatchSearchOperationNtB5_19BatchOperationTrait7execute
FN:69,_RNvXs_NtNtCs4Tkd3OJeaSh_10vectorizer5batch10operationsNtB4_20BatchInsertOperationNtB4_19BatchOperationTrait7execute
FN:94,_RNvXs0_NtNtCs4Tkd3OJeaSh_10vectorizer5batch10operationsNtB5_20BatchUpdateOperationNtB5_19BatchOperationTrait12operation_id
FN:97,_RNvXs0_NtNtCs4Tkd3OJeaSh_10vectorizer5batch10operationsNtB5_20BatchUpdateOperationNtB5_19BatchOperationTrait15collection_name
FN:100,_RNvXs0_NtNtCs4Tkd3OJeaSh_10vectorizer5batch10operationsNtB5_20BatchUpdateOperationNtB5_19BatchOperationTrait9is_atomic
FN:133,_RNvXs1_NtNtCs4Tkd3OJeaSh_10vectorizer5batch10operationsNtB5_20BatchDeleteOperationNtB5_19BatchOperationTrait12operation_id
FN:136,_RNvXs1_NtNtCs4Tkd3OJeaSh_10vectorizer5batch10operationsNtB5_20BatchDeleteOperationNtB5_19BatchOperationTrait15collection_name
FN:139,_RNvXs1_NtNtCs4Tkd3OJeaSh_10vectorizer5batch10operationsNtB5_20BatchDeleteOperationNtB5_19BatchOperationTrait9is_atomic
FN:172,_RNvXs2_NtNtCs4Tkd3OJeaSh_10vectorizer5batch10operationsNtB5_20BatchSearchOperationNtB5_19BatchOperationTrait12operation_id
FN:175,_RNvXs2_NtNtCs4Tkd3OJeaSh_10vectorizer5batch10operationsNtB5_20BatchSearchOperationNtB5_19BatchOperationTrait15collection_name
FN:178,_RNvXs2_NtNtCs4Tkd3OJeaSh_10vectorizer5batch10operationsNtB5_20BatchSearchOperationNtB5_19BatchOperationTrait9is_atomic
FN:54,_RNvXs_NtNtCs4Tkd3OJeaSh_10vectorizer5batch10operationsNtB4_20BatchInsertOperationNtB4_19BatchOperationTrait12operation_id
FN:57,_RNvXs_NtNtCs4Tkd3OJeaSh_10vectorizer5batch10operationsNtB4_20BatchInsertOperationNtB4_19BatchOperationTrait15collection_name
FN:60,_RNvXs_NtNtCs4Tkd3OJeaSh_10vectorizer5batch10operationsNtB4_20BatchInsertOperationNtB4_19BatchOperationTrait9is_atomic
FN:273,_RNvNtNtNtCs4Tkd3OJeaSh_10vectorizer5batch10operations5testss_36test_batch_delete_operation_creation
FN:244,_RNvNtNtNtCs4Tkd3OJeaSh_10vectorizer5batch10operations5testss_36test_batch_insert_operation_creation
FN:288,_RNvNtNtNtCs4Tkd3OJeaSh_10vectorizer5batch10operations5testss_36test_batch_search_operation_creation
FN:259,_RNvNtNtNtCs4Tkd3OJeaSh_10vectorizer5batch10operations5testss_36test_batch_update_operation_creation
FNDA:0,_RINvMNtNtCs1YuMAXYbbDa_10vectorizer5batch10operationsNtB3_21BatchOperationManager17execute_operationpEB7_
FNDA:0,_RNCINvMNtNtCs1YuMAXYbbDa_10vectorizer5batch10operationsNtB5_21BatchOperationManager17execute_operationpE0B9_
FNDA:0,_RNCNvMNtNtCs1YuMAXYbbDa_10vectorizer5batch10operationsNtB4_21BatchOperationManager21get_active_operations0B8_
FNDA:0,_RNvMNtNtCs1YuMAXYbbDa_10vectorizer5batch10operationsNtB2_21BatchOperationManager21get_active_operations
FNDA:0,_RNvMNtNtCs1YuMAXYbbDa_10vectorizer5batch10operationsNtB2_21BatchOperationManager3new
FNDA:0,_RNvXs0_NtNtCs1YuMAXYbbDa_10vectorizer5batch10operationsNtB5_20BatchUpdateOperationNtB5_19BatchOperationTrait12operation_id
FNDA:0,_RNvXs0_NtNtCs1YuMAXYbbDa_10vectorizer5batch10operationsNtB5_20BatchUpdateOperationNtB5_19BatchOperationTrait15collection_name
FNDA:0,_RNvXs0_NtNtCs1YuMAXYbbDa_10vectorizer5batch10operationsNtB5_20BatchUpdateOperationNtB5_19BatchOperationTrait7execute
FNDA:0,_RNvXs0_NtNtCs1YuMAXYbbDa_10vectorizer5batch10operationsNtB5_20BatchUpdateOperationNtB5_19BatchOperationTrait9is_atomic
FNDA:0,_RNvXs1_NtNtCs1YuMAXYbbDa_10vectorizer5batch10operationsNtB5_20BatchDeleteOperationNtB5_19BatchOperationTrait12operation_id
FNDA:0,_RNvXs1_NtNtCs1YuMAXYbbDa_10vectorizer5batch10operationsNtB5_20BatchDeleteOperationNtB5_19BatchOperationTrait15collection_name
FNDA:0,_RNvXs1_NtNtCs1YuMAXYbbDa_10vectorizer5batch10operationsNtB5_20BatchDeleteOperationNtB5_19BatchOperationTrait7execute
FNDA:0,_RNvXs1_NtNtCs1YuMAXYbbDa_10vectorizer5batch10operationsNtB5_20BatchDeleteOperationNtB5_19BatchOperationTrait9is_atomic
FNDA:0,_RNvXs2_NtNtCs1YuMAXYbbDa_10vectorizer5batch10operationsNtB5_20BatchSearchOperationNtB5_19BatchOperationTrait12operation_id
FNDA:0,_RNvXs2_NtNtCs1YuMAXYbbDa_10vectorizer5batch10operationsNtB5_20BatchSearchOperationNtB5_19BatchOperationTrait15collection_name
FNDA:0,_RNvXs2_NtNtCs1YuMAXYbbDa_10vectorizer5batch10operationsNtB5_20BatchSearchOperationNtB5_19BatchOperationTrait7execute
FNDA:0,_RNvXs2_NtNtCs1YuMAXYbbDa_10vectorizer5batch10operationsNtB5_20BatchSearchOperationNtB5_19BatchOperationTrait9is_atomic
FNDA:0,_RNvXs_NtNtCs1YuMAXYbbDa_10vectorizer5batch10operationsNtB4_20BatchInsertOperationNtB4_19BatchOperationTrait12operation_id
FNDA:0,_RNvXs_NtNtCs1YuMAXYbbDa_10vectorizer5batch10operationsNtB4_20BatchInsertOperationNtB4_19BatchOperationTrait15collection_name
FNDA:0,_RNvXs_NtNtCs1YuMAXYbbDa_10vectorizer5batch10operationsNtB4_20BatchInsertOperationNtB4_19BatchOperationTrait7execute
FNDA:0,_RNvXs_NtNtCs1YuMAXYbbDa_10vectorizer5batch10operationsNtB4_20BatchInsertOperationNtB4_19BatchOperationTrait9is_atomic
FNDA:0,_RINvMNtNtCs4Tkd3OJeaSh_10vectorizer5batch10operationsNtB3_21BatchOperationManager17execute_operationpEB7_
FNDA:0,_RNCINvMNtNtCs4Tkd3OJeaSh_10vectorizer5batch10operationsNtB5_21BatchOperationManager17execute_operationpE0B9_
FNDA:0,_RNCNvMNtNtCs4Tkd3OJeaSh_10vectorizer5batch10operationsNtB4_21BatchOperationManager21get_active_operations0B8_
FNDA:0,_RNvMNtNtCs4Tkd3OJeaSh_10vectorizer5batch10operationsNtB2_21BatchOperationManager21get_active_operations
FNDA:0,_RNvMNtNtCs4Tkd3OJeaSh_10vectorizer5batch10operationsNtB2_21BatchOperationManager3new
FNDA:0,_RNvXs0_NtNtCs4Tkd3OJeaSh_10vectorizer5batch10operationsNtB5_20BatchUpdateOperationNtB5_19BatchOperationTrait7execute
FNDA:0,_RNvXs1_NtNtCs4Tkd3OJeaSh_10vectorizer5batch10operationsNtB5_20BatchDeleteOperationNtB5_19BatchOperationTrait7execute
FNDA:0,_RNvXs2_NtNtCs4Tkd3OJeaSh_10vectorizer5batch10operationsNtB5_20BatchSearchOperationNtB5_19BatchOperationTrait7execute
FNDA:0,_RNvXs_NtNtCs4Tkd3OJeaSh_10vectorizer5batch10operationsNtB4_20BatchInsertOperationNtB4_19BatchOperationTrait7execute
FNDA:1,_RNvXs0_NtNtCs4Tkd3OJeaSh_10vectorizer5batch10operationsNtB5_20BatchUpdateOperationNtB5_19BatchOperationTrait12operation_id
FNDA:1,_RNvXs0_NtNtCs4Tkd3OJeaSh_10vectorizer5batch10operationsNtB5_20BatchUpdateOperationNtB5_19BatchOperationTrait15collection_name
FNDA:1,_RNvXs0_NtNtCs4Tkd3OJeaSh_10vectorizer5batch10operationsNtB5_20BatchUpdateOperationNtB5_19BatchOperationTrait9is_atomic
FNDA:1,_RNvXs1_NtNtCs4Tkd3OJeaSh_10vectorizer5batch10operationsNtB5_20BatchDeleteOperationNtB5_19BatchOperationTrait12operation_id
FNDA:1,_RNvXs1_NtNtCs4Tkd3OJeaSh_10vectorizer5batch10operationsNtB5_20BatchDeleteOperationNtB5_19BatchOperationTrait15collection_name
FNDA:1,_RNvXs1_NtNtCs4Tkd3OJeaSh_10vectorizer5batch10operationsNtB5_20BatchDeleteOperationNtB5_19BatchOperationTrait9is_atomic
FNDA:1,_RNvXs2_NtNtCs4Tkd3OJeaSh_10vectorizer5batch10operationsNtB5_20BatchSearchOperationNtB5_19BatchOperationTrait12operation_id
FNDA:1,_RNvXs2_NtNtCs4Tkd3OJeaSh_10vectorizer5batch10operationsNtB5_20BatchSearchOperationNtB5_19BatchOperationTrait15collection_name
FNDA:1,_RNvXs2_NtNtCs4Tkd3OJeaSh_10vectorizer5batch10operationsNtB5_20BatchSearchOperationNtB5_19BatchOperationTrait9is_atomic
FNDA:1,_RNvXs_NtNtCs4Tkd3OJeaSh_10vectorizer5batch10operationsNtB4_20BatchInsertOperationNtB4_19BatchOperationTrait12operation_id
FNDA:1,_RNvXs_NtNtCs4Tkd3OJeaSh_10vectorizer5batch10operationsNtB4_20BatchInsertOperationNtB4_19BatchOperationTrait15collection_name
FNDA:1,_RNvXs_NtNtCs4Tkd3OJeaSh_10vectorizer5batch10operationsNtB4_20BatchInsertOperationNtB4_19BatchOperationTrait9is_atomic
FNDA:1,_RNvNtNtNtCs4Tkd3OJeaSh_10vectorizer5batch10operations5testss_36test_batch_delete_operation_creation
FNDA:1,_RNvNtNtNtCs4Tkd3OJeaSh_10vectorizer5batch10operations5testss_36test_batch_insert_operation_creation
FNDA:1,_RNvNtNtNtCs4Tkd3OJeaSh_10vectorizer5batch10operations5testss_36test_batch_search_operation_creation
FNDA:1,_RNvNtNtNtCs4Tkd3OJeaSh_10vectorizer5batch10operations5testss_36test_batch_update_operation_creation
FNF:25
FNH:16
DA:54,1
DA:55,1
DA:56,1
DA:57,1
DA:58,1
DA:59,1
DA:60,1
DA:61,1
DA:62,1
DA:69,0
DA:78,0
DA:94,1
DA:95,1
DA:96,1
DA:97,1
DA:98,1
DA:99,1
DA:100,1
DA:101,1
DA:102,1
DA:109,0
DA:117,0
DA:133,1
DA:134,1
DA:135,1
DA:136,1
DA:137,1
DA:138,1
DA:139,1
DA:140,1
DA:141,1
DA:148,0
DA:156,0
DA:172,1
DA:173,1
DA:174,1
DA:175,1
DA:176,1
DA:177,1
DA:178,1
DA:179,1
DA:180,1
DA:187,0
DA:195,0
DA:206,0
DA:207,0
DA:208,0
DA:209,0
DA:210,0
DA:211,0
DA:212,0
DA:213,0
DA:214,0
DA:215,0
DA:216,0
DA:219,0
DA:220,0
DA:221,0
DA:222,0
DA:223,0
DA:224,0
DA:225,0
DA:226,0
DA:227,0
DA:228,0
DA:229,0
DA:230,0
DA:233,0
DA:234,0
DA:235,0
DA:244,1
DA:245,1
DA:246,1
DA:247,1
DA:248,1
DA:249,1
DA:250,1
DA:251,1
DA:253,1
DA:254,1
DA:255,1
DA:256,1
DA:259,1
DA:260,1
DA:261,1
DA:262,1
DA:263,1
DA:264,1
DA:265,1
DA:267,1
DA:268,1
DA:269,1
DA:270,1
DA:273,1
DA:274,1
DA:275,1
DA:276,1
DA:277,1
DA:278,1
DA:279,1
DA:281,1
DA:282,1
DA:283,1
DA:284,1
DA:285,1
DA:288,1
DA:289,1
DA:290,1
DA:291,1
DA:292,1
DA:293,1
DA:294,1
DA:295,1
DA:297,1
DA:298,1
DA:299,1
DA:300,1
DA:301,1
DA:302,1
DA:304,1
DA:305,1
DA:306,1
DA:307,1
DA:308,1
BRF:0
BRH:0
LF:126
LH:90
end_of_record
SF:/mnt/f/Node/hivellm/vectorizer/src/batch/parallel.rs
FN:31,_RNvMs_NtNtCs1YuMAXYbbDa_10vectorizer5batch8parallelNtB4_17ParallelProcessor3new
FN:105,_RINvMs_NtNtCs1YuMAXYbbDa_10vectorizer5batch8parallelNtB5_17ParallelProcessor13process_itemsppppEB9_
FN:37,_RINvMs_NtNtCs1YuMAXYbbDa_10vectorizer5batch8parallelNtB5_17ParallelProcessor14process_chunksppppEB9_
FN:115,_RNCINvMs_NtNtCs1YuMAXYbbDa_10vectorizer5batch8parallelNtB7_17ParallelProcessor13process_itemsppppE0Bb_
FN:47,_RNCINvMs_NtNtCs1YuMAXYbbDa_10vectorizer5batch8parallelNtB7_17ParallelProcessor14process_chunksppppE0Bb_
FN:125,_RNCNCINvMs_NtNtCs1YuMAXYbbDa_10vectorizer5batch8parallelNtB9_17ParallelProcessor13process_itemsppppE00Bd_
FN:61,_RNCNCINvMs_NtNtCs1YuMAXYbbDa_10vectorizer5batch8parallelNtB9_17ParallelProcessor14process_chunksppppE00Bd_
FN:375,_RINvNCNvNtNtNtCs4Tkd3OJeaSh_10vectorizer5batch8parallel5testss_21test_batch_item_trait017assert_batch_itemNtB2_10CustomItemEBc_
FN:375,_RINvNCNvNtNtNtCs4Tkd3OJeaSh_10vectorizer5batch8parallel5testss_21test_batch_item_trait017assert_batch_itemNtNtCs2jSHSziefvq_5alloc6string6StringEBc_
FN:375,_RINvNCNvNtNtNtCs4Tkd3OJeaSh_10vectorizer5batch8parallel5testss_21test_batch_item_trait017assert_batch_itemlEBc_
FN:191,_RNCNCNCNCNvNtNtNtCs4Tkd3OJeaSh_10vectorizer5batch8parallel5testss_31test_process_chunks_empty_input0000Bf_
FN:211,_RNCNCNCNCNvNtNtNtCs4Tkd3OJeaSh_10vectorizer5batch8parallel5testss_32test_process_chunks_single_chunk0000Bf_
FN:232,_RNCNCNCNCNvNtNtNtCs4Tkd3OJeaSh_10vectorizer5batch8parallel5testss_35test_process_chunks_multiple_chunks0000Bf_
FN:286,_RNCNCNCNvNtNtNtCs4Tkd3OJeaSh_10vectorizer5batch8parallel5testss_26test_process_items_success000Bd_
FN:269,_RNCNCNCNvNtNtNtCs4Tkd3OJeaSh_10vectorizer5batch8parallel5testss_30test_process_items_empty_input000Bd_
FN:302,_RNCNCNCNvNtNtNtCs4Tkd3OJeaSh_10vectorizer5batch8parallel5testss_30test_process_items_with_errors000Bd_
FN:190,_RNCNCNCNvNtNtNtCs4Tkd3OJeaSh_10vectorizer5batch8parallel5testss_31test_process_chunks_empty_input000Bd_
FN:249,_RNCNCNCNvNtNtNtCs4Tkd3OJeaSh_10vectorizer5batch8parallel5testss_31test_process_chunks_with_errors000Bd_
FN:210,_RNCNCNCNvNtNtNtCs4Tkd3OJeaSh_10vectorizer5batch8parallel5testss_32test_process_chunks_single_chunk000Bd_
FN:322,_RNCNCNCNvNtNtNtCs4Tkd3OJeaSh_10vectorizer5batch8parallel5testss_33test_process_items_partial_errors000Bd_
FN:231,_RNCNCNCNvNtNtNtCs4Tkd3OJeaSh_10vectorizer5batch8parallel5testss_35test_process_chunks_multiple_chunks000Bd_
FN:352,_RNCNCNCNvNtNtNtCs4Tkd3OJeaSh_10vectorizer5batch8parallel5testss_36test_parallel_processing_concurrency000Bd_
FN:286,_RNCNCNvNtNtNtCs4Tkd3OJeaSh_10vectorizer5batch8parallel5testss_26test_process_items_success00Bb_
FN:269,_RNCNCNvNtNtNtCs4Tkd3OJeaSh_10vectorizer5batch8parallel5testss_30test_process_items_empty_input00Bb_
FN:309,_RNCNCNvNtNtNtCs4Tkd3OJeaSh_10vectorizer5batch8parallel5testss_30test_process_items_with_errors00Bb_
FN:192,_RNCNCNvNtNtNtCs4Tkd3OJeaSh_10vectorizer5batch8parallel5testss_31test_process_chunks_empty_input00Bb_
FN:256,_RNCNCNvNtNtNtCs4Tkd3OJeaSh_10vectorizer5batch8parallel5testss_31test_process_chunks_with_errors00Bb_
FN:212,_RNCNCNvNtNtNtCs4Tkd3OJeaSh_10vectorizer5batch8parallel5testss_32test_process_chunks_single_chunk00Bb_
FN:333,_RNCNCNvNtNtNtCs4Tkd3OJeaSh_10vectorizer5batch8parallel5testss_33test_process_items_partial_errors00Bb_
FN:233,_RNCNCNvNtNtNtCs4Tkd3OJeaSh_10vectorizer5batch8parallel5testss_35test_process_chunks_multiple_chunks00Bb_
FN:355,_RNCNCNvNtNtNtCs4Tkd3OJeaSh_10vectorizer5batch8parallel5testss_36test_parallel_processing_concurrency00Bb_
FN:368,_RNCNvNtNtNtCs4Tkd3OJeaSh_10vectorizer5batch8parallel5testss_21test_batch_item_trait0B9_
FN:277,_RNCNvNtNtNtCs4Tkd3OJeaSh_10vectorizer5batch8parallel5testss_26test_process_items_success0B9_
FN:263,_RNCNvNtNtNtCs4Tkd3OJeaSh_10vectorizer5batch8parallel5testss_30test_process_items_empty_input0B9_
FN:296,_RNCNvNtNtNtCs4Tkd3OJeaSh_10vectorizer5batch8parallel5testss_30test_process_items_with_errors0B9_
FN:184,_RNCNvNtNtNtCs4Tkd3OJeaSh_10vectorizer5batch8parallel5testss_31test_process_chunks_empty_input0B9_
FN:243,_RNCNvNtNtNtCs4Tkd3OJeaSh_10vectorizer5batch8parallel5testss_31test_process_chunks_with_errors0B9_
FN:175,_RNCNvNtNtNtCs4Tkd3OJeaSh_10vectorizer5batch8parallel5testss_32test_parallel_processor_creation0B9_
FN:200,_RNCNvNtNtNtCs4Tkd3OJeaSh_10vectorizer5batch8parallel5testss_32test_process_chunks_single_chunk0B9_
FN:316,_RNCNvNtNtNtCs4Tkd3OJeaSh_10vectorizer5batch8parallel5testss_33test_process_items_partial_errors0B9_
FN:221,_RNCNvNtNtNtCs4Tkd3OJeaSh_10vectorizer5batch8parallel5testss_35test_process_chunks_multiple_chunks0B9_
FN:341,_RNCNvNtNtNtCs4Tkd3OJeaSh_10vectorizer5batch8parallel5testss_36test_parallel_processing_concurrency0B9_
FN:368,_RNvNtNtNtCs4Tkd3OJeaSh_10vectorizer5batch8parallel5testss_21test_batch_item_trait
FN:277,_RNvNtNtNtCs4Tkd3OJeaSh_10vectorizer5batch8parallel5testss_26test_process_items_success
FN:263,_RNvNtNtNtCs4Tkd3OJeaSh_10vectorizer5batch8parallel5testss_30test_process_items_empty_input
FN:296,_RNvNtNtNtCs4Tkd3OJeaSh_10vectorizer5batch8parallel5testss_30test_process_items_with_errors
FN:184,_RNvNtNtNtCs4Tkd3OJeaSh_10vectorizer5batch8parallel5testss_31test_process_chunks_empty_input
FN:243,_RNvNtNtNtCs4Tkd3OJeaSh_10vectorizer5batch8parallel5testss_31test_process_chunks_with_errors
FN:175,_RNvNtNtNtCs4Tkd3OJeaSh_10vectorizer5batch8parallel5testss_32test_parallel_processor_creation
FN:200,_RNvNtNtNtCs4Tkd3OJeaSh_10vectorizer5batch8parallel5testss_32test_process_chunks_single_chunk
FN:316,_RNvNtNtNtCs4Tkd3OJeaSh_10vectorizer5batch8parallel5testss_33test_process_items_partial_errors
FN:221,_RNvNtNtNtCs4Tkd3OJeaSh_10vectorizer5batch8parallel5testss_35test_process_chunks_multiple_chunks
FN:341,_RNvNtNtNtCs4Tkd3OJeaSh_10vectorizer5batch8parallel5testss_36test_parallel_processing_concurrency
FN:31,_RNvMs_NtNtCs4Tkd3OJeaSh_10vectorizer5batch8parallelNtB4_17ParallelProcessor3new
FN:105,_RINvMs_NtNtCs4Tkd3OJeaSh_10vectorizer5batch8parallelNtB5_17ParallelProcessor13process_itemsllNCNCNvNtB5_5testss_26test_process_items_success00NCNCB1v_00EB9_
FN:105,_RINvMs_NtNtCs4Tkd3OJeaSh_10vectorizer5batch8parallelNtB5_17ParallelProcessor13process_itemsllNCNCNvNtB5_5testss_30test_process_items_empty_input00NCNCB1v_00EB9_
FN:105,_RINvMs_NtNtCs4Tkd3OJeaSh_10vectorizer5batch8parallelNtB5_17ParallelProcessor13process_itemsllNCNCNvNtB5_5testss_30test_process_items_with_errors00NCNCB1v_00EB9_
FN:105,_RINvMs_NtNtCs4Tkd3OJeaSh_10vectorizer5batch8parallelNtB5_17ParallelProcessor13process_itemsllNCNCNvNtB5_5testss_33test_process_items_partial_errors00NCNCB1v_00EB9_
FN:105,_RINvMs_NtNtCs4Tkd3OJeaSh_10vectorizer5batch8parallelNtB5_17ParallelProcessor13process_itemsllNCNCNvNtB5_5testss_36test_parallel_processing_concurrency00NCNCB1v_00EB9_
FN:37,_RINvMs_NtNtCs4Tkd3OJeaSh_10vectorizer5batch8parallelNtB5_17ParallelProcessor14process_chunksllNCNCNvNtB5_5testss_31test_process_chunks_empty_input00NCNCB1w_00EB9_
FN:37,_RINvMs_NtNtCs4Tkd3OJeaSh_10vectorizer5batch8parallelNtB5_17ParallelProcessor14process_chunksllNCNCNvNtB5_5testss_31test_process_chunks_with_errors00NCNCB1w_00EB9_
FN:37,_RINvMs_NtNtCs4Tkd3OJeaSh_10vectorizer5batch8parallelNtB5_17ParallelProcessor14process_chunksllNCNCNvNtB5_5testss_32test_process_chunks_single_chunk00NCNCB1w_00EB9_
FN:37,_RINvMs_NtNtCs4Tkd3OJeaSh_10vectorizer5batch8parallelNtB5_17ParallelProcessor14process_chunksllNCNCNvNtB5_5testss_35test_process_chunks_multiple_chunks00NCNCB1w_00EB9_
FN:115,_RNCINvMs_NtNtCs4Tkd3OJeaSh_10vectorizer5batch8parallelNtB7_17ParallelProcessor13process_itemsllNCNCNvNtB7_5testss_26test_process_items_success00NCNCB1x_00E0Bb_
FN:115,_RNCINvMs_NtNtCs4Tkd3OJeaSh_10vectorizer5batch8parallelNtB7_17ParallelProcessor13process_itemsllNCNCNvNtB7_5testss_30test_process_items_empty_input00NCNCB1x_00E0Bb_
FN:115,_RNCINvMs_NtNtCs4Tkd3OJeaSh_10vectorizer5batch8parallelNtB7_17ParallelProcessor13process_itemsllNCNCNvNtB7_5testss_30test_process_items_with_errors00NCNCB1x_00E0Bb_
FN:115,_RNCINvMs_NtNtCs4Tkd3OJeaSh_10vectorizer5batch8parallelNtB7_17ParallelProcessor13process_itemsllNCNCNvNtB7_5testss_33test_process_items_partial_errors00NCNCB1x_00E0Bb_
FN:115,_RNCINvMs_NtNtCs4Tkd3OJeaSh_10vectorizer5batch8parallelNtB7_17ParallelProcessor13process_itemsllNCNCNvNtB7_5testss_36test_parallel_processing_concurrency00NCNCB1x_00E0Bb_
FN:47,_RNCINvMs_NtNtCs4Tkd3OJeaSh_10vectorizer5batch8parallelNtB7_17ParallelProcessor14process_chunksllNCNCNvNtB7_5testss_31test_process_chunks_empty_input00NCNCB1y_00E0Bb_
FN:47,_RNCINvMs_NtNtCs4Tkd3OJeaSh_10vectorizer5batch8parallelNtB7_17ParallelProcessor14process_chunksllNCNCNvNtB7_5testss_31test_process_chunks_with_errors00NCNCB1y_00E0Bb_
FN:47,_RNCINvMs_NtNtCs4Tkd3OJeaSh_10vectorizer5batch8parallelNtB7_17ParallelProcessor14process_chunksllNCNCNvNtB7_5testss_32test_process_chunks_single_chunk00NCNCB1y_00E0Bb_
FN:47,_RNCINvMs_NtNtCs4Tkd3OJeaSh_10vectorizer5batch8parallelNtB7_17ParallelProcessor14process_chunksllNCNCNvNtB7_5testss_35test_process_chunks_multiple_chunks00NCNCB1y_00E0Bb_
FN:125,_RNCNCINvMs_NtNtCs4Tkd3OJeaSh_10vectorizer5batch8parallelNtB9_17ParallelProcessor13process_itemsllNCNCNvNtB9_5testss_26test_process_items_success00NCNCB1z_00E00Bd_
FN:125,_RNCNCINvMs_NtNtCs4Tkd3OJeaSh_10vectorizer5batch8parallelNtB9_17ParallelProcessor13process_itemsllNCNCNvNtB9_5testss_30test_process_items_empty_input00NCNCB1z_00E00Bd_
FN:125,_RNCNCINvMs_NtNtCs4Tkd3OJeaSh_10vectorizer5batch8parallelNtB9_17ParallelProcessor13process_itemsllNCNCNvNtB9_5testss_30test_process_items_with_errors00NCNCB1z_00E00Bd_
FN:125,_RNCNCINvMs_NtNtCs4Tkd3OJeaSh_10vectorizer5batch8parallelNtB9_17ParallelProcessor13process_itemsllNCNCNvNtB9_5testss_33test_process_items_partial_errors00NCNCB1z_00E00Bd_
FN:125,_RNCNCINvMs_NtNtCs4Tkd3OJeaSh_10vectorizer5batch8parallelNtB9_17ParallelProcessor13process_itemsllNCNCNvNtB9_5testss_36test_parallel_processing_concurrency00NCNCB1z_00E00Bd_
FN:61,_RNCNCINvMs_NtNtCs4Tkd3OJeaSh_10vectorizer5batch8parallelNtB9_17ParallelProcessor14process_chunksllNCNCNvNtB9_5testss_31test_process_chunks_empty_input00NCNCB1A_00E00Bd_
FN:61,_RNCNCINvMs_NtNtCs4Tkd3OJeaSh_10vectorizer5batch8parallelNtB9_17ParallelProcessor14process_chunksllNCNCNvNtB9_5testss_31test_process_chunks_with_errors00NCNCB1A_00E00Bd_
FN:61,_RNCNCINvMs_NtNtCs4Tkd3OJeaSh_10vectorizer5batch8parallelNtB9_17ParallelProcessor14process_chunksllNCNCNvNtB9_5testss_32test_process_chunks_single_chunk00NCNCB1A_00E00Bd_
FN:61,_RNCNCINvMs_NtNtCs4Tkd3OJeaSh_10vectorizer5batch8parallelNtB9_17ParallelProcessor14process_chunksllNCNCNvNtB9_5testss_35test_process_chunks_multiple_chunks00NCNCB1A_00E00Bd_
FNDA:0,_RNvMs_NtNtCs1YuMAXYbbDa_10vectorizer5batch8parallelNtB4_17ParallelProcessor3new
FNDA:0,_RINvMs_NtNtCs1YuMAXYbbDa_10vectorizer5batch8parallelNtB5_17ParallelProcessor13process_itemsppppEB9_
FNDA:0,_RINvMs_NtNtCs1YuMAXYbbDa_10vectorizer5batch8parallelNtB5_17ParallelProcessor14process_chunksppppEB9_
FNDA:0,_RNCINvMs_NtNtCs1YuMAXYbbDa_10vectorizer5batch8parallelNtB7_17ParallelProcessor13process_itemsppppE0Bb_
FNDA:0,_RNCINvMs_NtNtCs1YuMAXYbbDa_10vectorizer5batch8parallelNtB7_17ParallelProcessor14process_chunksppppE0Bb_
FNDA:0,_RNCNCINvMs_NtNtCs1YuMAXYbbDa_10vectorizer5batch8parallelNtB9_17ParallelProcessor13process_itemsppppE00Bd_
FNDA:0,_RNCNCINvMs_NtNtCs1YuMAXYbbDa_10vectorizer5batch8parallelNtB9_17ParallelProcessor14process_chunksppppE00Bd_
FNDA:1,_RINvNCNvNtNtNtCs4Tkd3OJeaSh_10vectorizer5batch8parallel5testss_21test_batch_item_trait017assert_batch_itemNtB2_10CustomItemEBc_
FNDA:1,_RINvNCNvNtNtNtCs4Tkd3OJeaSh_10vectorizer5batch8parallel5testss_21test_batch_item_trait017assert_batch_itemNtNtCs2jSHSziefvq_5alloc6string6StringEBc_
FNDA:1,_RINvNCNvNtNtNtCs4Tkd3OJeaSh_10vectorizer5batch8parallel5testss_21test_batch_item_trait017assert_batch_itemlEBc_
FNDA:0,_RNCNCNCNCNvNtNtNtCs4Tkd3OJeaSh_10vectorizer5batch8parallel5testss_31test_process_chunks_empty_input0000Bf_
FNDA:5,_RNCNCNCNCNvNtNtNtCs4Tkd3OJeaSh_10vectorizer5batch8parallel5testss_32test_process_chunks_single_chunk0000Bf_
FNDA:10,_RNCNCNCNCNvNtNtNtCs4Tkd3OJeaSh_10vectorizer5batch8parallel5testss_35test_process_chunks_multiple_chunks0000Bf_
FNDA:10,_RNCNCNCNvNtNtNtCs4Tkd3OJeaSh_10vectorizer5batch8parallel5testss_26test_process_items_success000Bd_
FNDA:0,_RNCNCNCNvNtNtNtCs4Tkd3OJeaSh_10vectorizer5batch8parallel5testss_30test_process_items_empty_input000Bd_
FNDA:5,_RNCNCNCNvNtNtNtCs4Tkd3OJeaSh_10vectorizer5batch8parallel5testss_30test_process_items_with_errors000Bd_
FNDA:0,_RNCNCNCNvNtNtNtCs4Tkd3OJeaSh_10vectorizer5batch8parallel5testss_31test_process_chunks_empty_input000Bd_
FNDA:1,_RNCNCNCNvNtNtNtCs4Tkd3OJeaSh_10vectorizer5batch8parallel5testss_31test_process_chunks_with_errors000Bd_
FNDA:1,_RNCNCNCNvNtNtNtCs4Tkd3OJeaSh_10vectorizer5batch8parallel5testss_32test_process_chunks_single_chunk000Bd_
FNDA:5,_RNCNCNCNvNtNtNtCs4Tkd3OJeaSh_10vectorizer5batch8parallel5testss_33test_process_items_partial_errors000Bd_
FNDA:4,_RNCNCNCNvNtNtNtCs4Tkd3OJeaSh_10vectorizer5batch8parallel5testss_35test_process_chunks_multiple_chunks000Bd_
FNDA:20,_RNCNCNCNvNtNtNtCs4Tkd3OJeaSh_10vectorizer5batch8parallel5testss_36test_parallel_processing_concurrency000Bd_
FNDA:10,_RNCNCNvNtNtNtCs4Tkd3OJeaSh_10vectorizer5batch8parallel5testss_26test_process_items_success00Bb_
FNDA:0,_RNCNCNvNtNtNtCs4Tkd3OJeaSh_10vectorizer5batch8parallel5testss_30test_process_items_empty_input00Bb_
FNDA:5,_RNCNCNvNtNtNtCs4Tkd3OJeaSh_10vectorizer5batch8parallel5testss_30test_process_items_with_errors00Bb_
FNDA:0,_RNCNCNvNtNtNtCs4Tkd3OJeaSh_10vectorizer5batch8parallel5testss_31test_process_chunks_empty_input00Bb_
FNDA:1,_RNCNCNvNtNtNtCs4Tkd3OJeaSh_10vectorizer5batch8parallel5testss_31test_process_chunks_with_errors00Bb_
FNDA:1,_RNCNCNvNtNtNtCs4Tkd3OJeaSh_10vectorizer5batch8parallel5testss_32test_process_chunks_single_chunk00Bb_
FNDA:5,_RNCNCNvNtNtNtCs4Tkd3OJeaSh_10vectorizer5batch8parallel5testss_33test_process_items_partial_errors00Bb_
FNDA:4,_RNCNCNvNtNtNtCs4Tkd3OJeaSh_10vectorizer5batch8parallel5testss_35test_process_chunks_multiple_chunks00Bb_
FNDA:20,_RNCNCNvNtNtNtCs4Tkd3OJeaSh_10vectorizer5batch8parallel5testss_36test_parallel_processing_concurrency00Bb_
FNDA:1,_RNCNvNtNtNtCs4Tkd3OJeaSh_10vectorizer5batch8parallel5testss_21test_batch_item_trait0B9_
FNDA:1,_RNCNvNtNtNtCs4Tkd3OJeaSh_10vectorizer5batch8parallel5testss_26test_process_items_success0B9_
FNDA:1,_RNCNvNtNtNtCs4Tkd3OJeaSh_10vectorizer5batch8parallel5testss_30test_process_items_empty_input0B9_
FNDA:1,_RNCNvNtNtNtCs4Tkd3OJeaSh_10vectorizer5batch8parallel5testss_30test_process_items_with_errors0B9_
FNDA:1,_RNCNvNtNtNtCs4Tkd3OJeaSh_10vectorizer5batch8parallel5testss_31test_process_chunks_empty_input0B9_
FNDA:1,_RNCNvNtNtNtCs4Tkd3OJeaSh_10vectorizer5batch8parallel5testss_31test_process_chunks_with_errors0B9_
FNDA:1,_RNCNvNtNtNtCs4Tkd3OJeaSh_10vectorizer5batch8parallel5testss_32test_parallel_processor_creation0B9_
FNDA:1,_RNCNvNtNtNtCs4Tkd3OJeaSh_10vectorizer5batch8parallel5testss_32test_process_chunks_single_chunk0B9_
FNDA:1,_RNCNvNtNtNtCs4Tkd3OJeaSh_10vectorizer5batch8parallel5testss_33test_process_items_partial_errors0B9_
FNDA:1,_RNCNvNtNtNtCs4Tkd3OJeaSh_10vectorizer5batch8parallel5testss_35test_process_chunks_multiple_chunks0B9_
FNDA:1,_RNCNvNtNtNtCs4Tkd3OJeaSh_10vectorizer5batch8parallel5testss_36test_parallel_processing_concurrency0B9_
FNDA:1,_RNvNtNtNtCs4Tkd3OJeaSh_10vectorizer5batch8parallel5testss_21test_batch_item_trait
FNDA:1,_RNvNtNtNtCs4Tkd3OJeaSh_10vectorizer5batch8parallel5testss_26test_process_items_success
FNDA:1,_RNvNtNtNtCs4Tkd3OJeaSh_10vectorizer5batch8parallel5testss_30test_process_items_empty_input
FNDA:1,_RNvNtNtNtCs4Tkd3OJeaSh_10vectorizer5batch8parallel5testss_30test_process_items_with_errors
FNDA:1,_RNvNtNtNtCs4Tkd3OJeaSh_10vectorizer5batch8parallel5testss_31test_process_chunks_empty_input
FNDA:1,_RNvNtNtNtCs4Tkd3OJeaSh_10vectorizer5batch8parallel5testss_31test_process_chunks_with_errors
FNDA:1,_RNvNtNtNtCs4Tkd3OJeaSh_10vectorizer5batch8parallel5testss_32test_parallel_processor_creation
FNDA:1,_RNvNtNtNtCs4Tkd3OJeaSh_10vectorizer5batch8parallel5testss_32test_process_chunks_single_chunk
FNDA:1,_RNvNtNtNtCs4Tkd3OJeaSh_10vectorizer5batch8parallel5testss_33test_process_items_partial_errors
FNDA:1,_RNvNtNtNtCs4Tkd3OJeaSh_10vectorizer5batch8parallel5testss_35test_process_chunks_multiple_chunks
FNDA:1,_RNvNtNtNtCs4Tkd3OJeaSh_10vectorizer5batch8parallel5testss_36test_parallel_processing_concurrency
FNDA:10,_RNvMs_NtNtCs4Tkd3OJeaSh_10vectorizer5batch8parallelNtB4_17ParallelProcessor3new
FNDA:1,_RINvMs_NtNtCs4Tkd3OJeaSh_10vectorizer5batch8parallelNtB5_17ParallelProcessor13process_itemsllNCNCNvNtB5_5testss_26test_process_items_success00NCNCB1v_00EB9_
FNDA:1,_RINvMs_NtNtCs4Tkd3OJeaSh_10vectorizer5batch8parallelNtB5_17ParallelProcessor13process_itemsllNCNCNvNtB5_5testss_30test_process_items_empty_input00NCNCB1v_00EB9_
FNDA:1,_RINvMs_NtNtCs4Tkd3OJeaSh_10vectorizer5batch8parallelNtB5_17ParallelProcessor13process_itemsllNCNCNvNtB5_5testss_30test_process_items_with_errors00NCNCB1v_00EB9_
FNDA:1,_RINvMs_NtNtCs4Tkd3OJeaSh_10vectorizer5batch8parallelNtB5_17ParallelProcessor13process_itemsllNCNCNvNtB5_5testss_33test_process_items_partial_errors00NCNCB1v_00EB9_
FNDA:1,_RINvMs_NtNtCs4Tkd3OJeaSh_10vectorizer5batch8parallelNtB5_17ParallelProcessor13process_itemsllNCNCNvNtB5_5testss_36test_parallel_processing_concurrency00NCNCB1v_00EB9_
FNDA:1,_RINvMs_NtNtCs4Tkd3OJeaSh_10vectorizer5batch8parallelNtB5_17ParallelProcessor14process_chunksllNCNCNvNtB5_5testss_31test_process_chunks_empty_input00NCNCB1w_00EB9_
FNDA:1,_RINvMs_NtNtCs4Tkd3OJeaSh_10vectorizer5batch8parallelNtB5_17ParallelProcessor14process_chunksllNCNCNvNtB5_5testss_31test_process_chunks_with_errors00NCNCB1w_00EB9_
FNDA:1,_RINvMs_NtNtCs4Tkd3OJeaSh_10vectorizer5batch8parallelNtB5_17ParallelProcessor14process_chunksllNCNCNvNtB5_5testss_32test_process_chunks_single_chunk00NCNCB1w_00EB9_
FNDA:1,_RINvMs_NtNtCs4Tkd3OJeaSh_10vectorizer5batch8parallelNtB5_17ParallelProcessor14process_chunksllNCNCNvNtB5_5testss_35test_process_chunks_multiple_chunks00NCNCB1w_00EB9_
FNDA:1,_RNCINvMs_NtNtCs4Tkd3OJeaSh_10vectorizer5batch8parallelNtB7_17ParallelProcessor13process_itemsllNCNCNvNtB7_5testss_26test_process_items_success00NCNCB1x_00E0Bb_
FNDA:1,_RNCINvMs_NtNtCs4Tkd3OJeaSh_10vectorizer5batch8parallelNtB7_17ParallelProcessor13process_itemsllNCNCNvNtB7_5testss_30test_process_items_empty_input00NCNCB1x_00E0Bb_
FNDA:1,_RNCINvMs_NtNtCs4Tkd3OJeaSh_10vectorizer5batch8parallelNtB7_17ParallelProcessor13process_itemsllNCNCNvNtB7_5testss_30test_process_items_with_errors00NCNCB1x_00E0Bb_
FNDA:1,_RNCINvMs_NtNtCs4Tkd3OJeaSh_10vectorizer5batch8parallelNtB7_17ParallelProcessor13process_itemsllNCNCNvNtB7_5testss_33test_process_items_partial_errors00NCNCB1x_00E0Bb_
FNDA:1,_RNCINvMs_NtNtCs4Tkd3OJeaSh_10vectorizer5batch8parallelNtB7_17ParallelProcessor13process_itemsllNCNCNvNtB7_5testss_36test_parallel_processing_concurrency00NCNCB1x_00E0Bb_
FNDA:1,_RNCINvMs_NtNtCs4Tkd3OJeaSh_10vectorizer5batch8parallelNtB7_17ParallelProcessor14process_chunksllNCNCNvNtB7_5testss_31test_process_chunks_empty_input00NCNCB1y_00E0Bb_
FNDA:1,_RNCINvMs_NtNtCs4Tkd3OJeaSh_10vectorizer5batch8parallelNtB7_17ParallelProcessor14process_chunksllNCNCNvNtB7_5testss_31test_process_chunks_with_errors00NCNCB1y_00E0Bb_
FNDA:1,_RNCINvMs_NtNtCs4Tkd3OJeaSh_10vectorizer5batch8parallelNtB7_17ParallelProcessor14process_chunksllNCNCNvNtB7_5testss_32test_process_chunks_single_chunk00NCNCB1y_00E0Bb_
FNDA:1,_RNCINvMs_NtNtCs4Tkd3OJeaSh_10vectorizer5batch8parallelNtB7_17ParallelProcessor14process_chunksllNCNCNvNtB7_5testss_35test_process_chunks_multiple_chunks00NCNCB1y_00E0Bb_
FNDA:10,_RNCNCINvMs_NtNtCs4Tkd3OJeaSh_10vectorizer5batch8parallelNtB9_17ParallelProcessor13process_itemsllNCNCNvNtB9_5testss_26test_process_items_success00NCNCB1z_00E00Bd_
FNDA:0,_RNCNCINvMs_NtNtCs4Tkd3OJeaSh_10vectorizer5batch8parallelNtB9_17ParallelProcessor13process_itemsllNCNCNvNtB9_5testss_30test_process_items_empty_input00NCNCB1z_00E00Bd_
FNDA:5,_RNCNCINvMs_NtNtCs4Tkd3OJeaSh_10vectorizer5batch8parallelNtB9_17ParallelProcessor13process_itemsllNCNCNvNtB9_5testss_30test_process_items_with_errors00NCNCB1z_00E00Bd_
FNDA:5,_RNCNCINvMs_NtNtCs4Tkd3OJeaSh_10vectorizer5batch8parallelNtB9_17ParallelProcessor13process_itemsllNCNCNvNtB9_5testss_33test_process_items_partial_errors00NCNCB1z_00E00Bd_
FNDA:20,_RNCNCINvMs_NtNtCs4Tkd3OJeaSh_10vectorizer5batch8parallelNtB9_17ParallelProcessor13process_itemsllNCNCNvNtB9_5testss_36test_parallel_processing_concurrency00NCNCB1z_00E00Bd_
FNDA:0,_RNCNCINvMs_NtNtCs4Tkd3OJeaSh_10vectorizer5batch8parallelNtB9_17ParallelProcessor14process_chunksllNCNCNvNtB9_5testss_31test_process_chunks_empty_input00NCNCB1A_00E00Bd_
FNDA:1,_RNCNCINvMs_NtNtCs4Tkd3OJeaSh_10vectorizer5batch8parallelNtB9_17ParallelProcessor14process_chunksllNCNCNvNtB9_5testss_31test_process_chunks_with_errors00NCNCB1A_00E00Bd_
FNDA:1,_RNCNCINvMs_NtNtCs4Tkd3OJeaSh_10vectorizer5batch8parallelNtB9_17ParallelProcessor14process_chunksllNCNCNvNtB9_5testss_32test_process_chunks_single_chunk00NCNCB1A_00E00Bd_
FNDA:4,_RNCNCINvMs_NtNtCs4Tkd3OJeaSh_10vectorizer5batch8parallelNtB9_17ParallelProcessor14process_chunksllNCNCNvNtB9_5testss_35test_process_chunks_multiple_chunks00NCNCB1A_00E00Bd_
FNF:51
FNH:46
DA:31,10
DA:32,10
DA:33,10
DA:34,10
DA:37,4
DA:38,4
DA:39,4
DA:40,4
DA:41,4
DA:42,4
DA:43,4
DA:44,4
DA:45,4
DA:46,4
DA:47,4
DA:48,4
DA:49,1
DA:50,3
DA:52,3
DA:53,3
DA:55,6
DA:56,6
DA:57,6
DA:59,6
DA:60,6
DA:61,6
DA:62,6
DA:63,6
DA:64,6
DA:65,6
DA:66,6
DA:69,3
DA:70,3
DA:72,9
DA:73,6
DA:74,5
DA:75,1
DA:76,0
DA:77,0
DA:78,0
DA:79,0
DA:80,0
DA:85,3
DA:86,2
DA:87,1
DA:88,1
DA:89,1
DA:90,1
DA:91,1
DA:92,1
DA:93,1
DA:95,0
DA:96,0
DA:97,0
DA:98,0
DA:99,0
DA:100,0
DA:102,4
DA:105,5
DA:106,5
DA:107,5
DA:108,5
DA:109,5
DA:110,5
DA:111,5
DA:112,5
DA:113,5
DA:114,5
DA:115,5
DA:116,5
DA:117,1
DA:118,4
DA:120,4
DA:122,44
DA:123,40
DA:124,40
DA:125,40
DA:126,40
DA:127,40
DA:128,40
DA:129,40
DA:130,40
DA:133,4
DA:134,4
DA:136,44
DA:137,40
DA:138,33
DA:139,7
DA:140,0
DA:141,0
DA:142,0
DA:143,0
DA:144,0
DA:149,4
DA:150,2
DA:151,2
DA:152,1
DA:153,1
DA:154,1
DA:155,1
DA:156,1
DA:157,1
DA:159,1
DA:160,1
DA:161,1
DA:162,1
DA:163,1
DA:164,1
DA:166,5
DA:175,1
DA:176,1
DA:177,1
DA:180,1
DA:181,1
DA:184,1
DA:185,1
DA:186,1
DA:188,1
DA:189,1
DA:190,1
DA:191,0
DA:192,0
DA:193,1
DA:195,1
DA:196,1
DA:197,1
DA:200,1
DA:201,1
DA:202,1
DA:203,1
DA:204,1
DA:205,1
DA:206,1
DA:208,1
DA:209,1
DA:210,1
DA:211,5
DA:212,2
DA:213,1
DA:215,1
DA:216,1
DA:217,1
DA:218,1
DA:221,1
DA:222,1
DA:223,1
DA:224,1
DA:225,1
DA:226,1
DA:227,1
DA:229,1
DA:230,1
DA:231,4
DA:232,10
DA:233,8
DA:234,1
DA:236,1
DA:237,1
DA:238,1
DA:239,1
DA:240,1
DA:243,1
DA:244,1
DA:245,1
DA:247,1
DA:248,1
DA:249,1
DA:250,1
DA:251,1
DA:252,1
DA:253,1
DA:254,1
DA:255,1
DA:256,2
DA:257,1
DA:259,1
DA:260,1
DA:263,1
DA:264,1
DA:265,1
DA:267,1
DA:268,1
DA:269,1
DA:270,1
DA:272,1
DA:273,1
DA:274,1
DA:277,1
DA:278,1
DA:279,1
DA:280,1
DA:281,1
DA:282,1
DA:284,1
DA:285,1
DA:286,20
DA:287,1
DA:289,1
DA:290,1
DA:291,1
DA:292,1
DA:293,1
DA:296,1
DA:297,1
DA:298,1
DA:300,1
DA:301,1
DA:302,5
DA:303,5
DA:304,5
DA:305,5
DA:306,5
DA:307,5
DA:308,5
DA:309,10
DA:310,1
DA:312,1
DA:313,1
DA:316,1
DA:317,1
DA:318,1
DA:320,1
DA:321,1
DA:322,5
DA:323,5
DA:324,2
DA:325,2
DA:326,2
DA:327,2
DA:328,2
DA:329,2
DA:331,3
DA:333,10
DA:334,1
DA:337,1
DA:338,1
DA:341,1
DA:342,1
DA:343,1
DA:344,1
DA:345,1
DA:346,1
DA:348,1
DA:349,1
DA:351,1
DA:352,20
DA:353,20
DA:354,20
DA:355,40
DA:356,1
DA:358,1
DA:360,1
DA:364,1
DA:365,1
DA:368,1
DA:375,3
DA:376,1
DA:377,1
DA:378,1
DA:379,1
BRF:0
BRH:0
LF:305
LH:271
end_of_record
SF:/mnt/f/Node/hivellm/vectorizer/src/batch/processor.rs
FN:154,_RNvMNtNtCs1YuMAXYbbDa_10vectorizer5batch9processorNtB2_14BatchProcessor12batch_delete
FN:58,_RNvMNtNtCs1YuMAXYbbDa_10vectorizer5batch9processorNtB2_14BatchProcessor12batch_insert
FN:192,_RNvMNtNtCs1YuMAXYbbDa_10vectorizer5batch9processorNtB2_14BatchProcessor12batch_search
FN:116,_RNvMNtNtCs1YuMAXYbbDa_10vectorizer5batch9processorNtB2_14BatchProcessor12batch_update
FN:564,_RNvMNtNtCs1YuMAXYbbDa_10vectorizer5batch9processorNtB2_14BatchProcessor17execute_operation
FN:46,_RNvMNtNtCs1YuMAXYbbDa_10vectorizer5batch9processorNtB2_14BatchProcessor18register_operation
FN:277,_RNvMNtNtCs1YuMAXYbbDa_10vectorizer5batch9processorNtB2_14BatchProcessor19batch_delete_atomic
FN:231,_RNvMNtNtCs1YuMAXYbbDa_10vectorizer5batch9processorNtB2_14BatchProcessor19batch_insert_atomic
FN:303,_RNvMNtNtCs1YuMAXYbbDa_10vectorizer5batch9processorNtB2_14BatchProcessor19batch_search_atomic
FN:251,_RNvMNtNtCs1YuMAXYbbDa_10vectorizer5batch9processorNtB2_14BatchProcessor19batch_update_atomic
FN:52,_RNvMNtNtCs1YuMAXYbbDa_10vectorizer5batch9processorNtB2_14BatchProcessor20unregister_operation
FN:637,_RNvMNtNtCs1YuMAXYbbDa_10vectorizer5batch9processorNtB2_14BatchProcessor21get_active_operations
FN:425,_RNvMNtNtCs1YuMAXYbbDa_10vectorizer5batch9processorNtB2_14BatchProcessor23batch_delete_non_atomic
FN:339,_RNvMNtNtCs1YuMAXYbbDa_10vectorizer5batch9processorNtB2_14BatchProcessor23batch_insert_non_atomic
FN:468,_RNvMNtNtCs1YuMAXYbbDa_10vectorizer5batch9processorNtB2_14BatchProcessor23batch_search_non_atomic
FN:382,_RNvMNtNtCs1YuMAXYbbDa_10vectorizer5batch9processorNtB2_14BatchProcessor23batch_update_non_atomic
FN:520,_RNvMNtNtCs1YuMAXYbbDa_10vectorizer5batch9processorNtB2_14BatchProcessor27update_single_vector_static
FN:543,_RNvMNtNtCs1YuMAXYbbDa_10vectorizer5batch9processorNtB2_14BatchProcessor28execute_single_search_static
FN:32,_RNvMNtNtCs1YuMAXYbbDa_10vectorizer5batch9processorNtB2_14BatchProcessor3new
FN:576,_RNCNCNvMNtNtCs1YuMAXYbbDa_10vectorizer5batch9processorNtB6_14BatchProcessor17execute_operation00Ba_
FN:568,_RNCNvMNtNtCs1YuMAXYbbDa_10vectorizer5batch9processorNtB4_14BatchProcessor17execute_operation0B8_
FN:637,_RNCNvMNtNtCs1YuMAXYbbDa_10vectorizer5batch9processorNtB4_14BatchProcessor21get_active_operations0B8_
FN:159,_RNCNvMNtNtCs1YuMAXYbbDa_10vectorizer5batch9processorNtB4_14BatchProcessor12batch_delete0B8_
FN:64,_RNCNvMNtNtCs1YuMAXYbbDa_10vectorizer5batch9processorNtB4_14BatchProcessor12batch_insert0B8_
FN:197,_RNCNvMNtNtCs1YuMAXYbbDa_10vectorizer5batch9processorNtB4_14BatchProcessor12batch_search0B8_
FN:121,_RNCNvMNtNtCs1YuMAXYbbDa_10vectorizer5batch9processorNtB4_14BatchProcessor12batch_update0B8_
FN:46,_RNCNvMNtNtCs1YuMAXYbbDa_10vectorizer5batch9processorNtB4_14BatchProcessor18register_operation0B8_
FN:282,_RNCNvMNtNtCs1YuMAXYbbDa_10vectorizer5batch9processorNtB4_14BatchProcessor19batch_delete_atomic0B8_
FN:236,_RNCNvMNtNtCs1YuMAXYbbDa_10vectorizer5batch9processorNtB4_14BatchProcessor19batch_insert_atomic0B8_
FN:308,_RNCNvMNtNtCs1YuMAXYbbDa_10vectorizer5batch9processorNtB4_14BatchProcessor19batch_search_atomic0B8_
FN:256,_RNCNvMNtNtCs1YuMAXYbbDa_10vectorizer5batch9processorNtB4_14BatchProcessor19batch_update_atomic0B8_
FN:52,_RNCNvMNtNtCs1YuMAXYbbDa_10vectorizer5batch9processorNtB4_14BatchProcessor20unregister_operation0B8_
FN:430,_RNCNvMNtNtCs1YuMAXYbbDa_10vectorizer5batch9processorNtB4_14BatchProcessor23batch_delete_non_atomic0B8_
FN:344,_RNCNvMNtNtCs1YuMAXYbbDa_10vectorizer5batch9processorNtB4_14BatchProcessor23batch_insert_non_atomic0B8_
FN:473,_RNCNvMNtNtCs1YuMAXYbbDa_10vectorizer5batch9processorNtB4_14BatchProcessor23batch_search_non_atomic0B8_
FN:387,_RNCNvMNtNtCs1YuMAXYbbDa_10vectorizer5batch9processorNtB4_14BatchProcessor23batch_update_non_atomic0B8_
FN:534,_RNCNvMNtNtCs1YuMAXYbbDa_10vectorizer5batch9processorNtB4_14BatchProcessor27update_single_vector_static0B8_
FN:548,_RNCNvMNtNtCs1YuMAXYbbDa_10vectorizer5batch9processorNtB4_14BatchProcessor28execute_single_search_static0B8_
FN:159,_RNCNvMNtNtCs4Tkd3OJeaSh_10vectorizer5batch9processorNtB4_14BatchProcessor12batch_delete0B8_
FN:64,_RNCNvMNtNtCs4Tkd3OJeaSh_10vectorizer5batch9processorNtB4_14BatchProcessor12batch_insert0B8_
FN:197,_RNCNvMNtNtCs4Tkd3OJeaSh_10vectorizer5batch9processorNtB4_14BatchProcessor12batch_search0B8_
FN:121,_RNCNvMNtNtCs4Tkd3OJeaSh_10vectorizer5batch9processorNtB4_14BatchProcessor12batch_update0B8_
FN:46,_RNCNvMNtNtCs4Tkd3OJeaSh_10vectorizer5batch9processorNtB4_14BatchProcessor18register_operation0B8_
FN:282,_RNCNvMNtNtCs4Tkd3OJeaSh_10vectorizer5batch9processorNtB4_14BatchProcessor19batch_delete_atomic0B8_
FN:236,_RNCNvMNtNtCs4Tkd3OJeaSh_10vectorizer5batch9processorNtB4_14BatchProcessor19batch_insert_atomic0B8_
FN:308,_RNCNvMNtNtCs4Tkd3OJeaSh_10vectorizer5batch9processorNtB4_14BatchProcessor19batch_search_atomic0B8_
FN:256,_RNCNvMNtNtCs4Tkd3OJeaSh_10vectorizer5batch9processorNtB4_14BatchProcessor19batch_update_atomic0B8_
FN:52,_RNCNvMNtNtCs4Tkd3OJeaSh_10vectorizer5batch9processorNtB4_14BatchProcessor20unregister_operation0B8_
FN:430,_RNCNvMNtNtCs4Tkd3OJeaSh_10vectorizer5batch9processorNtB4_14BatchProcessor23batch_delete_non_atomic0B8_
FN:344,_RNCNvMNtNtCs4Tkd3OJeaSh_10vectorizer5batch9processorNtB4_14BatchProcessor23batch_insert_non_atomic0B8_
FN:473,_RNCNvMNtNtCs4Tkd3OJeaSh_10vectorizer5batch9processorNtB4_14BatchProcessor23batch_search_non_atomic0B8_
FN:387,_RNCNvMNtNtCs4Tkd3OJeaSh_10vectorizer5batch9processorNtB4_14BatchProcessor23batch_update_non_atomic0B8_
FN:534,_RNCNvMNtNtCs4Tkd3OJeaSh_10vectorizer5batch9processorNtB4_14BatchProcessor27update_single_vector_static0B8_
FN:548,_RNCNvMNtNtCs4Tkd3OJeaSh_10vectorizer5batch9processorNtB4_14BatchProcessor28execute_single_search_static0B8_
FN:576,_RNCNCNvMNtNtCs4Tkd3OJeaSh_10vectorizer5batch9processorNtB6_14BatchProcessor17execute_operation00Ba_
FN:568,_RNCNvMNtNtCs4Tkd3OJeaSh_10vectorizer5batch9processorNtB4_14BatchProcessor17execute_operation0B8_
FN:637,_RNCNvMNtNtCs4Tkd3OJeaSh_10vectorizer5batch9processorNtB4_14BatchProcessor21get_active_operations0B8_
FN:564,_RNvMNtNtCs4Tkd3OJeaSh_10vectorizer5batch9processorNtB2_14BatchProcessor17execute_operation
FN:637,_RNvMNtNtCs4Tkd3OJeaSh_10vectorizer5batch9processorNtB2_14BatchProcessor21get_active_operations
FN:841,_RNCNvNtNtNtCs4Tkd3OJeaSh_10vectorizer5batch9processor5testss_28test_batch_config_validation0B9_
FN:827,_RNCNvNtNtNtCs4Tkd3OJeaSh_10vectorizer5batch9processor5testss_28test_batch_operation_timeout0B9_
FN:657,_RNCNvNtNtNtCs4Tkd3OJeaSh_10vectorizer5batch9processor5testss_29test_batch_processor_creation0B9_
FN:741,_RNCNvNtNtNtCs4Tkd3OJeaSh_10vectorizer5batch9processor5testss_30test_batch_delete_invalid_size0B9_
FN:681,_RNCNvNtNtNtCs4Tkd3OJeaSh_10vectorizer5batch9processor5testss_30test_batch_insert_invalid_size0B9_
FN:796,_RNCNvNtNtNtCs4Tkd3OJeaSh_10vectorizer5batch9processor5testss_30test_batch_insert_memory_limit0B9_
FN:764,_RNCNvNtNtNtCs4Tkd3OJeaSh_10vectorizer5batch9processor5testss_30test_batch_search_invalid_size0B9_
FN:711,_RNCNvNtNtNtCs4Tkd3OJeaSh_10vectorizer5batch9processor5testss_30test_batch_update_invalid_size0B9_
FN:664,_RNCNvNtNtNtCs4Tkd3OJeaSh_10vectorizer5batch9processor5testss_38test_register_and_unregister_operation0B9_
FN:154,_RNvMNtNtCs4Tkd3OJeaSh_10vectorizer5batch9processorNtB2_14BatchProcessor12batch_delete
FN:58,_RNvMNtNtCs4Tkd3OJeaSh_10vectorizer5batch9processorNtB2_14BatchProcessor12batch_insert
FN:192,_RNvMNtNtCs4Tkd3OJeaSh_10vectorizer5batch9processorNtB2_14BatchProcessor12batch_search
FN:116,_RNvMNtNtCs4Tkd3OJeaSh_10vectorizer5batch9processorNtB2_14BatchProcessor12batch_update
FN:46,_RNvMNtNtCs4Tkd3OJeaSh_10vectorizer5batch9processorNtB2_14BatchProcessor18register_operation
FN:277,_RNvMNtNtCs4Tkd3OJeaSh_10vectorizer5batch9processorNtB2_14BatchProcessor19batch_delete_atomic
FN:231,_RNvMNtNtCs4Tkd3OJeaSh_10vectorizer5batch9processorNtB2_14BatchProcessor19batch_insert_atomic
FN:303,_RNvMNtNtCs4Tkd3OJeaSh_10vectorizer5batch9processorNtB2_14BatchProcessor19batch_search_atomic
FN:251,_RNvMNtNtCs4Tkd3OJeaSh_10vectorizer5batch9processorNtB2_14BatchProcessor19batch_update_atomic
FN:52,_RNvMNtNtCs4Tkd3OJeaSh_10vectorizer5batch9processorNtB2_14BatchProcessor20unregister_operation
FN:425,_RNvMNtNtCs4Tkd3OJeaSh_10vectorizer5batch9processorNtB2_14BatchProcessor23batch_delete_non_atomic
FN:339,_RNvMNtNtCs4Tkd3OJeaSh_10vectorizer5batch9processorNtB2_14BatchProcessor23batch_insert_non_atomic
FN:468,_RNvMNtNtCs4Tkd3OJeaSh_10vectorizer5batch9processorNtB2_14BatchProcessor23batch_search_non_atomic
FN:382,_RNvMNtNtCs4Tkd3OJeaSh_10vectorizer5batch9processorNtB2_14BatchProcessor23batch_update_non_atomic
FN:520,_RNvMNtNtCs4Tkd3OJeaSh_10vectorizer5batch9processorNtB2_14BatchProcessor27update_single_vector_static
FN:543,_RNvMNtNtCs4Tkd3OJeaSh_10vectorizer5batch9processorNtB2_14BatchProcessor28execute_single_search_static
FN:32,_RNvMNtNtCs4Tkd3OJeaSh_10vectorizer5batch9processorNtB2_14BatchProcessor3new
FN:648,_RNvNtNtNtCs4Tkd3OJeaSh_10vectorizer5batch9processor5tests21create_test_processor
FN:841,_RNvNtNtNtCs4Tkd3OJeaSh_10vectorizer5batch9processor5testss_28test_batch_config_validation
FN:827,_RNvNtNtNtCs4Tkd3OJeaSh_10vectorizer5batch9processor5testss_28test_batch_operation_timeout
FN:657,_RNvNtNtNtCs4Tkd3OJeaSh_10vectorizer5batch9processor5testss_29test_batch_processor_creation
FN:741,_RNvNtNtNtCs4Tkd3OJeaSh_10vectorizer5batch9processor5testss_30test_batch_delete_invalid_size
FN:681,_RNvNtNtNtCs4Tkd3OJeaSh_10vectorizer5batch9processor5testss_30test_batch_insert_invalid_size
FN:796,_RNvNtNtNtCs4Tkd3OJeaSh_10vectorizer5batch9processor5testss_30test_batch_insert_memory_limit
FN:764,_RNvNtNtNtCs4Tkd3OJeaSh_10vectorizer5batch9processor5testss_30test_batch_search_invalid_size
FN:711,_RNvNtNtNtCs4Tkd3OJeaSh_10vectorizer5batch9processor5testss_30test_batch_update_invalid_size
FN:664,_RNvNtNtNtCs4Tkd3OJeaSh_10vectorizer5batch9processor5testss_38test_register_and_unregister_operation
FNDA:0,_RNvMNtNtCs1YuMAXYbbDa_10vectorizer5batch9processorNtB2_14BatchProcessor12batch_delete
FNDA:0,_RNvMNtNtCs1YuMAXYbbDa_10vectorizer5batch9processorNtB2_14BatchProcessor12batch_insert
FNDA:0,_RNvMNtNtCs1YuMAXYbbDa_10vectorizer5batch9processorNtB2_14BatchProcessor12batch_search
FNDA:0,_RNvMNtNtCs1YuMAXYbbDa_10vectorizer5batch9processorNtB2_14BatchProcessor12batch_update
FNDA:0,_RNvMNtNtCs1YuMAXYbbDa_10vectorizer5batch9processorNtB2_14BatchProcessor17execute_operation
FNDA:0,_RNvMNtNtCs1YuMAXYbbDa_10vectorizer5batch9processorNtB2_14BatchProcessor18register_operation
FNDA:0,_RNvMNtNtCs1YuMAXYbbDa_10vectorizer5batch9processorNtB2_14BatchProcessor19batch_delete_atomic
FNDA:0,_RNvMNtNtCs1YuMAXYbbDa_10vectorizer5batch9processorNtB2_14BatchProcessor19batch_insert_atomic
FNDA:0,_RNvMNtNtCs1YuMAXYbbDa_10vectorizer5batch9processorNtB2_14BatchProcessor19batch_search_atomic
FNDA:0,_RNvMNtNtCs1YuMAXYbbDa_10vectorizer5batch9processorNtB2_14BatchProcessor19batch_update_atomic
FNDA:0,_RNvMNtNtCs1YuMAXYbbDa_10vectorizer5batch9processorNtB2_14BatchProcessor20unregister_operation
FNDA:0,_RNvMNtNtCs1YuMAXYbbDa_10vectorizer5batch9processorNtB2_14BatchProcessor21get_active_operations
FNDA:0,_RNvMNtNtCs1YuMAXYbbDa_10vectorizer5batch9processorNtB2_14BatchProcessor23batch_delete_non_atomic
FNDA:0,_RNvMNtNtCs1YuMAXYbbDa_10vectorizer5batch9processorNtB2_14BatchProcessor23batch_insert_non_atomic
FNDA:0,_RNvMNtNtCs1YuMAXYbbDa_10vectorizer5batch9processorNtB2_14BatchProcessor23batch_search_non_atomic
FNDA:0,_RNvMNtNtCs1YuMAXYbbDa_10vectorizer5batch9processorNtB2_14BatchProcessor23batch_update_non_atomic
FNDA:0,_RNvMNtNtCs1YuMAXYbbDa_10vectorizer5batch9processorNtB2_14BatchProcessor27update_single_vector_static
FNDA:0,_RNvMNtNtCs1YuMAXYbbDa_10vectorizer5batch9processorNtB2_14BatchProcessor28execute_single_search_static
FNDA:0,_RNvMNtNtCs1YuMAXYbbDa_10vectorizer5batch9processorNtB2_14BatchProcessor3new
FNDA:0,_RNCNCNvMNtNtCs1YuMAXYbbDa_10vectorizer5batch9processorNtB6_14BatchProcessor17execute_operation00Ba_
FNDA:0,_RNCNvMNtNtCs1YuMAXYbbDa_10vectorizer5batch9processorNtB4_14BatchProcessor17execute_operation0B8_
FNDA:0,_RNCNvMNtNtCs1YuMAXYbbDa_10vectorizer5batch9processorNtB4_14BatchProcessor21get_active_operations0B8_
FNDA:0,_RNCNvMNtNtCs1YuMAXYbbDa_10vectorizer5batch9processorNtB4_14BatchProcessor12batch_delete0B8_
FNDA:0,_RNCNvMNtNtCs1YuMAXYbbDa_10vectorizer5batch9processorNtB4_14BatchProcessor12batch_insert0B8_
FNDA:0,_RNCNvMNtNtCs1YuMAXYbbDa_10vectorizer5batch9processorNtB4_14BatchProcessor12batch_search0B8_
FNDA:0,_RNCNvMNtNtCs1YuMAXYbbDa_10vectorizer5batch9processorNtB4_14BatchProcessor12batch_update0B8_
FNDA:0,_RNCNvMNtNtCs1YuMAXYbbDa_10vectorizer5batch9processorNtB4_14BatchProcessor18register_operation0B8_
FNDA:0,_RNCNvMNtNtCs1YuMAXYbbDa_10vectorizer5batch9processorNtB4_14BatchProcessor19batch_delete_atomic0B8_
FNDA:0,_RNCNvMNtNtCs1YuMAXYbbDa_10vectorizer5batch9processorNtB4_14BatchProcessor19batch_insert_atomic0B8_
FNDA:0,_RNCNvMNtNtCs1YuMAXYbbDa_10vectorizer5batch9processorNtB4_14BatchProcessor19batch_search_atomic0B8_
FNDA:0,_RNCNvMNtNtCs1YuMAXYbbDa_10vectorizer5batch9processorNtB4_14BatchProcessor19batch_update_atomic0B8_
FNDA:0,_RNCNvMNtNtCs1YuMAXYbbDa_10vectorizer5batch9processorNtB4_14BatchProcessor20unregister_operation0B8_
FNDA:0,_RNCNvMNtNtCs1YuMAXYbbDa_10vectorizer5batch9processorNtB4_14BatchProcessor23batch_delete_non_atomic0B8_
FNDA:0,_RNCNvMNtNtCs1YuMAXYbbDa_10vectorizer5batch9processorNtB4_14BatchProcessor23batch_insert_non_atomic0B8_
FNDA:0,_RNCNvMNtNtCs1YuMAXYbbDa_10vectorizer5batch9processorNtB4_14BatchProcessor23batch_search_non_atomic0B8_
FNDA:0,_RNCNvMNtNtCs1YuMAXYbbDa_10vectorizer5batch9processorNtB4_14BatchProcessor23batch_update_non_atomic0B8_
FNDA:0,_RNCNvMNtNtCs1YuMAXYbbDa_10vectorizer5batch9processorNtB4_14BatchProcessor27update_single_vector_static0B8_
FNDA:0,_RNCNvMNtNtCs1YuMAXYbbDa_10vectorizer5batch9processorNtB4_14BatchProcessor28execute_single_search_static0B8_
FNDA:1,_RNCNvMNtNtCs4Tkd3OJeaSh_10vectorizer5batch9processorNtB4_14BatchProcessor12batch_delete0B8_
FNDA:2,_RNCNvMNtNtCs4Tkd3OJeaSh_10vectorizer5batch9processorNtB4_14BatchProcessor12batch_insert0B8_
FNDA:1,_RNCNvMNtNtCs4Tkd3OJeaSh_10vectorizer5batch9processorNtB4_14BatchProcessor12batch_search0B8_
FNDA:1,_RNCNvMNtNtCs4Tkd3OJeaSh_10vectorizer5batch9processorNtB4_14BatchProcessor12batch_update0B8_
FNDA:6,_RNCNvMNtNtCs4Tkd3OJeaSh_10vectorizer5batch9processorNtB4_14BatchProcessor18register_operation0B8_
FNDA:0,_RNCNvMNtNtCs4Tkd3OJeaSh_10vectorizer5batch9processorNtB4_14BatchProcessor19batch_delete_atomic0B8_
FNDA:0,_RNCNvMNtNtCs4Tkd3OJeaSh_10vectorizer5batch9processorNtB4_14BatchProcessor19batch_insert_atomic0B8_
FNDA:0,_RNCNvMNtNtCs4Tkd3OJeaSh_10vectorizer5batch9processorNtB4_14BatchProcessor19batch_search_atomic0B8_
FNDA:0,_RNCNvMNtNtCs4Tkd3OJeaSh_10vectorizer5batch9processorNtB4_14BatchProcessor19batch_update_atomic0B8_
FNDA:6,_RNCNvMNtNtCs4Tkd3OJeaSh_10vectorizer5batch9processorNtB4_14BatchProcessor20unregister_operation0B8_
FNDA:0,_RNCNvMNtNtCs4Tkd3OJeaSh_10vectorizer5batch9processorNtB4_14BatchProcessor23batch_delete_non_atomic0B8_
FNDA:0,_RNCNvMNtNtCs4Tkd3OJeaSh_10vectorizer5batch9processorNtB4_14BatchProcessor23batch_insert_non_atomic0B8_
FNDA:0,_RNCNvMNtNtCs4Tkd3OJeaSh_10vectorizer5batch9processorNtB4_14BatchProcessor23batch_search_non_atomic0B8_
FNDA:0,_RNCNvMNtNtCs4Tkd3OJeaSh_10vectorizer5batch9processorNtB4_14BatchProcessor23batch_update_non_atomic0B8_
FNDA:0,_RNCNvMNtNtCs4Tkd3OJeaSh_10vectorizer5batch9processorNtB4_14BatchProcessor27update_single_vector_static0B8_
FNDA:0,_RNCNvMNtNtCs4Tkd3OJeaSh_10vectorizer5batch9processorNtB4_14BatchProcessor28execute_single_search_static0B8_
FNDA:0,_RNCNCNvMNtNtCs4Tkd3OJeaSh_10vectorizer5batch9processorNtB6_14BatchProcessor17execute_operation00Ba_
FNDA:0,_RNCNvMNtNtCs4Tkd3OJeaSh_10vectorizer5batch9processorNtB4_14BatchProcessor17execute_operation0B8_
FNDA:0,_RNCNvMNtNtCs4Tkd3OJeaSh_10vectorizer5batch9processorNtB4_14BatchProcessor21get_active_operations0B8_
FNDA:0,_RNvMNtNtCs4Tkd3OJeaSh_10vectorizer5batch9processorNtB2_14BatchProcessor17execute_operation
FNDA:0,_RNvMNtNtCs4Tkd3OJeaSh_10vectorizer5batch9processorNtB2_14BatchProcessor21get_active_operations
FNDA:1,_RNCNvNtNtNtCs4Tkd3OJeaSh_10vectorizer5batch9processor5testss_28test_batch_config_validation0B9_
FNDA:1,_RNCNvNtNtNtCs4Tkd3OJeaSh_10vectorizer5batch9processor5testss_28test_batch_operation_timeout0B9_
FNDA:1,_RNCNvNtNtNtCs4Tkd3OJeaSh_10vectorizer5batch9processor5testss_29test_batch_processor_creation0B9_
FNDA:1,_RNCNvNtNtNtCs4Tkd3OJeaSh_10vectorizer5batch9processor5testss_30test_batch_delete_invalid_size0B9_
FNDA:1,_RNCNvNtNtNtCs4Tkd3OJeaSh_10vectorizer5batch9processor5testss_30test_batch_insert_invalid_size0B9_
FNDA:1,_RNCNvNtNtNtCs4Tkd3OJeaSh_10vectorizer5batch9processor5testss_30test_batch_insert_memory_limit0B9_
FNDA:1,_RNCNvNtNtNtCs4Tkd3OJeaSh_10vectorizer5batch9processor5testss_30test_batch_search_invalid_size0B9_
FNDA:1,_RNCNvNtNtNtCs4Tkd3OJeaSh_10vectorizer5batch9processor5testss_30test_batch_update_invalid_size0B9_
FNDA:1,_RNCNvNtNtNtCs4Tkd3OJeaSh_10vectorizer5batch9processor5testss_38test_register_and_unregister_operation0B9_
FNDA:1,_RNvMNtNtCs4Tkd3OJeaSh_10vectorizer5batch9processorNtB2_14BatchProcessor12batch_delete
FNDA:2,_RNvMNtNtCs4Tkd3OJeaSh_10vectorizer5batch9processorNtB2_14BatchProcessor12batch_insert
FNDA:1,_RNvMNtNtCs4Tkd3OJeaSh_10vectorizer5batch9processorNtB2_14BatchProcessor12batch_search
FNDA:1,_RNvMNtNtCs4Tkd3OJeaSh_10vectorizer5batch9processorNtB2_14BatchProcessor12batch_update
FNDA:6,_RNvMNtNtCs4Tkd3OJeaSh_10vectorizer5batch9processorNtB2_14BatchProcessor18register_operation
FNDA:0,_RNvMNtNtCs4Tkd3OJeaSh_10vectorizer5batch9processorNtB2_14BatchProcessor19batch_delete_atomic
FNDA:0,_RNvMNtNtCs4Tkd3OJeaSh_10vectorizer5batch9processorNtB2_14BatchProcessor19batch_insert_atomic
FNDA:0,_RNvMNtNtCs4Tkd3OJeaSh_10vectorizer5batch9processorNtB2_14BatchProcessor19batch_search_atomic
FNDA:0,_RNvMNtNtCs4Tkd3OJeaSh_10vectorizer5batch9processorNtB2_14BatchProcessor19batch_update_atomic
FNDA:6,_RNvMNtNtCs4Tkd3OJeaSh_10vectorizer5batch9processorNtB2_14BatchProcessor20unregister_operation
FNDA:0,_RNvMNtNtCs4Tkd3OJeaSh_10vectorizer5batch9processorNtB2_14BatchProcessor23batch_delete_non_atomic
FNDA:0,_RNvMNtNtCs4Tkd3OJeaSh_10vectorizer5batch9processorNtB2_14BatchProcessor23batch_insert_non_atomic
FNDA:0,_RNvMNtNtCs4Tkd3OJeaSh_10vectorizer5batch9processorNtB2_14BatchProcessor23batch_search_non_atomic
FNDA:0,_RNvMNtNtCs4Tkd3OJeaSh_10vectorizer5batch9processorNtB2_14BatchProcessor23batch_update_non_atomic
FNDA:0,_RNvMNtNtCs4Tkd3OJeaSh_10vectorizer5batch9processorNtB2_14BatchProcessor27update_single_vector_static
FNDA:0,_RNvMNtNtCs4Tkd3OJeaSh_10vectorizer5batch9processorNtB2_14BatchProcessor28execute_single_search_static
FNDA:10,_RNvMNtNtCs4Tkd3OJeaSh_10vectorizer5batch9processorNtB2_14BatchProcessor3new
FNDA:2,_RNvNtNtNtCs4Tkd3OJeaSh_10vectorizer5batch9processor5tests21create_test_processor
FNDA:1,_RNvNtNtNtCs4Tkd3OJeaSh_10vectorizer5batch9processor5testss_28test_batch_config_validation
FNDA:1,_RNvNtNtNtCs4Tkd3OJeaSh_10vectorizer5batch9processor5testss_28test_batch_operation_timeout
FNDA:1,_RNvNtNtNtCs4Tkd3OJeaSh_10vectorizer5batch9processor5testss_29test_batch_processor_creation
FNDA:1,_RNvNtNtNtCs4Tkd3OJeaSh_10vectorizer5batch9processor5testss_30test_batch_delete_invalid_size
FNDA:1,_RNvNtNtNtCs4Tkd3OJeaSh_10vectorizer5batch9processor5testss_30test_batch_insert_invalid_size
FNDA:1,_RNvNtNtNtCs4Tkd3OJeaSh_10vectorizer5batch9processor5testss_30test_batch_insert_memory_limit
FNDA:1,_RNvNtNtNtCs4Tkd3OJeaSh_10vectorizer5batch9processor5testss_30test_batch_search_invalid_size
FNDA:1,_RNvNtNtNtCs4Tkd3OJeaSh_10vectorizer5batch9processor5testss_30test_batch_update_invalid_size
FNDA:1,_RNvNtNtNtCs4Tkd3OJeaSh_10vectorizer5batch9processor5testss_38test_register_and_unregister_operation
FNF:57
FNH:32
DA:32,10
DA:33,10
DA:34,10
DA:35,10
DA:36,10
DA:37,10
DA:38,10
DA:39,10
DA:40,10
DA:41,10
DA:42,10
DA:43,10
DA:46,6
DA:47,6
DA:48,6
DA:49,6
DA:52,6
DA:53,6
DA:54,6
DA:55,6
DA:58,2
DA:59,2
DA:60,2
DA:61,2
DA:62,2
DA:63,2
DA:64,2
DA:65,2
DA:66,2
DA:69,2
DA:70,1
DA:71,1
DA:72,1
DA:73,1
DA:74,1
DA:75,1
DA:76,1
DA:78,1
DA:80,1
DA:81,1
DA:82,1
DA:85,1
DA:86,1
DA:87,1
DA:89,1
DA:90,1
DA:91,1
DA:92,1
DA:93,1
DA:94,1
DA:95,1
DA:97,1
DA:99,1
DA:100,1
DA:101,0
DA:103,0
DA:104,0
DA:105,0
DA:107,0
DA:108,0
DA:111,0
DA:112,0
DA:113,2
DA:116,1
DA:117,1
DA:118,1
DA:119,1
DA:120,1
DA:121,1
DA:122,1
DA:123,1
DA:126,1
DA:127,1
DA:128,1
DA:129,1
DA:130,1
DA:131,1
DA:132,1
DA:133,1
DA:135,1
DA:137,1
DA:138,1
DA:139,0
DA:141,0
DA:142,0
DA:143,0
DA:145,0
DA:146,0
DA:149,0
DA:150,0
DA:151,1
DA:154,1
DA:155,1
DA:156,1
DA:157,1
DA:158,1
DA:159,1
DA:160,1
DA:161,1
DA:164,1
DA:165,1
DA:166,1
DA:167,1
DA:168,1
DA:169,1
DA:170,1
DA:171,1
DA:173,1
DA:175,1
DA:176,1
DA:177,0
DA:179,0
DA:180,0
DA:181,0
DA:183,0
DA:184,0
DA:187,0
DA:188,0
DA:189,1
DA:192,1
DA:193,1
DA:194,1
DA:195,1
DA:196,1
DA:197,1
DA:198,1
DA:199,1
DA:202,1
DA:203,1
DA:204,1
DA:205,1
DA:206,1
DA:207,1
DA:208,1
DA:209,1
DA:211,1
DA:213,1
DA:214,1
DA:215,0
DA:217,0
DA:218,0
DA:219,0
DA:221,0
DA:222,0
DA:225,0
DA:226,0
DA:227,1
DA:231,0
DA:232,0
DA:233,0
DA:234,0
DA:235,0
DA:236,0
DA:237,0
DA:240,0
DA:241,0
DA:242,0
DA:243,0
DA:244,0
DA:245,0
DA:246,0
DA:247,0
DA:249,0
DA:251,0
DA:252,0
DA:253,0
DA:254,0
DA:255,0
DA:256,0
DA:257,0
DA:258,0
DA:260,0
DA:261,0
DA:262,0
DA:263,0
DA:264,0
DA:265,0
DA:266,0
DA:267,0
DA:268,0
DA:269,0
DA:274,0
DA:275,0
DA:277,0
DA:278,0
DA:279,0
DA:280,0
DA:281,0
DA:282,0
DA:283,0
DA:284,0
DA:286,0
DA:287,0
DA:288,0
DA:289,0
DA:290,0
DA:291,0
DA:292,0
DA:293,0
DA:294,0
DA:295,0
DA:300,0
DA:301,0
DA:303,0
DA:304,0
DA:305,0
DA:306,0
DA:307,0
DA:308,0
DA:309,0
DA:310,0
DA:311,0
DA:313,0
DA:314,0
DA:315,0
DA:316,0
DA:317,0
DA:318,0
DA:320,0
DA:322,0
DA:323,0
DA:324,0
DA:325,0
DA:326,0
DA:327,0
DA:328,0
DA:329,0
DA:334,0
DA:335,0
DA:339,0
DA:340,0
DA:341,0
DA:342,0
DA:343,0
DA:344,0
DA:345,0
DA:346,0
DA:347,0
DA:349,0
DA:350,0
DA:351,0
DA:352,0
DA:353,0
DA:354,0
DA:355,0
DA:356,0
DA:357,0
DA:358,0
DA:359,0
DA:363,0
DA:364,0
DA:365,0
DA:366,0
DA:367,0
DA:368,0
DA:369,0
DA:370,0
DA:371,0
DA:373,0
DA:374,0
DA:375,0
DA:376,0
DA:377,0
DA:378,0
DA:380,0
DA:382,0
DA:383,0
DA:384,0
DA:385,0
DA:386,0
DA:387,0
DA:388,0
DA:389,0
DA:390,0
DA:392,0
DA:393,0
DA:394,0
DA:395,0
DA:396,0
DA:397,0
DA:398,0
DA:399,0
DA:400,0
DA:401,0
DA:402,0
DA:406,0
DA:407,0
DA:408,0
DA:409,0
DA:410,0
DA:411,0
DA:412,0
DA:413,0
DA:414,0
DA:416,0
DA:417,0
DA:418,0
DA:419,0
DA:420,0
DA:421,0
DA:423,0
DA:425,0
DA:426,0
DA:427,0
DA:428,0
DA:429,0
DA:430,0
DA:431,0
DA:432,0
DA:433,0
DA:435,0
DA:436,0
DA:437,0
DA:438,0
DA:439,0
DA:440,0
DA:441,0
DA:442,0
DA:443,0
DA:444,0
DA:445,0
DA:449,0
DA:450,0
DA:451,0
DA:452,0
DA:453,0
DA:454,0
DA:455,0
DA:456,0
DA:457,0
DA:459,0
DA:460,0
DA:461,0
DA:462,0
DA:463,0
DA:464,0
DA:466,0
DA:468,0
DA:469,0
DA:470,0
DA:471,0
DA:472,0
DA:473,0
DA:474,0
DA:475,0
DA:476,0
DA:477,0
DA:479,0
DA:480,0
DA:481,0
DA:482,0
DA:483,0
DA:484,0
DA:486,0
DA:488,0
DA:489,0
DA:490,0
DA:491,0
DA:492,0
DA:493,0
DA:494,0
DA:495,0
DA:496,0
DA:500,0
DA:501,0
DA:502,0
DA:503,0
DA:504,0
DA:505,0
DA:506,0
DA:507,0
DA:508,0
DA:510,0
DA:511,0
DA:512,0
DA:513,0
DA:514,0
DA:515,0
DA:517,0
DA:520,0
DA:521,0
DA:522,0
DA:523,0
DA:524,0
DA:525,0
DA:527,0
DA:528,0
DA:529,0
DA:530,0
DA:531,0
DA:532,0
DA:533,0
DA:534,0
DA:535,0
DA:536,0
DA:539,0
DA:540,0
DA:543,0
DA:544,0
DA:545,0
DA:546,0
DA:547,0
DA:548,0
DA:549,0
DA:550,0
DA:551,0
DA:552,0
DA:553,0
DA:555,0
DA:556,0
DA:557,0
DA:560,0
DA:561,0
DA:564,0
DA:565,0
DA:566,0
DA:567,0
DA:568,0
DA:571,0
DA:573,0
DA:574,0
DA:576,0
DA:577,0
DA:578,0
DA:579,0
DA:581,0
DA:582,0
DA:583,0
DA:584,0
DA:585,0
DA:586,0
DA:587,0
DA:589,0
DA:592,0
DA:593,0
DA:594,0
DA:595,0
DA:596,0
DA:597,0
DA:598,0
DA:599,0
DA:600,0
DA:602,0
DA:605,0
DA:606,0
DA:607,0
DA:608,0
DA:610,0
DA:611,0
DA:612,0
DA:613,0
DA:614,0
DA:615,0
DA:616,0
DA:618,0
DA:621,0
DA:622,0
DA:623,0
DA:624,0
DA:626,0
DA:627,0
DA:628,0
DA:630,0
DA:634,0
DA:637,0
DA:638,0
DA:639,0
DA:648,2
DA:649,2
DA:650,2
DA:651,2
DA:653,2
DA:654,2
DA:657,1
DA:658,1
DA:660,1
DA:661,1
DA:664,1
DA:665,1
DA:667,1
DA:669,1
DA:670,1
DA:673,1
DA:674,1
DA:675,1
DA:676,1
DA:677,1
DA:678,1
DA:681,1
DA:682,1
DA:683,1
DA:684,1
DA:685,1
DA:686,1
DA:687,1
DA:688,1
DA:691,1
DA:692,1
DA:693,1
DA:694,1
DA:695,1
DA:696,1
DA:700,1
DA:701,1
DA:702,1
DA:703,1
DA:705,1
DA:706,1
DA:707,1
DA:708,1
DA:711,1
DA:712,1
DA:713,1
DA:714,1
DA:715,1
DA:716,1
DA:717,1
DA:718,1
DA:721,1
DA:722,1
DA:723,1
DA:724,1
DA:725,1
DA:726,1
DA:730,1
DA:731,1
DA:732,1
DA:733,1
DA:735,1
DA:736,1
DA:737,1
DA:738,1
DA:741,1
DA:742,1
DA:743,1
DA:744,1
DA:745,1
DA:746,1
DA:747,1
DA:748,1
DA:751,1
DA:753,1
DA:754,1
DA:755,1
DA:756,1
DA:758,1
DA:759,1
DA:760,1
DA:761,1
DA:764,1
DA:765,1
DA:766,1
DA:767,1
DA:768,1
DA:769,1
DA:770,1
DA:771,1
DA:774,1
DA:775,1
DA:776,1
DA:777,1
DA:778,1
DA:779,1
DA:780,1
DA:781,1
DA:785,1
DA:786,1
DA:787,1
DA:788,1
DA:790,1
DA:791,1
DA:792,1
DA:793,1
DA:796,1
DA:797,1
DA:798,1
DA:799,1
DA:800,1
DA:801,1
DA:802,1
DA:803,1
DA:804,1
DA:807,1
DA:808,1
DA:809,1
DA:810,1
DA:811,1
DA:812,1
DA:816,1
DA:817,1
DA:818,1
DA:819,1
DA:821,1
DA:822,1
DA:823,1
DA:824,1
DA:827,1
DA:828,1
DA:829,1
DA:830,1
DA:831,1
DA:832,1
DA:833,1
DA:834,1
DA:837,1
DA:838,1
DA:841,1
DA:842,1
DA:843,1
DA:844,1
DA:845,1
DA:846,1
DA:849,1
DA:850,1
DA:853,1
DA:854,1
DA:857,1
DA:860,1
DA:861,1
BRF:0
BRH:0
LF:666
LH:297
end_of_record
SF:/mnt/f/Node/hivellm/vectorizer/src/batch/validation.rs
FN:271,_RNvMNtNtCs1YuMAXYbbDa_10vectorizer5batch10validationNtB2_14BatchValidator18validate_vector_id
FN:150,_RNvMNtNtCs1YuMAXYbbDa_10vectorizer5batch10validationNtB2_14BatchValidator19validate_batch_size
FN:412,_RNvMNtNtCs1YuMAXYbbDa_10vectorizer5batch10validationNtB2_14BatchValidator19validate_unique_ids
FN:175,_RNvMNtNtCs1YuMAXYbbDa_10vectorizer5batch10validationNtB2_14BatchValidator20validate_vector_data
FN:71,_RNvMNtNtCs1YuMAXYbbDa_10vectorizer5batch10validationNtB2_14BatchValidator21validate_batch_delete
FN:22,_RNvMNtNtCs1YuMAXYbbDa_10vectorizer5batch10validationNtB2_14BatchValidator21validate_batch_insert
FN:94,_RNvMNtNtCs1YuMAXYbbDa_10vectorizer5batch10validationNtB2_14BatchValidator21validate_batch_search
FN:48,_RNvMNtNtCs1YuMAXYbbDa_10vectorizer5batch10validationNtB2_14BatchValidator21validate_batch_update
FN:469,_RNvMNtNtCs1YuMAXYbbDa_10vectorizer5batch10validationNtB2_14BatchValidator21validate_memory_usage
FN:293,_RNvMNtNtCs1YuMAXYbbDa_10vectorizer5batch10validationNtB2_14BatchValidator21validate_search_query
FN:220,_RNvMNtNtCs1YuMAXYbbDa_10vectorizer5batch10validationNtB2_14BatchValidator22validate_vector_update
FN:115,_RNvMNtNtCs1YuMAXYbbDa_10vectorizer5batch10validationNtB2_14BatchValidator24validate_collection_name
FN:452,_RNvMNtNtCs1YuMAXYbbDa_10vectorizer5batch10validationNtB2_14BatchValidator26validate_unique_delete_ids
FN:432,_RNvMNtNtCs1YuMAXYbbDa_10vectorizer5batch10validationNtB2_14BatchValidator26validate_unique_update_ids
FN:17,_RNvMNtNtCs1YuMAXYbbDa_10vectorizer5batch10validationNtB2_14BatchValidator3new
FN:498,_RNvNtNtCs1YuMAXYbbDa_10vectorizer5batch10validation15validate_vector
FN:505,_RNvNtNtCs1YuMAXYbbDa_10vectorizer5batch10validation18validate_vector_id
FN:512,_RNvNtNtCs1YuMAXYbbDa_10vectorizer5batch10validation24validate_collection_name
FN:137,_RNCNvMNtNtCs1YuMAXYbbDa_10vectorizer5batch10validationNtB4_14BatchValidator24validate_collection_name0B8_
FN:71,_RNvMNtNtCs4Tkd3OJeaSh_10vectorizer5batch10validationNtB2_14BatchValidator21validate_batch_delete
FN:22,_RNvMNtNtCs4Tkd3OJeaSh_10vectorizer5batch10validationNtB2_14BatchValidator21validate_batch_insert
FN:94,_RNvMNtNtCs4Tkd3OJeaSh_10vectorizer5batch10validationNtB2_14BatchValidator21validate_batch_search
FN:48,_RNvMNtNtCs4Tkd3OJeaSh_10vectorizer5batch10validationNtB2_14BatchValidator21validate_batch_update
FN:469,_RNvMNtNtCs4Tkd3OJeaSh_10vectorizer5batch10validationNtB2_14BatchValidator21validate_memory_usage
FN:220,_RNvMNtNtCs4Tkd3OJeaSh_10vectorizer5batch10validationNtB2_14BatchValidator22validate_vector_update
FN:452,_RNvMNtNtCs4Tkd3OJeaSh_10vectorizer5batch10validationNtB2_14BatchValidator26validate_unique_delete_ids
FN:432,_RNvMNtNtCs4Tkd3OJeaSh_10vectorizer5batch10validationNtB2_14BatchValidator26validate_unique_update_ids
FN:137,_RNCNvMNtNtCs4Tkd3OJeaSh_10vectorizer5batch10validationNtB4_14BatchValidator24validate_collection_name0B8_
FN:271,_RNvMNtNtCs4Tkd3OJeaSh_10vectorizer5batch10validationNtB2_14BatchValidator18validate_vector_id
FN:150,_RNvMNtNtCs4Tkd3OJeaSh_10vectorizer5batch10validationNtB2_14BatchValidator19validate_batch_size
FN:412,_RNvMNtNtCs4Tkd3OJeaSh_10vectorizer5batch10validationNtB2_14BatchValidator19validate_unique_ids
FN:175,_RNvMNtNtCs4Tkd3OJeaSh_10vectorizer5batch10validationNtB2_14BatchValidator20validate_vector_data
FN:293,_RNvMNtNtCs4Tkd3OJeaSh_10vectorizer5batch10validationNtB2_14BatchValidator21validate_search_query
FN:115,_RNvMNtNtCs4Tkd3OJeaSh_10vectorizer5batch10validationNtB2_14BatchValidator24validate_collection_name
FN:17,_RNvMNtNtCs4Tkd3OJeaSh_10vectorizer5batch10validationNtB2_14BatchValidator3new
FN:498,_RNvNtNtCs4Tkd3OJeaSh_10vectorizer5batch10validation15validate_vector
FN:505,_RNvNtNtCs4Tkd3OJeaSh_10vectorizer5batch10validation18validate_vector_id
FN:512,_RNvNtNtCs4Tkd3OJeaSh_10vectorizer5batch10validation24validate_collection_name
FN:523,_RNvNtNtNtCs4Tkd3OJeaSh_10vectorizer5batch10validation5tests18create_test_vector
FN:575,_RNvNtNtNtCs4Tkd3OJeaSh_10vectorizer5batch10validation5testss_24test_validate_batch_size
FN:626,_RNvNtNtNtCs4Tkd3OJeaSh_10vectorizer5batch10validation5testss_24test_validate_unique_ids
FN:589,_RNvNtNtNtCs4Tkd3OJeaSh_10vectorizer5batch10validation5testss_25test_validate_vector_data
FN:647,_RNvNtNtNtCs4Tkd3OJeaSh_10vectorizer5batch10validation5testss_26test_validate_search_query
FN:544,_RNvNtNtNtCs4Tkd3OJeaSh_10vectorizer5batch10validation5testss_29test_validate_collection_name
FN:718,_RNvNtNtNtCs4Tkd3OJeaSh_10vectorizer5batch10validation5testss_31test_quick_validation_functions
FNDA:0,_RNvMNtNtCs1YuMAXYbbDa_10vectorizer5batch10validationNtB2_14BatchValidator18validate_vector_id
FNDA:0,_RNvMNtNtCs1YuMAXYbbDa_10vectorizer5batch10validationNtB2_14BatchValidator19validate_batch_size
FNDA:0,_RNvMNtNtCs1YuMAXYbbDa_10vectorizer5batch10validationNtB2_14BatchValidator19validate_unique_ids
FNDA:0,_RNvMNtNtCs1YuMAXYbbDa_10vectorizer5batch10validationNtB2_14BatchValidator20validate_vector_data
FNDA:0,_RNvMNtNtCs1YuMAXYbbDa_10vectorizer5batch10validationNtB2_14BatchValidator21validate_batch_delete
FNDA:0,_RNvMNtNtCs1YuMAXYbbDa_10vectorizer5batch10validationNtB2_14BatchValidator21validate_batch_insert
FNDA:0,_RNvMNtNtCs1YuMAXYbbDa_10vectorizer5batch10validationNtB2_14BatchValidator21validate_batch_search
FNDA:0,_RNvMNtNtCs1YuMAXYbbDa_10vectorizer5batch10validationNtB2_14BatchValidator21validate_batch_update
FNDA:0,_RNvMNtNtCs1YuMAXYbbDa_10vectorizer5batch10validationNtB2_14BatchValidator21validate_memory_usage
FNDA:0,_RNvMNtNtCs1YuMAXYbbDa_10vectorizer5batch10validationNtB2_14BatchValidator21validate_search_query
FNDA:0,_RNvMNtNtCs1YuMAXYbbDa_10vectorizer5batch10validationNtB2_14BatchValidator22validate_vector_update
FNDA:0,_RNvMNtNtCs1YuMAXYbbDa_10vectorizer5batch10validationNtB2_14BatchValidator24validate_collection_name
FNDA:0,_RNvMNtNtCs1YuMAXYbbDa_10vectorizer5batch10validationNtB2_14BatchValidator26validate_unique_delete_ids
FNDA:0,_RNvMNtNtCs1YuMAXYbbDa_10vectorizer5batch10validationNtB2_14BatchValidator26validate_unique_update_ids
FNDA:0,_RNvMNtNtCs1YuMAXYbbDa_10vectorizer5batch10validationNtB2_14BatchValidator3new
FNDA:0,_RNvNtNtCs1YuMAXYbbDa_10vectorizer5batch10validation15validate_vector
FNDA:0,_RNvNtNtCs1YuMAXYbbDa_10vectorizer5batch10validation18validate_vector_id
FNDA:0,_RNvNtNtCs1YuMAXYbbDa_10vectorizer5batch10validation24validate_collection_name
FNDA:0,_RNCNvMNtNtCs1YuMAXYbbDa_10vectorizer5batch10validationNtB4_14BatchValidator24validate_collection_name0B8_
FNDA:0,_RNvMNtNtCs4Tkd3OJeaSh_10vectorizer5batch10validationNtB2_14BatchValidator21validate_batch_delete
FNDA:0,_RNvMNtNtCs4Tkd3OJeaSh_10vectorizer5batch10validationNtB2_14BatchValidator21validate_batch_insert
FNDA:0,_RNvMNtNtCs4Tkd3OJeaSh_10vectorizer5batch10validationNtB2_14BatchValidator21validate_batch_search
FNDA:0,_RNvMNtNtCs4Tkd3OJeaSh_10vectorizer5batch10validationNtB2_14BatchValidator21validate_batch_update
FNDA:0,_RNvMNtNtCs4Tkd3OJeaSh_10vectorizer5batch10validationNtB2_14BatchValidator21validate_memory_usage
FNDA:0,_RNvMNtNtCs4Tkd3OJeaSh_10vectorizer5batch10validationNtB2_14BatchValidator22validate_vector_update
FNDA:0,_RNvMNtNtCs4Tkd3OJeaSh_10vectorizer5batch10validationNtB2_14BatchValidator26validate_unique_delete_ids
FNDA:0,_RNvMNtNtCs4Tkd3OJeaSh_10vectorizer5batch10validationNtB2_14BatchValidator26validate_unique_update_ids
FNDA:63,_RNCNvMNtNtCs4Tkd3OJeaSh_10vectorizer5batch10validationNtB4_14BatchValidator24validate_collection_name0B8_
FNDA:8,_RNvMNtNtCs4Tkd3OJeaSh_10vectorizer5batch10validationNtB2_14BatchValidator18validate_vector_id
FNDA:5,_RNvMNtNtCs4Tkd3OJeaSh_10vectorizer5batch10validationNtB2_14BatchValidator19validate_batch_size
FNDA:2,_RNvMNtNtCs4Tkd3OJeaSh_10vectorizer5batch10validationNtB2_14BatchValidator19validate_unique_ids
FNDA:6,_RNvMNtNtCs4Tkd3OJeaSh_10vectorizer5batch10validationNtB2_14BatchValidator20validate_vector_data
FNDA:5,_RNvMNtNtCs4Tkd3OJeaSh_10vectorizer5batch10validationNtB2_14BatchValidator21validate_search_query
FNDA:8,_RNvMNtNtCs4Tkd3OJeaSh_10vectorizer5batch10validationNtB2_14BatchValidator24validate_collection_name
FNDA:10,_RNvMNtNtCs4Tkd3OJeaSh_10vectorizer5batch10validationNtB2_14BatchValidator3new
FNDA:1,_RNvNtNtCs4Tkd3OJeaSh_10vectorizer5batch10validation15validate_vector
FNDA:2,_RNvNtNtCs4Tkd3OJeaSh_10vectorizer5batch10validation18validate_vector_id
FNDA:2,_RNvNtNtCs4Tkd3OJeaSh_10vectorizer5batch10validation24validate_collection_name
FNDA:11,_RNvNtNtNtCs4Tkd3OJeaSh_10vectorizer5batch10validation5tests18create_test_vector
FNDA:1,_RNvNtNtNtCs4Tkd3OJeaSh_10vectorizer5batch10validation5testss_24test_validate_batch_size
FNDA:1,_RNvNtNtNtCs4Tkd3OJeaSh_10vectorizer5batch10validation5testss_24test_validate_unique_ids
FNDA:1,_RNvNtNtNtCs4Tkd3OJeaSh_10vectorizer5batch10validation5testss_25test_validate_vector_data
FNDA:1,_RNvNtNtNtCs4Tkd3OJeaSh_10vectorizer5batch10validation5testss_26test_validate_search_query
FNDA:1,_RNvNtNtNtCs4Tkd3OJeaSh_10vectorizer5batch10validation5testss_29test_validate_collection_name
FNDA:1,_RNvNtNtNtCs4Tkd3OJeaSh_10vectorizer5batch10validation5testss_31test_quick_validation_functions
FNF:26
FNH:18
DA:17,10
DA:18,10
DA:19,10
DA:22,0
DA:23,0
DA:24,0
DA:25,0
DA:26,0
DA:28,0
DA:31,0
DA:34,0
DA:35,0
DA:39,0
DA:42,0
DA:44,0
DA:45,0
DA:48,0
DA:49,0
DA:50,0
DA:51,0
DA:52,0
DA:54,0
DA:57,0
DA:60,0
DA:61,0
DA:65,0
DA:67,0
DA:68,0
DA:71,0
DA:72,0
DA:73,0
DA:74,0
DA:75,0
DA:77,0
DA:80,0
DA:83,0
DA:84,0
DA:88,0
DA:90,0
DA:91,0
DA:94,0
DA:95,0
DA:96,0
DA:97,0
DA:98,0
DA:100,0
DA:103,0
DA:106,0
DA:107,0
DA:110,0
DA:111,0
DA:115,8
DA:116,8
DA:117,2
DA:118,2
DA:119,2
DA:120,2
DA:121,2
DA:122,2
DA:123,6
DA:125,6
DA:126,0
DA:127,0
DA:128,0
DA:129,0
DA:130,0
DA:131,0
DA:132,6
DA:135,6
DA:136,6
DA:137,63
DA:139,2
DA:140,2
DA:141,2
DA:142,2
DA:143,2
DA:144,2
DA:145,4
DA:147,4
DA:148,8
DA:150,5
DA:151,5
DA:152,1
DA:153,1
DA:154,1
DA:155,1
DA:156,1
DA:157,1
DA:158,4
DA:160,4
DA:161,1
DA:162,1
DA:163,1
DA:164,1
DA:165,1
DA:166,1
DA:167,1
DA:168,1
DA:169,1
DA:170,3
DA:172,3
DA:173,5
DA:175,6
DA:177,6
DA:180,5
DA:181,1
DA:182,1
DA:183,1
DA:184,1
DA:185,1
DA:186,1
DA:187,4
DA:189,4
DA:190,0
DA:191,0
DA:192,0
DA:193,0
DA:194,0
DA:195,0
DA:196,0
DA:197,0
DA:198,0
DA:199,0
DA:200,4
DA:203,770
DA:204,770
DA:205,2
DA:206,2
DA:207,2
DA:208,2
DA:209,2
DA:210,2
DA:211,2
DA:212,2
DA:213,2
DA:214,768
DA:217,2
DA:218,6
DA:220,0
DA:221,0
DA:222,0
DA:223,0
DA:224,0
DA:226,0
DA:229,0
DA:230,0
DA:231,0
DA:232,0
DA:233,0
DA:234,0
DA:235,0
DA:236,0
DA:237,0
DA:239,0
DA:240,0
DA:241,0
DA:242,0
DA:243,0
DA:244,0
DA:245,0
DA:246,0
DA:247,0
DA:248,0
DA:249,0
DA:250,0
DA:253,0
DA:254,0
DA:255,0
DA:256,0
DA:257,0
DA:258,0
DA:259,0
DA:260,0
DA:261,0
DA:262,0
DA:263,0
DA:264,0
DA:266,0
DA:268,0
DA:269,0
DA:271,8
DA:272,8
DA:273,2
DA:274,2
DA:275,2
DA:276,2
DA:277,2
DA:278,2
DA:279,6
DA:281,6
DA:282,0
DA:283,0
DA:284,0
DA:285,0
DA:286,0
DA:287,0
DA:288,6
DA:290,6
DA:291,8
DA:293,5
DA:295,5
DA:296,1
DA:297,1
DA:298,1
DA:299,1
DA:300,1
DA:301,1
DA:302,1
DA:303,1
DA:304,1
DA:305,4
DA:308,4
DA:309,3
DA:310,0
DA:311,0
DA:312,0
DA:313,0
DA:314,0
DA:315,0
DA:316,3
DA:318,3
DA:319,0
DA:320,0
DA:321,0
DA:322,0
DA:323,0
DA:324,0
DA:325,0
DA:326,0
DA:327,0
DA:328,0
DA:329,3
DA:332,9
DA:333,9
DA:334,0
DA:335,0
DA:336,0
DA:337,0
DA:338,0
DA:339,0
DA:340,0
DA:341,0
DA:342,0
DA:343,9
DA:345,1
DA:348,4
DA:349,1
DA:350,0
DA:351,0
DA:352,0
DA:353,0
DA:354,0
DA:355,0
DA:356,1
DA:358,1
DA:359,0
DA:360,0
DA:361,0
DA:362,0
DA:363,0
DA:364,0
DA:365,0
DA:366,0
DA:367,0
DA:368,0
DA:369,1
DA:370,3
DA:373,4
DA:374,1
DA:375,1
DA:376,1
DA:377,1
DA:378,1
DA:379,1
DA:380,3
DA:382,3
DA:383,0
DA:384,0
DA:385,0
DA:386,0
DA:387,0
DA:388,0
DA:389,0
DA:390,0
DA:391,0
DA:392,3
DA:395,3
DA:396,3
DA:397,1
DA:398,1
DA:399,1
DA:400,1
DA:401,1
DA:402,1
DA:403,1
DA:404,1
DA:405,1
DA:406,2
DA:407,0
DA:409,2
DA:410,5
DA:412,2
DA:413,2
DA:415,6
DA:416,6
DA:417,1
DA:418,1
DA:419,1
DA:420,1
DA:421,1
DA:422,1
DA:423,1
DA:424,1
DA:425,1
DA:426,5
DA:429,1
DA:430,2
DA:432,0
DA:433,0
DA:435,0
DA:436,0
DA:437,0
DA:438,0
DA:439,0
DA:440,0
DA:441,0
DA:442,0
DA:443,0
DA:444,0
DA:445,0
DA:446,0
DA:449,0
DA:450,0
DA:452,0
DA:453,0
DA:455,0
DA:456,0
DA:457,0
DA:458,0
DA:459,0
DA:460,0
DA:461,0
DA:462,0
DA:463,0
DA:466,0
DA:467,0
DA:469,0
DA:470,0
DA:471,0
DA:472,0
DA:474,0
DA:475,0
DA:476,0
DA:477,0
DA:479,0
DA:480,0
DA:481,0
DA:482,0
DA:483,0
DA:484,0
DA:485,0
DA:486,0
DA:487,0
DA:488,0
DA:489,0
DA:491,0
DA:492,0
DA:498,1
DA:499,1
DA:500,1
DA:501,1
DA:502,1
DA:505,2
DA:506,2
DA:507,2
DA:508,2
DA:509,2
DA:512,2
DA:513,2
DA:514,2
DA:515,2
DA:516,2
DA:523,11
DA:524,11
DA:525,11
DA:526,11
DA:527,11
DA:529,11
DA:530,11
DA:531,11
DA:534,11
DA:535,11
DA:536,11
DA:537,11
DA:538,11
DA:539,11
DA:540,11
DA:541,11
DA:544,1
DA:545,1
DA:548,1
DA:549,1
DA:550,1
DA:551,1
DA:553,1
DA:554,1
DA:555,1
DA:556,1
DA:558,1
DA:561,1
DA:562,1
DA:563,1
DA:564,1
DA:565,1
DA:567,1
DA:568,1
DA:569,1
DA:570,1
DA:572,1
DA:575,1
DA:576,1
DA:579,1
DA:580,1
DA:581,1
DA:584,1
DA:585,1
DA:586,1
DA:589,1
DA:590,1
DA:593,1
DA:594,1
DA:597,1
DA:598,1
DA:599,1
DA:600,1
DA:601,1
DA:605,1
DA:606,1
DA:607,1
DA:608,1
DA:609,1
DA:610,1
DA:611,1
DA:612,1
DA:615,1
DA:616,1
DA:617,1
DA:620,1
DA:621,1
DA:622,1
DA:623,1
DA:626,1
DA:627,1
DA:630,1
DA:631,1
DA:632,1
DA:633,1
DA:635,1
DA:638,1
DA:639,1
DA:640,1
DA:641,1
DA:643,1
DA:644,1
DA:647,1
DA:648,1
DA:651,1
DA:652,1
DA:653,1
DA:654,1
DA:655,1
DA:656,1
DA:657,1
DA:658,1
DA:659,1
DA:660,1
DA:661,1
DA:665,1
DA:666,1
DA:667,1
DA:668,1
DA:669,1
DA:670,1
DA:671,1
DA:672,1
DA:673,1
DA:674,1
DA:675,1
DA:679,1
DA:680,1
DA:681,1
DA:682,1
DA:683,1
DA:684,1
DA:685,1
DA:686,1
DA:689,1
DA:690,1
DA:691,1
DA:692,1
DA:693,1
DA:694,1
DA:695,1
DA:696,1
DA:697,1
DA:698,1
DA:699,1
DA:703,1
DA:704,1
DA:705,1
DA:706,1
DA:707,1
DA:708,1
DA:709,1
DA:710,1
DA:711,1
DA:712,1
DA:713,1
DA:715,1
DA:718,1
DA:720,1
DA:721,1
DA:724,1
DA:725,1
DA:728,1
DA:729,1
DA:730,1
BRF:0
BRH:0
LF:528
LH:315
end_of_record
SF:/mnt/f/Node/hivellm/vectorizer/src/benchmark/config.rs
FN:256,_RNvMs2_NtNtCs1YuMAXYbbDa_10vectorizer9benchmark6configNtB5_15BenchmarkConfig10regression
FN:246,_RNvMs2_NtNtCs1YuMAXYbbDa_10vectorizer9benchmark6configNtB5_15BenchmarkConfig13comprehensive
FN:266,_RNvMs2_NtNtCs1YuMAXYbbDa_10vectorizer9benchmark6configNtB5_15BenchmarkConfig14from_toml_file
FN:161,_RNvMs2_NtNtCs1YuMAXYbbDa_10vectorizer9benchmark6configNtB5_15BenchmarkConfig15with_dimensions
FN:230,_RNvMs2_NtNtCs1YuMAXYbbDa_10vectorizer9benchmark6configNtB5_15BenchmarkConfig15with_gpu_config
FN:215,_RNvMs2_NtNtCs1YuMAXYbbDa_10vectorizer9benchmark6configNtB5_15BenchmarkConfig16with_hnsw_config
FN:179,_RNvMs2_NtNtCs1YuMAXYbbDa_10vectorizer9benchmark6configNtB5_15BenchmarkConfig16with_sample_size
FN:273,_RNvMs2_NtNtCs1YuMAXYbbDa_10vectorizer9benchmark6configNtB5_15BenchmarkConfig17save_to_toml_file
FN:185,_RNvMs2_NtNtCs1YuMAXYbbDa_10vectorizer9benchmark6configNtB5_15BenchmarkConfig17with_warm_up_time
FN:167,_RNvMs2_NtNtCs1YuMAXYbbDa_10vectorizer9benchmark6configNtB5_15BenchmarkConfig18with_vector_counts
FN:197,_RNvMs2_NtNtCs1YuMAXYbbDa_10vectorizer9benchmark6configNtB5_15BenchmarkConfig20with_memory_tracking
FN:173,_RNvMs2_NtNtCs1YuMAXYbbDa_10vectorizer9benchmark6configNtB5_15BenchmarkConfig21with_measurement_time
FN:209,_RNvMs2_NtNtCs1YuMAXYbbDa_10vectorizer9benchmark6configNtB5_15BenchmarkConfig21with_output_directory
FN:221,_RNvMs2_NtNtCs1YuMAXYbbDa_10vectorizer9benchmark6configNtB5_15BenchmarkConfig24with_quantization_config
FN:191,_RNvMs2_NtNtCs1YuMAXYbbDa_10vectorizer9benchmark6configNtB5_15BenchmarkConfig27with_measurement_iterations
FN:203,_RNvMs2_NtNtCs1YuMAXYbbDa_10vectorizer9benchmark6configNtB5_15BenchmarkConfig29with_memory_sampling_interval
FN:156,_RNvMs2_NtNtCs1YuMAXYbbDa_10vectorizer9benchmark6configNtB5_15BenchmarkConfig3new
FN:236,_RNvMs2_NtNtCs1YuMAXYbbDa_10vectorizer9benchmark6configNtB5_15BenchmarkConfig5quick
FN:280,_RNvMs2_NtNtCs1YuMAXYbbDa_10vectorizer9benchmark6configNtB5_15BenchmarkConfig8validate
FN:322,_RNvMs3_NtNtCs1YuMAXYbbDa_10vectorizer9benchmark6configNtB5_16BenchmarkProfile6config
FN:331,_RNvMs3_NtNtCs1YuMAXYbbDa_10vectorizer9benchmark6configNtB5_16BenchmarkProfile8from_str
FN:95,_RNvXNtNtCs1YuMAXYbbDa_10vectorizer9benchmark6configNtB2_15BenchmarkConfigNtNtCs9Kp62OsN3pY_4core7default7Default7default
FN:131,_RNvXs0_NtNtCs1YuMAXYbbDa_10vectorizer9benchmark6configNtB5_27QuantizationBenchmarkConfigNtNtCs9Kp62OsN3pY_4core7default7Default7default
FN:144,_RNvXs1_NtNtCs1YuMAXYbbDa_10vectorizer9benchmark6configNtB5_18GpuBenchmarkConfigNtNtCs9Kp62OsN3pY_4core7default7Default7default
FN:342,_RNvXs4_NtNtCs1YuMAXYbbDa_10vectorizer9benchmark6configNtB5_16BenchmarkProfileNtNtCs9Kp62OsN3pY_4core3fmt7Display3fmt
FN:117,_RNvXs_NtNtCs1YuMAXYbbDa_10vectorizer9benchmark6configNtB4_19HnswBenchmarkConfigNtNtCs9Kp62OsN3pY_4core7default7Default7default
FN:256,_RNvMs2_NtNtCs4Tkd3OJeaSh_10vectorizer9benchmark6configNtB5_15BenchmarkConfig10regression
FN:246,_RNvMs2_NtNtCs4Tkd3OJeaSh_10vectorizer9benchmark6configNtB5_15BenchmarkConfig13comprehensive
FN:266,_RNvMs2_NtNtCs4Tkd3OJeaSh_10vectorizer9benchmark6configNtB5_15BenchmarkConfig14from_toml_file
FN:161,_RNvMs2_NtNtCs4Tkd3OJeaSh_10vectorizer9benchmark6configNtB5_15BenchmarkConfig15with_dimensions
FN:230,_RNvMs2_NtNtCs4Tkd3OJeaSh_10vectorizer9benchmark6configNtB5_15BenchmarkConfig15with_gpu_config
FN:215,_RNvMs2_NtNtCs4Tkd3OJeaSh_10vectorizer9benchmark6configNtB5_15BenchmarkConfig16with_hnsw_config
FN:179,_RNvMs2_NtNtCs4Tkd3OJeaSh_10vectorizer9benchmark6configNtB5_15BenchmarkConfig16with_sample_size
FN:273,_RNvMs2_NtNtCs4Tkd3OJeaSh_10vectorizer9benchmark6configNtB5_15BenchmarkConfig17save_to_toml_file
FN:185,_RNvMs2_NtNtCs4Tkd3OJeaSh_10vectorizer9benchmark6configNtB5_15BenchmarkConfig17with_warm_up_time
FN:167,_RNvMs2_NtNtCs4Tkd3OJeaSh_10vectorizer9benchmark6configNtB5_15BenchmarkConfig18with_vector_counts
FN:197,_RNvMs2_NtNtCs4Tkd3OJeaSh_10vectorizer9benchmark6configNtB5_15BenchmarkConfig20with_memory_tracking
FN:173,_RNvMs2_NtNtCs4Tkd3OJeaSh_10vectorizer9benchmark6configNtB5_15BenchmarkConfig21with_measurement_time
FN:209,_RNvMs2_NtNtCs4Tkd3OJeaSh_10vectorizer9benchmark6configNtB5_15BenchmarkConfig21with_output_directory
FN:221,_RNvMs2_NtNtCs4Tkd3OJeaSh_10vectorizer9benchmark6configNtB5_15BenchmarkConfig24with_quantization_config
FN:191,_RNvMs2_NtNtCs4Tkd3OJeaSh_10vectorizer9benchmark6configNtB5_15BenchmarkConfig27with_measurement_iterations
FN:203,_RNvMs2_NtNtCs4Tkd3OJeaSh_10vectorizer9benchmark6configNtB5_15BenchmarkConfig29with_memory_sampling_interval
FN:156,_RNvMs2_NtNtCs4Tkd3OJeaSh_10vectorizer9benchmark6configNtB5_15BenchmarkConfig3new
FN:236,_RNvMs2_NtNtCs4Tkd3OJeaSh_10vectorizer9benchmark6configNtB5_15BenchmarkConfig5quick
FN:280,_RNvMs2_NtNtCs4Tkd3OJeaSh_10vectorizer9benchmark6configNtB5_15BenchmarkConfig8validate
FN:322,_RNvMs3_NtNtCs4Tkd3OJeaSh_10vectorizer9benchmark6configNtB5_16BenchmarkProfile6config
FN:331,_RNvMs3_NtNtCs4Tkd3OJeaSh_10vectorizer9benchmark6configNtB5_16BenchmarkProfile8from_str
FN:95,_RNvXNtNtCs4Tkd3OJeaSh_10vectorizer9benchmark6configNtB2_15BenchmarkConfigNtNtCs9Kp62OsN3pY_4core7default7Default7default
FN:131,_RNvXs0_NtNtCs4Tkd3OJeaSh_10vectorizer9benchmark6configNtB5_27QuantizationBenchmarkConfigNtNtCs9Kp62OsN3pY_4core7default7Default7default
FN:144,_RNvXs1_NtNtCs4Tkd3OJeaSh_10vectorizer9benchmark6configNtB5_18GpuBenchmarkConfigNtNtCs9Kp62OsN3pY_4core7default7Default7default
FN:342,_RNvXs4_NtNtCs4Tkd3OJeaSh_10vectorizer9benchmark6configNtB5_16BenchmarkProfileNtNtCs9Kp62OsN3pY_4core3fmt7Display3fmt
FN:117,_RNvXs_NtNtCs4Tkd3OJeaSh_10vectorizer9benchmark6configNtB4_19HnswBenchmarkConfigNtNtCs9Kp62OsN3pY_4core7default7Default7default
FNDA:0,_RNvMs2_NtNtCs1YuMAXYbbDa_10vectorizer9benchmark6configNtB5_15BenchmarkConfig10regression
FNDA:0,_RNvMs2_NtNtCs1YuMAXYbbDa_10vectorizer9benchmark6configNtB5_15BenchmarkConfig13comprehensive
FNDA:0,_RNvMs2_NtNtCs1YuMAXYbbDa_10vectorizer9benchmark6configNtB5_15BenchmarkConfig14from_toml_file
FNDA:0,_RNvMs2_NtNtCs1YuMAXYbbDa_10vectorizer9benchmark6configNtB5_15BenchmarkConfig15with_dimensions
FNDA:0,_RNvMs2_NtNtCs1YuMAXYbbDa_10vectorizer9benchmark6configNtB5_15BenchmarkConfig15with_gpu_config
FNDA:0,_RNvMs2_NtNtCs1YuMAXYbbDa_10vectorizer9benchmark6configNtB5_15BenchmarkConfig16with_hnsw_config
FNDA:0,_RNvMs2_NtNtCs1YuMAXYbbDa_10vectorizer9benchmark6configNtB5_15BenchmarkConfig16with_sample_size
FNDA:0,_RNvMs2_NtNtCs1YuMAXYbbDa_10vectorizer9benchmark6configNtB5_15BenchmarkConfig17save_to_toml_file
FNDA:0,_RNvMs2_NtNtCs1YuMAXYbbDa_10vectorizer9benchmark6configNtB5_15BenchmarkConfig17with_warm_up_time
FNDA:0,_RNvMs2_NtNtCs1YuMAXYbbDa_10vectorizer9benchmark6configNtB5_15BenchmarkConfig18with_vector_counts
FNDA:0,_RNvMs2_NtNtCs1YuMAXYbbDa_10vectorizer9benchmark6configNtB5_15BenchmarkConfig20with_memory_tracking
FNDA:0,_RNvMs2_NtNtCs1YuMAXYbbDa_10vectorizer9benchmark6configNtB5_15BenchmarkConfig21with_measurement_time
FNDA:0,_RNvMs2_NtNtCs1YuMAXYbbDa_10vectorizer9benchmark6configNtB5_15BenchmarkConfig21with_output_directory
FNDA:0,_RNvMs2_NtNtCs1YuMAXYbbDa_10vectorizer9benchmark6configNtB5_15BenchmarkConfig24with_quantization_config
FNDA:0,_RNvMs2_NtNtCs1YuMAXYbbDa_10vectorizer9benchmark6configNtB5_15BenchmarkConfig27with_measurement_iterations
FNDA:0,_RNvMs2_NtNtCs1YuMAXYbbDa_10vectorizer9benchmark6configNtB5_15BenchmarkConfig29with_memory_sampling_interval
FNDA:0,_RNvMs2_NtNtCs1YuMAXYbbDa_10vectorizer9benchmark6configNtB5_15BenchmarkConfig3new
FNDA:0,_RNvMs2_NtNtCs1YuMAXYbbDa_10vectorizer9benchmark6configNtB5_15BenchmarkConfig5quick
FNDA:0,_RNvMs2_NtNtCs1YuMAXYbbDa_10vectorizer9benchmark6configNtB5_15BenchmarkConfig8validate
FNDA:0,_RNvMs3_NtNtCs1YuMAXYbbDa_10vectorizer9benchmark6configNtB5_16BenchmarkProfile6config
FNDA:0,_RNvMs3_NtNtCs1YuMAXYbbDa_10vectorizer9benchmark6configNtB5_16BenchmarkProfile8from_str
FNDA:0,_RNvXNtNtCs1YuMAXYbbDa_10vectorizer9benchmark6configNtB2_15BenchmarkConfigNtNtCs9Kp62OsN3pY_4core7default7Default7default
FNDA:0,_RNvXs0_NtNtCs1YuMAXYbbDa_10vectorizer9benchmark6configNtB5_27QuantizationBenchmarkConfigNtNtCs9Kp62OsN3pY_4core7default7Default7default
FNDA:0,_RNvXs1_NtNtCs1YuMAXYbbDa_10vectorizer9benchmark6configNtB5_18GpuBenchmarkConfigNtNtCs9Kp62OsN3pY_4core7default7Default7default
FNDA:0,_RNvXs4_NtNtCs1YuMAXYbbDa_10vectorizer9benchmark6configNtB5_16BenchmarkProfileNtNtCs9Kp62OsN3pY_4core3fmt7Display3fmt
FNDA:0,_RNvXs_NtNtCs1YuMAXYbbDa_10vectorizer9benchmark6configNtB4_19HnswBenchmarkConfigNtNtCs9Kp62OsN3pY_4core7default7Default7default
FNDA:0,_RNvMs2_NtNtCs4Tkd3OJeaSh_10vectorizer9benchmark6configNtB5_15BenchmarkConfig10regression
FNDA:0,_RNvMs2_NtNtCs4Tkd3OJeaSh_10vectorizer9benchmark6configNtB5_15BenchmarkConfig13comprehensive
FNDA:0,_RNvMs2_NtNtCs4Tkd3OJeaSh_10vectorizer9benchmark6configNtB5_15BenchmarkConfig14from_toml_file
FNDA:0,_RNvMs2_NtNtCs4Tkd3OJeaSh_10vectorizer9benchmark6configNtB5_15BenchmarkConfig15with_dimensions
FNDA:0,_RNvMs2_NtNtCs4Tkd3OJeaSh_10vectorizer9benchmark6configNtB5_15BenchmarkConfig15with_gpu_config
FNDA:0,_RNvMs2_NtNtCs4Tkd3OJeaSh_10vectorizer9benchmark6configNtB5_15BenchmarkConfig16with_hnsw_config
FNDA:0,_RNvMs2_NtNtCs4Tkd3OJeaSh_10vectorizer9benchmark6configNtB5_15BenchmarkConfig16with_sample_size
FNDA:0,_RNvMs2_NtNtCs4Tkd3OJeaSh_10vectorizer9benchmark6configNtB5_15BenchmarkConfig17save_to_toml_file
FNDA:0,_RNvMs2_NtNtCs4Tkd3OJeaSh_10vectorizer9benchmark6configNtB5_15BenchmarkConfig17with_warm_up_time
FNDA:0,_RNvMs2_NtNtCs4Tkd3OJeaSh_10vectorizer9benchmark6configNtB5_15BenchmarkConfig18with_vector_counts
FNDA:0,_RNvMs2_NtNtCs4Tkd3OJeaSh_10vectorizer9benchmark6configNtB5_15BenchmarkConfig20with_memory_tracking
FNDA:0,_RNvMs2_NtNtCs4Tkd3OJeaSh_10vectorizer9benchmark6configNtB5_15BenchmarkConfig21with_measurement_time
FNDA:0,_RNvMs2_NtNtCs4Tkd3OJeaSh_10vectorizer9benchmark6configNtB5_15BenchmarkConfig21with_output_directory
FNDA:0,_RNvMs2_NtNtCs4Tkd3OJeaSh_10vectorizer9benchmark6configNtB5_15BenchmarkConfig24with_quantization_config
FNDA:0,_RNvMs2_NtNtCs4Tkd3OJeaSh_10vectorizer9benchmark6configNtB5_15BenchmarkConfig27with_measurement_iterations
FNDA:0,_RNvMs2_NtNtCs4Tkd3OJeaSh_10vectorizer9benchmark6configNtB5_15BenchmarkConfig29with_memory_sampling_interval
FNDA:0,_RNvMs2_NtNtCs4Tkd3OJeaSh_10vectorizer9benchmark6configNtB5_15BenchmarkConfig3new
FNDA:0,_RNvMs2_NtNtCs4Tkd3OJeaSh_10vectorizer9benchmark6configNtB5_15BenchmarkConfig5quick
FNDA:0,_RNvMs2_NtNtCs4Tkd3OJeaSh_10vectorizer9benchmark6configNtB5_15BenchmarkConfig8validate
FNDA:0,_RNvMs3_NtNtCs4Tkd3OJeaSh_10vectorizer9benchmark6configNtB5_16BenchmarkProfile6config
FNDA:0,_RNvMs3_NtNtCs4Tkd3OJeaSh_10vectorizer9benchmark6configNtB5_16BenchmarkProfile8from_str
FNDA:0,_RNvXNtNtCs4Tkd3OJeaSh_10vectorizer9benchmark6configNtB2_15BenchmarkConfigNtNtCs9Kp62OsN3pY_4core7default7Default7default
FNDA:0,_RNvXs0_NtNtCs4Tkd3OJeaSh_10vectorizer9benchmark6configNtB5_27QuantizationBenchmarkConfigNtNtCs9Kp62OsN3pY_4core7default7Default7default
FNDA:0,_RNvXs1_NtNtCs4Tkd3OJeaSh_10vectorizer9benchmark6configNtB5_18GpuBenchmarkConfigNtNtCs9Kp62OsN3pY_4core7default7Default7default
FNDA:0,_RNvXs4_NtNtCs4Tkd3OJeaSh_10vectorizer9benchmark6configNtB5_16BenchmarkProfileNtNtCs9Kp62OsN3pY_4core3fmt7Display3fmt
FNDA:0,_RNvXs_NtNtCs4Tkd3OJeaSh_10vectorizer9benchmark6configNtB4_19HnswBenchmarkConfigNtNtCs9Kp62OsN3pY_4core7default7Default7default
FNF:26
FNH:0
DA:95,0
DA:96,0
DA:97,0
DA:98,0
DA:99,0
DA:100,0
DA:101,0
DA:102,0
DA:103,0
DA:104,0
DA:105,0
DA:106,0
DA:107,0
DA:108,0
DA:109,0
DA:110,0
DA:111,0
DA:112,0
DA:113,0
DA:117,0
DA:118,0
DA:119,0
DA:120,0
DA:121,0
DA:122,0
DA:123,0
DA:124,0
DA:125,0
DA:126,0
DA:127,0
DA:131,0
DA:132,0
DA:133,0
DA:134,0
DA:135,0
DA:136,0
DA:137,0
DA:138,0
DA:139,0
DA:140,0
DA:144,0
DA:145,0
DA:146,0
DA:147,0
DA:148,0
DA:149,0
DA:150,0
DA:151,0
DA:156,0
DA:157,0
DA:158,0
DA:161,0
DA:162,0
DA:163,0
DA:164,0
DA:167,0
DA:168,0
DA:169,0
DA:170,0
DA:173,0
DA:174,0
DA:175,0
DA:176,0
DA:179,0
DA:180,0
DA:181,0
DA:182,0
DA:185,0
DA:186,0
DA:187,0
DA:188,0
DA:191,0
DA:192,0
DA:193,0
DA:194,0
DA:197,0
DA:198,0
DA:199,0
DA:200,0
DA:203,0
DA:204,0
DA:205,0
DA:206,0
DA:209,0
DA:210,0
DA:211,0
DA:212,0
DA:215,0
DA:216,0
DA:217,0
DA:218,0
DA:221,0
DA:222,0
DA:223,0
DA:224,0
DA:225,0
DA:226,0
DA:227,0
DA:230,0
DA:231,0
DA:232,0
DA:233,0
DA:236,0
DA:237,0
DA:238,0
DA:239,0
DA:240,0
DA:241,0
DA:242,0
DA:243,0
DA:246,0
DA:247,0
DA:248,0
DA:249,0
DA:250,0
DA:251,0
DA:252,0
DA:253,0
DA:256,0
DA:257,0
DA:258,0
DA:259,0
DA:260,0
DA:261,0
DA:262,0
DA:263,0
DA:266,0
DA:267,0
DA:268,0
DA:269,0
DA:270,0
DA:273,0
DA:274,0
DA:275,0
DA:276,0
DA:277,0
DA:280,0
DA:281,0
DA:282,0
DA:283,0
DA:285,0
DA:286,0
DA:287,0
DA:289,0
DA:290,0
DA:291,0
DA:293,0
DA:294,0
DA:295,0
DA:297,0
DA:298,0
DA:299,0
DA:301,0
DA:302,0
DA:303,0
DA:305,0
DA:306,0
DA:322,0
DA:323,0
DA:324,0
DA:325,0
DA:326,0
DA:328,0
DA:331,0
DA:332,0
DA:333,0
DA:334,0
DA:335,0
DA:336,0
DA:338,0
DA:342,0
DA:343,0
DA:344,0
DA:345,0
DA:346,0
DA:348,0
BRF:0
BRH:0
LF:176
LH:0
end_of_record
SF:/mnt/f/Node/hivellm/vectorizer/src/benchmark/data_generator.rs
FN:314,_RNCNCNCNvMNtNtCs1YuMAXYbbDa_10vectorizer9benchmark14data_generatorNtB8_17TestDataGenerator21generate_ground_truth000Bc_
FN:312,_RNCNCNvMNtNtCs1YuMAXYbbDa_10vectorizer9benchmark14data_generatorNtB6_17TestDataGenerator21generate_ground_truth00Ba_
FN:316,_RNCNCNvMNtNtCs1YuMAXYbbDa_10vectorizer9benchmark14data_generatorNtB6_17TestDataGenerator21generate_ground_truth0s_0Ba_
FN:262,_RNCNvMNtNtCs1YuMAXYbbDa_10vectorizer9benchmark14data_generatorNtB4_17TestDataGenerator21generate_dense_vector0B8_
FN:306,_RNCNvMNtNtCs1YuMAXYbbDa_10vectorizer9benchmark14data_generatorNtB4_17TestDataGenerator21generate_ground_truth0B8_
FN:212,_RNCNvMNtNtCs1YuMAXYbbDa_10vectorizer9benchmark14data_generatorNtB4_17TestDataGenerator22generate_random_vector0B8_
FN:229,_RNCNvMNtNtCs1YuMAXYbbDa_10vectorizer9benchmark14data_generatorNtB4_17TestDataGenerator23generate_uniform_vector0B8_
FN:218,_RNCNvMNtNtCs1YuMAXYbbDa_10vectorizer9benchmark14data_generatorNtB4_17TestDataGenerator24generate_gaussian_vector0B8_
FN:238,_RNCNvMNtNtCs1YuMAXYbbDa_10vectorizer9benchmark14data_generatorNtB4_17TestDataGenerator25generate_clustered_vector0B8_
FN:206,_RNCNvMNtNtCs1YuMAXYbbDa_10vectorizer9benchmark14data_generatorNtB4_17TestDataGenerator29generate_deterministic_vector0B8_
FN:390,_RNCNvMs_NtNtCs1YuMAXYbbDa_10vectorizer9benchmark14data_generatorNtB6_8TestData22ground_truth_for_query0Ba_
FN:60,_RNvMNtNtCs1YuMAXYbbDa_10vectorizer9benchmark14data_generatorNtB2_17TestDataGenerator16generate_vectors
FN:260,_RNvMNtNtCs1YuMAXYbbDa_10vectorizer9benchmark14data_generatorNtB2_17TestDataGenerator21generate_dense_vector
FN:181,_RNvMNtNtCs1YuMAXYbbDa_10vectorizer9benchmark14data_generatorNtB2_17TestDataGenerator21generate_for_scenario
FN:298,_RNvMNtNtCs1YuMAXYbbDa_10vectorizer9benchmark14data_generatorNtB2_17TestDataGenerator21generate_ground_truth
FN:283,_RNvMNtNtCs1YuMAXYbbDa_10vectorizer9benchmark14data_generatorNtB2_17TestDataGenerator21generate_test_queries
FN:265,_RNvMNtNtCs1YuMAXYbbDa_10vectorizer9benchmark14data_generatorNtB2_17TestDataGenerator22generate_document_text
FN:210,_RNvMNtNtCs1YuMAXYbbDa_10vectorizer9benchmark14data_generatorNtB2_17TestDataGenerator22generate_random_vector
FN:245,_RNvMNtNtCs1YuMAXYbbDa_10vectorizer9benchmark14data_generatorNtB2_17TestDataGenerator22generate_sparse_vector
FN:168,_RNvMNtNtCs1YuMAXYbbDa_10vectorizer9benchmark14data_generatorNtB2_17TestDataGenerator23generate_from_real_data
FN:228,_RNvMNtNtCs1YuMAXYbbDa_10vectorizer9benchmark14data_generatorNtB2_17TestDataGenerator23generate_uniform_vector
FN:216,_RNvMNtNtCs1YuMAXYbbDa_10vectorizer9benchmark14data_generatorNtB2_17TestDataGenerator24generate_gaussian_vector
FN:115,_RNvMNtNtCs1YuMAXYbbDa_10vectorizer9benchmark14data_generatorNtB2_17TestDataGenerator24generate_pattern_vectors
FN:232,_RNvMNtNtCs1YuMAXYbbDa_10vectorizer9benchmark14data_generatorNtB2_17TestDataGenerator25generate_clustered_vector
FN:204,_RNvMNtNtCs1YuMAXYbbDa_10vectorizer9benchmark14data_generatorNtB2_17TestDataGenerator29generate_deterministic_vector
FN:52,_RNvMNtNtCs1YuMAXYbbDa_10vectorizer9benchmark14data_generatorNtB2_17TestDataGenerator3new
FN:364,_RNvMs_NtNtCs1YuMAXYbbDa_10vectorizer9benchmark14data_generatorNtB4_8TestData12vector_count
FN:389,_RNvMs_NtNtCs1YuMAXYbbDa_10vectorizer9benchmark14data_generatorNtB4_8TestData22ground_truth_for_query
FN:394,_RNvMs_NtNtCs1YuMAXYbbDa_10vectorizer9benchmark14data_generatorNtB4_8TestData5split
FN:437,_RNvMs_NtNtCs1YuMAXYbbDa_10vectorizer9benchmark14data_generatorNtB4_8TestData6sample
FN:384,_RNvMs_NtNtCs1YuMAXYbbDa_10vectorizer9benchmark14data_generatorNtB4_8TestData7queries
FN:374,_RNvMs_NtNtCs1YuMAXYbbDa_10vectorizer9benchmark14data_generatorNtB4_8TestData7vectors
FN:369,_RNvMs_NtNtCs1YuMAXYbbDa_10vectorizer9benchmark14data_generatorNtB4_8TestData9dimension
FN:379,_RNvMs_NtNtCs1YuMAXYbbDa_10vectorizer9benchmark14data_generatorNtB4_8TestData9documents
FN:314,_RNCNCNCNvMNtNtCs4Tkd3OJeaSh_10vectorizer9benchmark14data_generatorNtB8_17TestDataGenerator21generate_ground_truth000Bc_
FN:312,_RNCNCNvMNtNtCs4Tkd3OJeaSh_10vectorizer9benchmark14data_generatorNtB6_17TestDataGenerator21generate_ground_truth00Ba_
FN:316,_RNCNCNvMNtNtCs4Tkd3OJeaSh_10vectorizer9benchmark14data_generatorNtB6_17TestDataGenerator21generate_ground_truth0s_0Ba_
FN:262,_RNCNvMNtNtCs4Tkd3OJeaSh_10vectorizer9benchmark14data_generatorNtB4_17TestDataGenerator21generate_dense_vector0B8_
FN:306,_RNCNvMNtNtCs4Tkd3OJeaSh_10vectorizer9benchmark14data_generatorNtB4_17TestDataGenerator21generate_ground_truth0B8_
FN:212,_RNCNvMNtNtCs4Tkd3OJeaSh_10vectorizer9benchmark14data_generatorNtB4_17TestDataGenerator22generate_random_vector0B8_
FN:229,_RNCNvMNtNtCs4Tkd3OJeaSh_10vectorizer9benchmark14data_generatorNtB4_17TestDataGenerator23generate_uniform_vector0B8_
FN:218,_RNCNvMNtNtCs4Tkd3OJeaSh_10vectorizer9benchmark14data_generatorNtB4_17TestDataGenerator24generate_gaussian_vector0B8_
FN:238,_RNCNvMNtNtCs4Tkd3OJeaSh_10vectorizer9benchmark14data_generatorNtB4_17TestDataGenerator25generate_clustered_vector0B8_
FN:206,_RNCNvMNtNtCs4Tkd3OJeaSh_10vectorizer9benchmark14data_generatorNtB4_17TestDataGenerator29generate_deterministic_vector0B8_
FN:390,_RNCNvMs_NtNtCs4Tkd3OJeaSh_10vectorizer9benchmark14data_generatorNtB6_8TestData22ground_truth_for_query0Ba_
FN:60,_RNvMNtNtCs4Tkd3OJeaSh_10vectorizer9benchmark14data_generatorNtB2_17TestDataGenerator16generate_vectors
FN:260,_RNvMNtNtCs4Tkd3OJeaSh_10vectorizer9benchmark14data_generatorNtB2_17TestDataGenerator21generate_dense_vector
FN:181,_RNvMNtNtCs4Tkd3OJeaSh_10vectorizer9benchmark14data_generatorNtB2_17TestDataGenerator21generate_for_scenario
FN:298,_RNvMNtNtCs4Tkd3OJeaSh_10vectorizer9benchmark14data_generatorNtB2_17TestDataGenerator21generate_ground_truth
FN:283,_RNvMNtNtCs4Tkd3OJeaSh_10vectorizer9benchmark14data_generatorNtB2_17TestDataGenerator21generate_test_queries
FN:265,_RNvMNtNtCs4Tkd3OJeaSh_10vectorizer9benchmark14data_generatorNtB2_17TestDataGenerator22generate_document_text
FN:210,_RNvMNtNtCs4Tkd3OJeaSh_10vectorizer9benchmark14data_generatorNtB2_17TestDataGenerator22generate_random_vector
FN:245,_RNvMNtNtCs4Tkd3OJeaSh_10vectorizer9benchmark14data_generatorNtB2_17TestDataGenerator22generate_sparse_vector
FN:168,_RNvMNtNtCs4Tkd3OJeaSh_10vectorizer9benchmark14data_generatorNtB2_17TestDataGenerator23generate_from_real_data
FN:228,_RNvMNtNtCs4Tkd3OJeaSh_10vectorizer9benchmark14data_generatorNtB2_17TestDataGenerator23generate_uniform_vector
FN:216,_RNvMNtNtCs4Tkd3OJeaSh_10vectorizer9benchmark14data_generatorNtB2_17TestDataGenerator24generate_gaussian_vector
FN:115,_RNvMNtNtCs4Tkd3OJeaSh_10vectorizer9benchmark14data_generatorNtB2_17TestDataGenerator24generate_pattern_vectors
FN:232,_RNvMNtNtCs4Tkd3OJeaSh_10vectorizer9benchmark14data_generatorNtB2_17TestDataGenerator25generate_clustered_vector
FN:204,_RNvMNtNtCs4Tkd3OJeaSh_10vectorizer9benchmark14data_generatorNtB2_17TestDataGenerator29generate_deterministic_vector
FN:52,_RNvMNtNtCs4Tkd3OJeaSh_10vectorizer9benchmark14data_generatorNtB2_17TestDataGenerator3new
FN:364,_RNvMs_NtNtCs4Tkd3OJeaSh_10vectorizer9benchmark14data_generatorNtB4_8TestData12vector_count
FN:389,_RNvMs_NtNtCs4Tkd3OJeaSh_10vectorizer9benchmark14data_generatorNtB4_8TestData22ground_truth_for_query
FN:394,_RNvMs_NtNtCs4Tkd3OJeaSh_10vectorizer9benchmark14data_generatorNtB4_8TestData5split
FN:437,_RNvMs_NtNtCs4Tkd3OJeaSh_10vectorizer9benchmark14data_generatorNtB4_8TestData6sample
FN:384,_RNvMs_NtNtCs4Tkd3OJeaSh_10vectorizer9benchmark14data_generatorNtB4_8TestData7queries
FN:374,_RNvMs_NtNtCs4Tkd3OJeaSh_10vectorizer9benchmark14data_generatorNtB4_8TestData7vectors
FN:369,_RNvMs_NtNtCs4Tkd3OJeaSh_10vectorizer9benchmark14data_generatorNtB4_8TestData9dimension
FN:379,_RNvMs_NtNtCs4Tkd3OJeaSh_10vectorizer9benchmark14data_generatorNtB4_8TestData9documents
FNDA:0,_RNCNCNCNvMNtNtCs1YuMAXYbbDa_10vectorizer9benchmark14data_generatorNtB8_17TestDataGenerator21generate_ground_truth000Bc_
FNDA:0,_RNCNCNvMNtNtCs1YuMAXYbbDa_10vectorizer9benchmark14data_generatorNtB6_17TestDataGenerator21generate_ground_truth00Ba_
FNDA:0,_RNCNCNvMNtNtCs1YuMAXYbbDa_10vectorizer9benchmark14data_generatorNtB6_17TestDataGenerator21generate_ground_truth0s_0Ba_
FNDA:0,_RNCNvMNtNtCs1YuMAXYbbDa_10vectorizer9benchmark14data_generatorNtB4_17TestDataGenerator21generate_dense_vector0B8_
FNDA:0,_RNCNvMNtNtCs1YuMAXYbbDa_10vectorizer9benchmark14data_generatorNtB4_17TestDataGenerator21generate_ground_truth0B8_
FNDA:0,_RNCNvMNtNtCs1YuMAXYbbDa_10vectorizer9benchmark14data_generatorNtB4_17TestDataGenerator22generate_random_vector0B8_
FNDA:0,_RNCNvMNtNtCs1YuMAXYbbDa_10vectorizer9benchmark14data_generatorNtB4_17TestDataGenerator23generate_uniform_vector0B8_
FNDA:0,_RNCNvMNtNtCs1YuMAXYbbDa_10vectorizer9benchmark14data_generatorNtB4_17TestDataGenerator24generate_gaussian_vector0B8_
FNDA:0,_RNCNvMNtNtCs1YuMAXYbbDa_10vectorizer9benchmark14data_generatorNtB4_17TestDataGenerator25generate_clustered_vector0B8_
FNDA:0,_RNCNvMNtNtCs1YuMAXYbbDa_10vectorizer9benchmark14data_generatorNtB4_17TestDataGenerator29generate_deterministic_vector0B8_
FNDA:0,_RNCNvMs_NtNtCs1YuMAXYbbDa_10vectorizer9benchmark14data_generatorNtB6_8TestData22ground_truth_for_query0Ba_
FNDA:0,_RNvMNtNtCs1YuMAXYbbDa_10vectorizer9benchmark14data_generatorNtB2_17TestDataGenerator16generate_vectors
FNDA:0,_RNvMNtNtCs1YuMAXYbbDa_10vectorizer9benchmark14data_generatorNtB2_17TestDataGenerator21generate_dense_vector
FNDA:0,_RNvMNtNtCs1YuMAXYbbDa_10vectorizer9benchmark14data_generatorNtB2_17TestDataGenerator21generate_for_scenario
FNDA:0,_RNvMNtNtCs1YuMAXYbbDa_10vectorizer9benchmark14data_generatorNtB2_17TestDataGenerator21generate_ground_truth
FNDA:0,_RNvMNtNtCs1YuMAXYbbDa_10vectorizer9benchmark14data_generatorNtB2_17TestDataGenerator21generate_test_queries
FNDA:0,_RNvMNtNtCs1YuMAXYbbDa_10vectorizer9benchmark14data_generatorNtB2_17TestDataGenerator22generate_document_text
FNDA:0,_RNvMNtNtCs1YuMAXYbbDa_10vectorizer9benchmark14data_generatorNtB2_17TestDataGenerator22generate_random_vector
FNDA:0,_RNvMNtNtCs1YuMAXYbbDa_10vectorizer9benchmark14data_generatorNtB2_17TestDataGenerator22generate_sparse_vector
FNDA:0,_RNvMNtNtCs1YuMAXYbbDa_10vectorizer9benchmark14data_generatorNtB2_17TestDataGenerator23generate_from_real_data
FNDA:0,_RNvMNtNtCs1YuMAXYbbDa_10vectorizer9benchmark14data_generatorNtB2_17TestDataGenerator23generate_uniform_vector
FNDA:0,_RNvMNtNtCs1YuMAXYbbDa_10vectorizer9benchmark14data_generatorNtB2_17TestDataGenerator24generate_gaussian_vector
FNDA:0,_RNvMNtNtCs1YuMAXYbbDa_10vectorizer9benchmark14data_generatorNtB2_17TestDataGenerator24generate_pattern_vectors
FNDA:0,_RNvMNtNtCs1YuMAXYbbDa_10vectorizer9benchmark14data_generatorNtB2_17TestDataGenerator25generate_clustered_vector
FNDA:0,_RNvMNtNtCs1YuMAXYbbDa_10vectorizer9benchmark14data_generatorNtB2_17TestDataGenerator29generate_deterministic_vector
FNDA:0,_RNvMNtNtCs1YuMAXYbbDa_10vectorizer9benchmark14data_generatorNtB2_17TestDataGenerator3new
FNDA:0,_RNvMs_NtNtCs1YuMAXYbbDa_10vectorizer9benchmark14data_generatorNtB4_8TestData12vector_count
FNDA:0,_RNvMs_NtNtCs1YuMAXYbbDa_10vectorizer9benchmark14data_generatorNtB4_8TestData22ground_truth_for_query
FNDA:0,_RNvMs_NtNtCs1YuMAXYbbDa_10vectorizer9benchmark14data_generatorNtB4_8TestData5split
FNDA:0,_RNvMs_NtNtCs1YuMAXYbbDa_10vectorizer9benchmark14data_generatorNtB4_8TestData6sample
FNDA:0,_RNvMs_NtNtCs1YuMAXYbbDa_10vectorizer9benchmark14data_generatorNtB4_8TestData7queries
FNDA:0,_RNvMs_NtNtCs1YuMAXYbbDa_10vectorizer9benchmark14data_generatorNtB4_8TestData7vectors
FNDA:0,_RNvMs_NtNtCs1YuMAXYbbDa_10vectorizer9benchmark14data_generatorNtB4_8TestData9dimension
FNDA:0,_RNvMs_NtNtCs1YuMAXYbbDa_10vectorizer9benchmark14data_generatorNtB4_8TestData9documents
FNDA:0,_RNCNCNCNvMNtNtCs4Tkd3OJeaSh_10vectorizer9benchmark14data_generatorNtB8_17TestDataGenerator21generate_ground_truth000Bc_
FNDA:0,_RNCNCNvMNtNtCs4Tkd3OJeaSh_10vectorizer9benchmark14data_generatorNtB6_17TestDataGenerator21generate_ground_truth00Ba_
FNDA:0,_RNCNCNvMNtNtCs4Tkd3OJeaSh_10vectorizer9benchmark14data_generatorNtB6_17TestDataGenerator21generate_ground_truth0s_0Ba_
FNDA:0,_RNCNvMNtNtCs4Tkd3OJeaSh_10vectorizer9benchmark14data_generatorNtB4_17TestDataGenerator21generate_dense_vector0B8_
FNDA:0,_RNCNvMNtNtCs4Tkd3OJeaSh_10vectorizer9benchmark14data_generatorNtB4_17TestDataGenerator21generate_ground_truth0B8_
FNDA:0,_RNCNvMNtNtCs4Tkd3OJeaSh_10vectorizer9benchmark14data_generatorNtB4_17TestDataGenerator22generate_random_vector0B8_
FNDA:0,_RNCNvMNtNtCs4Tkd3OJeaSh_10vectorizer9benchmark14data_generatorNtB4_17TestDataGenerator23generate_uniform_vector0B8_
FNDA:0,_RNCNvMNtNtCs4Tkd3OJeaSh_10vectorizer9benchmark14data_generatorNtB4_17TestDataGenerator24generate_gaussian_vector0B8_
FNDA:0,_RNCNvMNtNtCs4Tkd3OJeaSh_10vectorizer9benchmark14data_generatorNtB4_17TestDataGenerator25generate_clustered_vector0B8_
FNDA:0,_RNCNvMNtNtCs4Tkd3OJeaSh_10vectorizer9benchmark14data_generatorNtB4_17TestDataGenerator29generate_deterministic_vector0B8_
FNDA:0,_RNCNvMs_NtNtCs4Tkd3OJeaSh_10vectorizer9benchmark14data_generatorNtB6_8TestData22ground_truth_for_query0Ba_
FNDA:0,_RNvMNtNtCs4Tkd3OJeaSh_10vectorizer9benchmark14data_generatorNtB2_17TestDataGenerator16generate_vectors
FNDA:0,_RNvMNtNtCs4Tkd3OJeaSh_10vectorizer9benchmark14data_generatorNtB2_17TestDataGenerator21generate_dense_vector
FNDA:0,_RNvMNtNtCs4Tkd3OJeaSh_10vectorizer9benchmark14data_generatorNtB2_17TestDataGenerator21generate_for_scenario
FNDA:0,_RNvMNtNtCs4Tkd3OJeaSh_10vectorizer9benchmark14data_generatorNtB2_17TestDataGenerator21generate_ground_truth
FNDA:0,_RNvMNtNtCs4Tkd3OJeaSh_10vectorizer9benchmark14data_generatorNtB2_17TestDataGenerator21generate_test_queries
FNDA:0,_RNvMNtNtCs4Tkd3OJeaSh_10vectorizer9benchmark14data_generatorNtB2_17TestDataGenerator22generate_document_text
FNDA:0,_RNvMNtNtCs4Tkd3OJeaSh_10vectorizer9benchmark14data_generatorNtB2_17TestDataGenerator22generate_random_vector
FNDA:0,_RNvMNtNtCs4Tkd3OJeaSh_10vectorizer9benchmark14data_generatorNtB2_17TestDataGenerator22generate_sparse_vector
FNDA:0,_RNvMNtNtCs4Tkd3OJeaSh_10vectorizer9benchmark14data_generatorNtB2_17TestDataGenerator23generate_from_real_data
FNDA:0,_RNvMNtNtCs4Tkd3OJeaSh_10vectorizer9benchmark14data_generatorNtB2_17TestDataGenerator23generate_uniform_vector
FNDA:0,_RNvMNtNtCs4Tkd3OJeaSh_10vectorizer9benchmark14data_generatorNtB2_17TestDataGenerator24generate_gaussian_vector
FNDA:0,_RNvMNtNtCs4Tkd3OJeaSh_10vectorizer9benchmark14data_generatorNtB2_17TestDataGenerator24generate_pattern_vectors
FNDA:0,_RNvMNtNtCs4Tkd3OJeaSh_10vectorizer9benchmark14data_generatorNtB2_17TestDataGenerator25generate_clustered_vector
FNDA:0,_RNvMNtNtCs4Tkd3OJeaSh_10vectorizer9benchmark14data_generatorNtB2_17TestDataGenerator29generate_deterministic_vector
FNDA:0,_RNvMNtNtCs4Tkd3OJeaSh_10vectorizer9benchmark14data_generatorNtB2_17TestDataGenerator3new
FNDA:0,_RNvMs_NtNtCs4Tkd3OJeaSh_10vectorizer9benchmark14data_generatorNtB4_8TestData12vector_count
FNDA:0,_RNvMs_NtNtCs4Tkd3OJeaSh_10vectorizer9benchmark14data_generatorNtB4_8TestData22ground_truth_for_query
FNDA:0,_RNvMs_NtNtCs4Tkd3OJeaSh_10vectorizer9benchmark14data_generatorNtB4_8TestData5split
FNDA:0,_RNvMs_NtNtCs4Tkd3OJeaSh_10vectorizer9benchmark14data_generatorNtB4_8TestData6sample
FNDA:0,_RNvMs_NtNtCs4Tkd3OJeaSh_10vectorizer9benchmark14data_generatorNtB4_8TestData7queries
FNDA:0,_RNvMs_NtNtCs4Tkd3OJeaSh_10vectorizer9benchmark14data_generatorNtB4_8TestData7vectors
FNDA:0,_RNvMs_NtNtCs4Tkd3OJeaSh_10vectorizer9benchmark14data_generatorNtB4_8TestData9dimension
FNDA:0,_RNvMs_NtNtCs4Tkd3OJeaSh_10vectorizer9benchmark14data_generatorNtB4_8TestData9documents
FNF:34
FNH:0
DA:52,0
DA:53,0
DA:54,0
DA:55,0
DA:56,0
DA:57,0
DA:60,0
DA:61,0
DA:62,0
DA:63,0
DA:64,0
DA:65,0
DA:67,0
DA:68,0
DA:70,0
DA:71,0
DA:74,0
DA:75,0
DA:77,0
DA:80,0
DA:83,0
DA:87,0
DA:90,0
DA:92,0
DA:94,0
DA:95,0
DA:96,0
DA:98,0
DA:99,0
DA:100,0
DA:101,0
DA:102,0
DA:103,0
DA:104,0
DA:105,0
DA:106,0
DA:107,0
DA:108,0
DA:109,0
DA:110,0
DA:111,0
DA:112,0
DA:115,0
DA:116,0
DA:117,0
DA:118,0
DA:119,0
DA:120,0
DA:121,0
DA:123,0
DA:124,0
DA:126,0
DA:127,0
DA:129,0
DA:130,0
DA:131,0
DA:132,0
DA:133,0
DA:134,0
DA:135,0
DA:138,0
DA:139,0
DA:142,0
DA:143,0
DA:145,0
DA:147,0
DA:148,0
DA:149,0
DA:151,0
DA:152,0
DA:153,0
DA:154,0
DA:155,0
DA:156,0
DA:157,0
DA:158,0
DA:159,0
DA:160,0
DA:161,0
DA:162,0
DA:163,0
DA:164,0
DA:165,0
DA:168,0
DA:169,0
DA:170,0
DA:171,0
DA:172,0
DA:173,0
DA:176,0
DA:177,0
DA:178,0
DA:181,0
DA:182,0
DA:183,0
DA:184,0
DA:185,0
DA:186,0
DA:187,0
DA:188,0
DA:189,0
DA:190,0
DA:192,0
DA:195,0
DA:197,0
DA:198,0
DA:200,0
DA:204,0
DA:205,0
DA:206,0
DA:207,0
DA:208,0
DA:210,0
DA:211,0
DA:212,0
DA:213,0
DA:214,0
DA:216,0
DA:217,0
DA:218,0
DA:220,0
DA:221,0
DA:222,0
DA:223,0
DA:224,0
DA:225,0
DA:226,0
DA:228,0
DA:229,0
DA:230,0
DA:232,0
DA:233,0
DA:234,0
DA:235,0
DA:237,0
DA:238,0
DA:239,0
DA:240,0
DA:241,0
DA:242,0
DA:243,0
DA:245,0
DA:246,0
DA:247,0
DA:249,0
DA:250,0
DA:251,0
DA:253,0
DA:254,0
DA:255,0
DA:257,0
DA:258,0
DA:260,0
DA:262,0
DA:263,0
DA:265,0
DA:266,0
DA:268,0
DA:269,0
DA:270,0
DA:271,0
DA:272,0
DA:273,0
DA:274,0
DA:275,0
DA:276,0
DA:279,0
DA:280,0
DA:281,0
DA:283,0
DA:284,0
DA:285,0
DA:286,0
DA:287,0
DA:288,0
DA:289,0
DA:290,0
DA:291,0
DA:292,0
DA:293,0
DA:294,0
DA:296,0
DA:298,0
DA:299,0
DA:300,0
DA:301,0
DA:302,0
DA:304,0
DA:305,0
DA:306,0
DA:307,0
DA:308,0
DA:310,0
DA:311,0
DA:312,0
DA:314,0
DA:315,0
DA:316,0
DA:317,0
DA:318,0
DA:319,0
DA:320,0
DA:321,0
DA:364,0
DA:365,0
DA:366,0
DA:369,0
DA:370,0
DA:371,0
DA:374,0
DA:375,0
DA:376,0
DA:379,0
DA:380,0
DA:381,0
DA:384,0
DA:385,0
DA:386,0
DA:389,0
DA:390,0
DA:391,0
DA:394,0
DA:395,0
DA:397,0
DA:398,0
DA:400,0
DA:401,0
DA:403,0
DA:404,0
DA:405,0
DA:406,0
DA:407,0
DA:408,0
DA:409,0
DA:410,0
DA:411,0
DA:412,0
DA:413,0
DA:414,0
DA:415,0
DA:416,0
DA:418,0
DA:419,0
DA:420,0
DA:421,0
DA:422,0
DA:423,0
DA:424,0
DA:425,0
DA:426,0
DA:427,0
DA:428,0
DA:429,0
DA:430,0
DA:431,0
DA:433,0
DA:434,0
DA:437,0
DA:438,0
DA:439,0
DA:441,0
DA:442,0
DA:443,0
DA:444,0
DA:445,0
DA:446,0
DA:447,0
DA:449,0
DA:450,0
DA:451,0
DA:452,0
DA:453,0
DA:454,0
DA:455,0
DA:457,0
DA:458,0
DA:459,0
DA:460,0
DA:461,0
DA:462,0
DA:463,0
DA:464,0
DA:465,0
DA:466,0
DA:467,0
DA:468,0
DA:469,0
DA:470,0
DA:471,0
BRF:0
BRH:0
LF:300
LH:0
end_of_record
SF:/mnt/f/Node/hivellm/vectorizer/src/benchmark/metrics.rs
FN:90,_RNCNvMNtNtCs1YuMAXYbbDa_10vectorizer9benchmark7metricsNtB4_16OperationMetrics14from_latencies0B8_
FN:241,_RNCNvMs_NtNtCs1YuMAXYbbDa_10vectorizer9benchmark7metricsNtB6_18PerformanceMetrics14update_summary0Ba_
FN:70,_RNvMNtNtCs1YuMAXYbbDa_10vectorizer9benchmark7metricsNtB2_16OperationMetrics14from_latencies
FN:120,_RNvMNtNtCs1YuMAXYbbDa_10vectorizer9benchmark7metricsNtB2_16OperationMetrics17add_custom_metric
FN:125,_RNvMNtNtCs1YuMAXYbbDa_10vectorizer9benchmark7metricsNtB2_16OperationMetrics17get_custom_metric
FN:48,_RNvMNtNtCs1YuMAXYbbDa_10vectorizer9benchmark7metricsNtB2_16OperationMetrics3new
FN:413,_RNvMs3_NtNtCs1YuMAXYbbDa_10vectorizer9benchmark7metricsNtB5_15LatencyMeasurer12measurements
FN:401,_RNvMs3_NtNtCs1YuMAXYbbDa_10vectorizer9benchmark7metricsNtB5_15LatencyMeasurer3end
FN:388,_RNvMs3_NtNtCs1YuMAXYbbDa_10vectorizer9benchmark7metricsNtB5_15LatencyMeasurer3new
FN:418,_RNvMs3_NtNtCs1YuMAXYbbDa_10vectorizer9benchmark7metricsNtB5_15LatencyMeasurer5clear
FN:424,_RNvMs3_NtNtCs1YuMAXYbbDa_10vectorizer9benchmark7metricsNtB5_15LatencyMeasurer5count
FN:396,_RNvMs3_NtNtCs1YuMAXYbbDa_10vectorizer9benchmark7metricsNtB5_15LatencyMeasurer5start
FN:471,_RNvMs5_NtNtCs1YuMAXYbbDa_10vectorizer9benchmark7metricsNtB5_20ThroughputCalculator12elapsed_time
FN:451,_RNvMs5_NtNtCs1YuMAXYbbDa_10vectorizer9benchmark7metricsNtB5_20ThroughputCalculator16record_operation
FN:466,_RNvMs5_NtNtCs1YuMAXYbbDa_10vectorizer9benchmark7metricsNtB5_20ThroughputCalculator16total_operations
FN:456,_RNvMs5_NtNtCs1YuMAXYbbDa_10vectorizer9benchmark7metricsNtB5_20ThroughputCalculator18current_throughput
FN:443,_RNvMs5_NtNtCs1YuMAXYbbDa_10vectorizer9benchmark7metricsNtB5_20ThroughputCalculator3new
FN:476,_RNvMs5_NtNtCs1YuMAXYbbDa_10vectorizer9benchmark7metricsNtB5_20ThroughputCalculator5reset
FN:209,_RNvMs_NtNtCs1YuMAXYbbDa_10vectorizer9benchmark7metricsNtB4_18PerformanceMetrics13add_operation
FN:260,_RNvMs_NtNtCs1YuMAXYbbDa_10vectorizer9benchmark7metricsNtB4_18PerformanceMetrics13get_operation
FN:215,_RNvMs_NtNtCs1YuMAXYbbDa_10vectorizer9benchmark7metricsNtB4_18PerformanceMetrics14update_summary
FN:265,_RNvMs_NtNtCs1YuMAXYbbDa_10vectorizer9benchmark7metricsNtB4_18PerformanceMetrics15operation_names
FN:193,_RNvMs_NtNtCs1YuMAXYbbDa_10vectorizer9benchmark7metricsNtB4_18PerformanceMetrics3new
FN:371,_RNvNtNtCs1YuMAXYbbDa_10vectorizer9benchmark7metrics10percentile
FN:326,_RNvXs0_NtNtCs1YuMAXYbbDa_10vectorizer9benchmark7metricsNtB5_10SystemInfoNtNtCs9Kp62OsN3pY_4core7default7Default7default
FN:340,_RNvXs1_NtNtCs1YuMAXYbbDa_10vectorizer9benchmark7metricsNtB5_16BenchmarkSummaryNtNtCs9Kp62OsN3pY_4core7default7Default7default
FN:355,_RNvXs2_NtNtCs1YuMAXYbbDa_10vectorizer9benchmark7metricsNtB5_14QualityMetricsNtNtCs9Kp62OsN3pY_4core7default7Default7default
FN:430,_RNvXs4_NtNtCs1YuMAXYbbDa_10vectorizer9benchmark7metricsNtB5_15LatencyMeasurerNtNtCs9Kp62OsN3pY_4core7default7Default7default
FN:483,_RNvXs6_NtNtCs1YuMAXYbbDa_10vectorizer9benchmark7metricsNtB5_20ThroughputCalculatorNtNtCs9Kp62OsN3pY_4core7default7Default7default
FN:90,_RNCNvMNtNtCs4Tkd3OJeaSh_10vectorizer9benchmark7metricsNtB4_16OperationMetrics14from_latencies0B8_
FN:241,_RNCNvMs_NtNtCs4Tkd3OJeaSh_10vectorizer9benchmark7metricsNtB6_18PerformanceMetrics14update_summary0Ba_
FN:70,_RNvMNtNtCs4Tkd3OJeaSh_10vectorizer9benchmark7metricsNtB2_16OperationMetrics14from_latencies
FN:120,_RNvMNtNtCs4Tkd3OJeaSh_10vectorizer9benchmark7metricsNtB2_16OperationMetrics17add_custom_metric
FN:125,_RNvMNtNtCs4Tkd3OJeaSh_10vectorizer9benchmark7metricsNtB2_16OperationMetrics17get_custom_metric
FN:48,_RNvMNtNtCs4Tkd3OJeaSh_10vectorizer9benchmark7metricsNtB2_16OperationMetrics3new
FN:413,_RNvMs3_NtNtCs4Tkd3OJeaSh_10vectorizer9benchmark7metricsNtB5_15LatencyMeasurer12measurements
FN:401,_RNvMs3_NtNtCs4Tkd3OJeaSh_10vectorizer9benchmark7metricsNtB5_15LatencyMeasurer3end
FN:388,_RNvMs3_NtNtCs4Tkd3OJeaSh_10vectorizer9benchmark7metricsNtB5_15LatencyMeasurer3new
FN:418,_RNvMs3_NtNtCs4Tkd3OJeaSh_10vectorizer9benchmark7metricsNtB5_15LatencyMeasurer5clear
FN:424,_RNvMs3_NtNtCs4Tkd3OJeaSh_10vectorizer9benchmark7metricsNtB5_15LatencyMeasurer5count
FN:396,_RNvMs3_NtNtCs4Tkd3OJeaSh_10vectorizer9benchmark7metricsNtB5_15LatencyMeasurer5start
FN:471,_RNvMs5_NtNtCs4Tkd3OJeaSh_10vectorizer9benchmark7metricsNtB5_20ThroughputCalculator12elapsed_time
FN:451,_RNvMs5_NtNtCs4Tkd3OJeaSh_10vectorizer9benchmark7metricsNtB5_20ThroughputCalculator16record_operation
FN:466,_RNvMs5_NtNtCs4Tkd3OJeaSh_10vectorizer9benchmark7metricsNtB5_20ThroughputCalculator16total_operations
FN:456,_RNvMs5_NtNtCs4Tkd3OJeaSh_10vectorizer9benchmark7metricsNtB5_20ThroughputCalculator18current_throughput
FN:443,_RNvMs5_NtNtCs4Tkd3OJeaSh_10vectorizer9benchmark7metricsNtB5_20ThroughputCalculator3new
FN:476,_RNvMs5_NtNtCs4Tkd3OJeaSh_10vectorizer9benchmark7metricsNtB5_20ThroughputCalculator5reset
FN:209,_RNvMs_NtNtCs4Tkd3OJeaSh_10vectorizer9benchmark7metricsNtB4_18PerformanceMetrics13add_operation
FN:260,_RNvMs_NtNtCs4Tkd3OJeaSh_10vectorizer9benchmark7metricsNtB4_18PerformanceMetrics13get_operation
FN:215,_RNvMs_NtNtCs4Tkd3OJeaSh_10vectorizer9benchmark7metricsNtB4_18PerformanceMetrics14update_summary
FN:265,_RNvMs_NtNtCs4Tkd3OJeaSh_10vectorizer9benchmark7metricsNtB4_18PerformanceMetrics15operation_names
FN:193,_RNvMs_NtNtCs4Tkd3OJeaSh_10vectorizer9benchmark7metricsNtB4_18PerformanceMetrics3new
FN:371,_RNvNtNtCs4Tkd3OJeaSh_10vectorizer9benchmark7metrics10percentile
FN:326,_RNvXs0_NtNtCs4Tkd3OJeaSh_10vectorizer9benchmark7metricsNtB5_10SystemInfoNtNtCs9Kp62OsN3pY_4core7default7Default7default
FN:340,_RNvXs1_NtNtCs4Tkd3OJeaSh_10vectorizer9benchmark7metricsNtB5_16BenchmarkSummaryNtNtCs9Kp62OsN3pY_4core7default7Default7default
FN:355,_RNvXs2_NtNtCs4Tkd3OJeaSh_10vectorizer9benchmark7metricsNtB5_14QualityMetricsNtNtCs9Kp62OsN3pY_4core7default7Default7default
FN:430,_RNvXs4_NtNtCs4Tkd3OJeaSh_10vectorizer9benchmark7metricsNtB5_15LatencyMeasurerNtNtCs9Kp62OsN3pY_4core7default7Default7default
FN:483,_RNvXs6_NtNtCs4Tkd3OJeaSh_10vectorizer9benchmark7metricsNtB5_20ThroughputCalculatorNtNtCs9Kp62OsN3pY_4core7default7Default7default
FNDA:0,_RNCNvMNtNtCs1YuMAXYbbDa_10vectorizer9benchmark7metricsNtB4_16OperationMetrics14from_latencies0B8_
FNDA:0,_RNCNvMs_NtNtCs1YuMAXYbbDa_10vectorizer9benchmark7metricsNtB6_18PerformanceMetrics14update_summary0Ba_
FNDA:0,_RNvMNtNtCs1YuMAXYbbDa_10vectorizer9benchmark7metricsNtB2_16OperationMetrics14from_latencies
FNDA:0,_RNvMNtNtCs1YuMAXYbbDa_10vectorizer9benchmark7metricsNtB2_16OperationMetrics17add_custom_metric
FNDA:0,_RNvMNtNtCs1YuMAXYbbDa_10vectorizer9benchmark7metricsNtB2_16OperationMetrics17get_custom_metric
FNDA:0,_RNvMNtNtCs1YuMAXYbbDa_10vectorizer9benchmark7metricsNtB2_16OperationMetrics3new
FNDA:0,_RNvMs3_NtNtCs1YuMAXYbbDa_10vectorizer9benchmark7metricsNtB5_15LatencyMeasurer12measurements
FNDA:0,_RNvMs3_NtNtCs1YuMAXYbbDa_10vectorizer9benchmark7metricsNtB5_15LatencyMeasurer3end
FNDA:0,_RNvMs3_NtNtCs1YuMAXYbbDa_10vectorizer9benchmark7metricsNtB5_15LatencyMeasurer3new
FNDA:0,_RNvMs3_NtNtCs1YuMAXYbbDa_10vectorizer9benchmark7metricsNtB5_15LatencyMeasurer5clear
FNDA:0,_RNvMs3_NtNtCs1YuMAXYbbDa_10vectorizer9benchmark7metricsNtB5_15LatencyMeasurer5count
FNDA:0,_RNvMs3_NtNtCs1YuMAXYbbDa_10vectorizer9benchmark7metricsNtB5_15LatencyMeasurer5start
FNDA:0,_RNvMs5_NtNtCs1YuMAXYbbDa_10vectorizer9benchmark7metricsNtB5_20ThroughputCalculator12elapsed_time
FNDA:0,_RNvMs5_NtNtCs1YuMAXYbbDa_10vectorizer9benchmark7metricsNtB5_20ThroughputCalculator16record_operation
FNDA:0,_RNvMs5_NtNtCs1YuMAXYbbDa_10vectorizer9benchmark7metricsNtB5_20ThroughputCalculator16total_operations
FNDA:0,_RNvMs5_NtNtCs1YuMAXYbbDa_10vectorizer9benchmark7metricsNtB5_20ThroughputCalculator18current_throughput
FNDA:0,_RNvMs5_NtNtCs1YuMAXYbbDa_10vectorizer9benchmark7metricsNtB5_20ThroughputCalculator3new
FNDA:0,_RNvMs5_NtNtCs1YuMAXYbbDa_10vectorizer9benchmark7metricsNtB5_20ThroughputCalculator5reset
FNDA:0,_RNvMs_NtNtCs1YuMAXYbbDa_10vectorizer9benchmark7metricsNtB4_18PerformanceMetrics13add_operation
FNDA:0,_RNvMs_NtNtCs1YuMAXYbbDa_10vectorizer9benchmark7metricsNtB4_18PerformanceMetrics13get_operation
FNDA:0,_RNvMs_NtNtCs1YuMAXYbbDa_10vectorizer9benchmark7metricsNtB4_18PerformanceMetrics14update_summary
FNDA:0,_RNvMs_NtNtCs1YuMAXYbbDa_10vectorizer9benchmark7metricsNtB4_18PerformanceMetrics15operation_names
FNDA:0,_RNvMs_NtNtCs1YuMAXYbbDa_10vectorizer9benchmark7metricsNtB4_18PerformanceMetrics3new
FNDA:0,_RNvNtNtCs1YuMAXYbbDa_10vectorizer9benchmark7metrics10percentile
FNDA:0,_RNvXs0_NtNtCs1YuMAXYbbDa_10vectorizer9benchmark7metricsNtB5_10SystemInfoNtNtCs9Kp62OsN3pY_4core7default7Default7default
FNDA:0,_RNvXs1_NtNtCs1YuMAXYbbDa_10vectorizer9benchmark7metricsNtB5_16BenchmarkSummaryNtNtCs9Kp62OsN3pY_4core7default7Default7default
FNDA:0,_RNvXs2_NtNtCs1YuMAXYbbDa_10vectorizer9benchmark7metricsNtB5_14QualityMetricsNtNtCs9Kp62OsN3pY_4core7default7Default7default
FNDA:0,_RNvXs4_NtNtCs1YuMAXYbbDa_10vectorizer9benchmark7metricsNtB5_15LatencyMeasurerNtNtCs9Kp62OsN3pY_4core7default7Default7default
FNDA:0,_RNvXs6_NtNtCs1YuMAXYbbDa_10vectorizer9benchmark7metricsNtB5_20ThroughputCalculatorNtNtCs9Kp62OsN3pY_4core7default7Default7default
FNDA:0,_RNCNvMNtNtCs4Tkd3OJeaSh_10vectorizer9benchmark7metricsNtB4_16OperationMetrics14from_latencies0B8_
FNDA:0,_RNCNvMs_NtNtCs4Tkd3OJeaSh_10vectorizer9benchmark7metricsNtB6_18PerformanceMetrics14update_summary0Ba_
FNDA:0,_RNvMNtNtCs4Tkd3OJeaSh_10vectorizer9benchmark7metricsNtB2_16OperationMetrics14from_latencies
FNDA:0,_RNvMNtNtCs4Tkd3OJeaSh_10vectorizer9benchmark7metricsNtB2_16OperationMetrics17add_custom_metric
FNDA:0,_RNvMNtNtCs4Tkd3OJeaSh_10vectorizer9benchmark7metricsNtB2_16OperationMetrics17get_custom_metric
FNDA:0,_RNvMNtNtCs4Tkd3OJeaSh_10vectorizer9benchmark7metricsNtB2_16OperationMetrics3new
FNDA:0,_RNvMs3_NtNtCs4Tkd3OJeaSh_10vectorizer9benchmark7metricsNtB5_15LatencyMeasurer12measurements
FNDA:0,_RNvMs3_NtNtCs4Tkd3OJeaSh_10vectorizer9benchmark7metricsNtB5_15LatencyMeasurer3end
FNDA:0,_RNvMs3_NtNtCs4Tkd3OJeaSh_10vectorizer9benchmark7metricsNtB5_15LatencyMeasurer3new
FNDA:0,_RNvMs3_NtNtCs4Tkd3OJeaSh_10vectorizer9benchmark7metricsNtB5_15LatencyMeasurer5clear
FNDA:0,_RNvMs3_NtNtCs4Tkd3OJeaSh_10vectorizer9benchmark7metricsNtB5_15LatencyMeasurer5count
FNDA:0,_RNvMs3_NtNtCs4Tkd3OJeaSh_10vectorizer9benchmark7metricsNtB5_15LatencyMeasurer5start
FNDA:0,_RNvMs5_NtNtCs4Tkd3OJeaSh_10vectorizer9benchmark7metricsNtB5_20ThroughputCalculator12elapsed_time
FNDA:0,_RNvMs5_NtNtCs4Tkd3OJeaSh_10vectorizer9benchmark7metricsNtB5_20ThroughputCalculator16record_operation
FNDA:0,_RNvMs5_NtNtCs4Tkd3OJeaSh_10vectorizer9benchmark7metricsNtB5_20ThroughputCalculator16total_operations
FNDA:0,_RNvMs5_NtNtCs4Tkd3OJeaSh_10vectorizer9benchmark7metricsNtB5_20ThroughputCalculator18current_throughput
FNDA:0,_RNvMs5_NtNtCs4Tkd3OJeaSh_10vectorizer9benchmark7metricsNtB5_20ThroughputCalculator3new
FNDA:0,_RNvMs5_NtNtCs4Tkd3OJeaSh_10vectorizer9benchmark7metricsNtB5_20ThroughputCalculator5reset
FNDA:0,_RNvMs_NtNtCs4Tkd3OJeaSh_10vectorizer9benchmark7metricsNtB4_18PerformanceMetrics13add_operation
FNDA:0,_RNvMs_NtNtCs4Tkd3OJeaSh_10vectorizer9benchmark7metricsNtB4_18PerformanceMetrics13get_operation
FNDA:0,_RNvMs_NtNtCs4Tkd3OJeaSh_10vectorizer9benchmark7metricsNtB4_18PerformanceMetrics14update_summary
FNDA:0,_RNvMs_NtNtCs4Tkd3OJeaSh_10vectorizer9benchmark7metricsNtB4_18PerformanceMetrics15operation_names
FNDA:0,_RNvMs_NtNtCs4Tkd3OJeaSh_10vectorizer9benchmark7metricsNtB4_18PerformanceMetrics3new
FNDA:0,_RNvNtNtCs4Tkd3OJeaSh_10vectorizer9benchmark7metrics10percentile
FNDA:0,_RNvXs0_NtNtCs4Tkd3OJeaSh_10vectorizer9benchmark7metricsNtB5_10SystemInfoNtNtCs9Kp62OsN3pY_4core7default7Default7default
FNDA:0,_RNvXs1_NtNtCs4Tkd3OJeaSh_10vectorizer9benchmark7metricsNtB5_16BenchmarkSummaryNtNtCs9Kp62OsN3pY_4core7default7Default7default
FNDA:0,_RNvXs2_NtNtCs4Tkd3OJeaSh_10vectorizer9benchmark7metricsNtB5_14QualityMetricsNtNtCs9Kp62OsN3pY_4core7default7Default7default
FNDA:0,_RNvXs4_NtNtCs4Tkd3OJeaSh_10vectorizer9benchmark7metricsNtB5_15LatencyMeasurerNtNtCs9Kp62OsN3pY_4core7default7Default7default
FNDA:0,_RNvXs6_NtNtCs4Tkd3OJeaSh_10vectorizer9benchmark7metricsNtB5_20ThroughputCalculatorNtNtCs9Kp62OsN3pY_4core7default7Default7default
FNF:29
FNH:0
DA:48,0
DA:49,0
DA:50,0
DA:51,0
DA:52,0
DA:53,0
DA:54,0
DA:55,0
DA:56,0
DA:57,0
DA:58,0
DA:59,0
DA:60,0
DA:61,0
DA:62,0
DA:63,0
DA:64,0
DA:65,0
DA:66,0
DA:67,0
DA:70,0
DA:71,0
DA:72,0
DA:73,0
DA:74,0
DA:75,0
DA:76,0
DA:77,0
DA:78,0
DA:79,0
DA:81,0
DA:82,0
DA:83,0
DA:84,0
DA:86,0
DA:89,0
DA:90,0
DA:92,0
DA:93,0
DA:94,0
DA:95,0
DA:96,0
DA:97,0
DA:99,0
DA:100,0
DA:101,0
DA:102,0
DA:103,0
DA:104,0
DA:105,0
DA:106,0
DA:107,0
DA:108,0
DA:109,0
DA:110,0
DA:111,0
DA:112,0
DA:113,0
DA:114,0
DA:115,0
DA:116,0
DA:117,0
DA:120,0
DA:121,0
DA:122,0
DA:125,0
DA:126,0
DA:127,0
DA:193,0
DA:194,0
DA:195,0
DA:196,0
DA:197,0
DA:198,0
DA:199,0
DA:200,0
DA:201,0
DA:202,0
DA:203,0
DA:204,0
DA:205,0
DA:206,0
DA:209,0
DA:210,0
DA:211,0
DA:212,0
DA:215,0
DA:216,0
DA:217,0
DA:218,0
DA:220,0
DA:221,0
DA:222,0
DA:223,0
DA:224,0
DA:226,0
DA:227,0
DA:228,0
DA:229,0
DA:230,0
DA:231,0
DA:232,0
DA:233,0
DA:234,0
DA:235,0
DA:236,0
DA:238,0
DA:239,0
DA:240,0
DA:241,0
DA:244,0
DA:245,0
DA:246,0
DA:247,0
DA:248,0
DA:249,0
DA:250,0
DA:251,0
DA:253,0
DA:257,0
DA:260,0
DA:261,0
DA:262,0
DA:265,0
DA:266,0
DA:267,0
DA:326,0
DA:327,0
DA:328,0
DA:329,0
DA:330,0
DA:331,0
DA:332,0
DA:333,0
DA:334,0
DA:335,0
DA:336,0
DA:340,0
DA:341,0
DA:342,0
DA:343,0
DA:344,0
DA:345,0
DA:346,0
DA:347,0
DA:348,0
DA:349,0
DA:350,0
DA:351,0
DA:355,0
DA:356,0
DA:357,0
DA:358,0
DA:359,0
DA:360,0
DA:361,0
DA:362,0
DA:363,0
DA:364,0
DA:365,0
DA:366,0
DA:367,0
DA:371,0
DA:372,0
DA:373,0
DA:374,0
DA:376,0
DA:377,0
DA:378,0
DA:388,0
DA:389,0
DA:390,0
DA:391,0
DA:392,0
DA:393,0
DA:396,0
DA:397,0
DA:398,0
DA:401,0
DA:402,0
DA:403,0
DA:404,0
DA:405,0
DA:406,0
DA:408,0
DA:410,0
DA:413,0
DA:414,0
DA:415,0
DA:418,0
DA:419,0
DA:420,0
DA:421,0
DA:424,0
DA:425,0
DA:426,0
DA:430,0
DA:431,0
DA:432,0
DA:443,0
DA:444,0
DA:445,0
DA:446,0
DA:447,0
DA:448,0
DA:451,0
DA:452,0
DA:453,0
DA:456,0
DA:457,0
DA:458,0
DA:459,0
DA:461,0
DA:463,0
DA:466,0
DA:467,0
DA:468,0
DA:471,0
DA:472,0
DA:473,0
DA:476,0
DA:477,0
DA:478,0
DA:479,0
DA:483,0
DA:484,0
DA:485,0
BRF:0
BRH:0
LF:229
LH:0
end_of_record
SF:/mnt/f/Node/hivellm/vectorizer/src/benchmark/reporter.rs
FN:451,_RNCNvMNtNtCs1YuMAXYbbDa_10vectorizer9benchmark8reporterNtB4_15ReportGenerator12add_analysis0B8_
FN:472,_RNCNvMNtNtCs1YuMAXYbbDa_10vectorizer9benchmark8reporterNtB4_15ReportGenerator12add_analysiss_0B8_
FN:451,_RNCNvMNtNtCs4Tkd3OJeaSh_10vectorizer9benchmark8reporterNtB4_15ReportGenerator12add_analysis0B8_
FN:472,_RNCNvMNtNtCs4Tkd3OJeaSh_10vectorizer9benchmark8reporterNtB4_15ReportGenerator12add_analysiss_0B8_
FN:393,_RNvMNtNtCs4Tkd3OJeaSh_10vectorizer9benchmark8reporterNtB2_15ReportGenerator11save_report
FN:445,_RNvMNtNtCs4Tkd3OJeaSh_10vectorizer9benchmark8reporterNtB2_15ReportGenerator12add_analysis
FN:244,_RNvMNtNtCs4Tkd3OJeaSh_10vectorizer9benchmark8reporterNtB2_15ReportGenerator12generate_csv
FN:282,_RNvMNtNtCs4Tkd3OJeaSh_10vectorizer9benchmark8reporterNtB2_15ReportGenerator13generate_html
FN:235,_RNvMNtNtCs4Tkd3OJeaSh_10vectorizer9benchmark8reporterNtB2_15ReportGenerator13generate_json
FN:40,_RNvMNtNtCs4Tkd3OJeaSh_10vectorizer9benchmark8reporterNtB2_15ReportGenerator16with_system_info
FN:58,_RNvMNtNtCs4Tkd3OJeaSh_10vectorizer9benchmark8reporterNtB2_15ReportGenerator17generate_markdown
FN:411,_RNvMNtNtCs4Tkd3OJeaSh_10vectorizer9benchmark8reporterNtB2_15ReportGenerator20generate_all_reports
FN:52,_RNvMNtNtCs4Tkd3OJeaSh_10vectorizer9benchmark8reporterNtB2_15ReportGenerator20with_custom_template
FN:46,_RNvMNtNtCs4Tkd3OJeaSh_10vectorizer9benchmark8reporterNtB2_15ReportGenerator21with_detailed_metrics
FN:34,_RNvMNtNtCs4Tkd3OJeaSh_10vectorizer9benchmark8reporterNtB2_15ReportGenerator21with_output_directory
FN:24,_RNvMNtNtCs4Tkd3OJeaSh_10vectorizer9benchmark8reporterNtB2_15ReportGenerator3new
FN:526,_RNvXs_NtNtCs4Tkd3OJeaSh_10vectorizer9benchmark8reporterNtB4_15ReportGeneratorNtNtCs9Kp62OsN3pY_4core7default7Default7default
FNDA:0,_RNCNvMNtNtCs1YuMAXYbbDa_10vectorizer9benchmark8reporterNtB4_15ReportGenerator12add_analysis0B8_
FNDA:0,_RNCNvMNtNtCs1YuMAXYbbDa_10vectorizer9benchmark8reporterNtB4_15ReportGenerator12add_analysiss_0B8_
FNDA:0,_RNCNvMNtNtCs4Tkd3OJeaSh_10vectorizer9benchmark8reporterNtB4_15ReportGenerator12add_analysis0B8_
FNDA:0,_RNCNvMNtNtCs4Tkd3OJeaSh_10vectorizer9benchmark8reporterNtB4_15ReportGenerator12add_analysiss_0B8_
FNDA:0,_RNvMNtNtCs4Tkd3OJeaSh_10vectorizer9benchmark8reporterNtB2_15ReportGenerator11save_report
FNDA:0,_RNvMNtNtCs4Tkd3OJeaSh_10vectorizer9benchmark8reporterNtB2_15ReportGenerator12add_analysis
FNDA:0,_RNvMNtNtCs4Tkd3OJeaSh_10vectorizer9benchmark8reporterNtB2_15ReportGenerator12generate_csv
FNDA:0,_RNvMNtNtCs4Tkd3OJeaSh_10vectorizer9benchmark8reporterNtB2_15ReportGenerator13generate_html
FNDA:0,_RNvMNtNtCs4Tkd3OJeaSh_10vectorizer9benchmark8reporterNtB2_15ReportGenerator13generate_json
FNDA:0,_RNvMNtNtCs4Tkd3OJeaSh_10vectorizer9benchmark8reporterNtB2_15ReportGenerator16with_system_info
FNDA:0,_RNvMNtNtCs4Tkd3OJeaSh_10vectorizer9benchmark8reporterNtB2_15ReportGenerator17generate_markdown
FNDA:0,_RNvMNtNtCs4Tkd3OJeaSh_10vectorizer9benchmark8reporterNtB2_15ReportGenerator20generate_all_reports
FNDA:0,_RNvMNtNtCs4Tkd3OJeaSh_10vectorizer9benchmark8reporterNtB2_15ReportGenerator20with_custom_template
FNDA:0,_RNvMNtNtCs4Tkd3OJeaSh_10vectorizer9benchmark8reporterNtB2_15ReportGenerator21with_detailed_metrics
FNDA:0,_RNvMNtNtCs4Tkd3OJeaSh_10vectorizer9benchmark8reporterNtB2_15ReportGenerator21with_output_directory
FNDA:0,_RNvMNtNtCs4Tkd3OJeaSh_10vectorizer9benchmark8reporterNtB2_15ReportGenerator3new
FNDA:0,_RNvXs_NtNtCs4Tkd3OJeaSh_10vectorizer9benchmark8reporterNtB4_15ReportGeneratorNtNtCs9Kp62OsN3pY_4core7default7Default7default
FNF:15
FNH:0
DA:24,0
DA:25,0
DA:26,0
DA:27,0
DA:28,0
DA:29,0
DA:30,0
DA:31,0
DA:34,0
DA:35,0
DA:36,0
DA:37,0
DA:40,0
DA:41,0
DA:42,0
DA:43,0
DA:46,0
DA:47,0
DA:48,0
DA:49,0
DA:52,0
DA:53,0
DA:54,0
DA:55,0
DA:58,0
DA:59,0
DA:60,0
DA:61,0
DA:62,0
DA:65,0
DA:66,0
DA:69,0
DA:70,0
DA:71,0
DA:72,0
DA:73,0
DA:74,0
DA:75,0
DA:76,0
DA:77,0
DA:78,0
DA:79,0
DA:80,0
DA:81,0
DA:82,0
DA:83,0
DA:84,0
DA:85,0
DA:86,0
DA:87,0
DA:88,0
DA:91,0
DA:92,0
DA:93,0
DA:94,0
DA:95,0
DA:96,0
DA:97,0
DA:100,0
DA:101,0
DA:102,0
DA:104,0
DA:105,0
DA:106,0
DA:107,0
DA:108,0
DA:109,0
DA:110,0
DA:111,0
DA:112,0
DA:113,0
DA:115,0
DA:118,0
DA:119,0
DA:120,0
DA:121,0
DA:122,0
DA:123,0
DA:124,0
DA:125,0
DA:126,0
DA:127,0
DA:128,0
DA:129,0
DA:130,0
DA:131,0
DA:132,0
DA:133,0
DA:134,0
DA:135,0
DA:136,0
DA:137,0
DA:138,0
DA:139,0
DA:140,0
DA:141,0
DA:142,0
DA:143,0
DA:144,0
DA:145,0
DA:146,0
DA:147,0
DA:148,0
DA:149,0
DA:150,0
DA:153,0
DA:154,0
DA:156,0
DA:157,0
DA:158,0
DA:160,0
DA:161,0
DA:162,0
DA:163,0
DA:164,0
DA:165,0
DA:166,0
DA:167,0
DA:168,0
DA:169,0
DA:170,0
DA:171,0
DA:172,0
DA:173,0
DA:174,0
DA:175,0
DA:176,0
DA:177,0
DA:179,0
DA:180,0
DA:181,0
DA:182,0
DA:183,0
DA:184,0
DA:185,0
DA:186,0
DA:187,0
DA:188,0
DA:189,0
DA:190,0
DA:191,0
DA:192,0
DA:193,0
DA:194,0
DA:195,0
DA:197,0
DA:198,0
DA:199,0
DA:200,0
DA:201,0
DA:202,0
DA:203,0
DA:204,0
DA:205,0
DA:206,0
DA:207,0
DA:208,0
DA:209,0
DA:211,0
DA:212,0
DA:213,0
DA:214,0
DA:215,0
DA:216,0
DA:217,0
DA:219,0
DA:221,0
DA:224,0
DA:225,0
DA:228,0
DA:229,0
DA:231,0
DA:232,0
DA:235,0
DA:236,0
DA:237,0
DA:238,0
DA:239,0
DA:240,0
DA:241,0
DA:244,0
DA:245,0
DA:246,0
DA:247,0
DA:248,0
DA:251,0
DA:252,0
DA:253,0
DA:254,0
DA:257,0
DA:258,0
DA:259,0
DA:260,0
DA:261,0
DA:262,0
DA:263,0
DA:264,0
DA:265,0
DA:266,0
DA:267,0
DA:268,0
DA:269,0
DA:270,0
DA:271,0
DA:272,0
DA:273,0
DA:274,0
DA:275,0
DA:276,0
DA:278,0
DA:279,0
DA:282,0
DA:283,0
DA:284,0
DA:285,0
DA:286,0
DA:288,0
DA:289,0
DA:290,0
DA:291,0
DA:292,0
DA:293,0
DA:294,0
DA:297,0
DA:298,0
DA:299,0
DA:300,0
DA:301,0
DA:302,0
DA:303,0
DA:306,0
DA:307,0
DA:308,0
DA:309,0
DA:310,0
DA:312,0
DA:313,0
DA:314,0
DA:315,0
DA:316,0
DA:317,0
DA:318,0
DA:319,0
DA:320,0
DA:321,0
DA:323,0
DA:324,0
DA:327,0
DA:328,0
DA:329,0
DA:331,0
DA:332,0
DA:333,0
DA:334,0
DA:335,0
DA:336,0
DA:337,0
DA:338,0
DA:339,0
DA:340,0
DA:341,0
DA:342,0
DA:343,0
DA:344,0
DA:345,0
DA:346,0
DA:347,0
DA:348,0
DA:349,0
DA:350,0
DA:351,0
DA:352,0
DA:353,0
DA:354,0
DA:355,0
DA:356,0
DA:357,0
DA:358,0
DA:359,0
DA:360,0
DA:361,0
DA:362,0
DA:363,0
DA:364,0
DA:365,0
DA:366,0
DA:367,0
DA:368,0
DA:369,0
DA:370,0
DA:371,0
DA:372,0
DA:373,0
DA:374,0
DA:375,0
DA:376,0
DA:377,0
DA:378,0
DA:379,0
DA:380,0
DA:381,0
DA:382,0
DA:384,0
DA:385,0
DA:387,0
DA:389,0
DA:390,0
DA:393,0
DA:394,0
DA:395,0
DA:396,0
DA:397,0
DA:398,0
DA:400,0
DA:401,0
DA:402,0
DA:404,0
DA:405,0
DA:407,0
DA:408,0
DA:411,0
DA:412,0
DA:413,0
DA:414,0
DA:415,0
DA:416,0
DA:419,0
DA:420,0
DA:421,0
DA:422,0
DA:425,0
DA:426,0
DA:427,0
DA:428,0
DA:431,0
DA:432,0
DA:433,0
DA:434,0
DA:437,0
DA:438,0
DA:439,0
DA:440,0
DA:442,0
DA:443,0
DA:445,0
DA:447,0
DA:450,0
DA:451,0
DA:452,0
DA:453,0
DA:454,0
DA:455,0
DA:457,0
DA:458,0
DA:459,0
DA:460,0
DA:461,0
DA:462,0
DA:464,0
DA:465,0
DA:466,0
DA:467,0
DA:468,0
DA:469,0
DA:472,0
DA:474,0
DA:475,0
DA:476,0
DA:477,0
DA:478,0
DA:479,0
DA:481,0
DA:482,0
DA:483,0
DA:484,0
DA:485,0
DA:486,0
DA:488,0
DA:491,0
DA:492,0
DA:493,0
DA:494,0
DA:495,0
DA:496,0
DA:497,0
DA:498,0
DA:499,0
DA:502,0
DA:505,0
DA:506,0
DA:507,0
DA:510,0
DA:511,0
DA:512,0
DA:515,0
DA:516,0
DA:517,0
DA:518,0
DA:519,0
DA:521,0
DA:522,0
DA:526,0
DA:527,0
DA:528,0
BRF:0
BRH:0
LF:406
LH:0
end_of_record
SF:/mnt/f/Node/hivellm/vectorizer/src/benchmark/runner.rs
FN:492,_RNCNCNvMNtNtCs1YuMAXYbbDa_10vectorizer9benchmark6runnerNtB6_15BenchmarkRunner30benchmark_concurrent_operation00Ba_
FN:489,_RNCNvMNtNtCs1YuMAXYbbDa_10vectorizer9benchmark6runnerNtB4_15BenchmarkRunner30benchmark_concurrent_operation0B8_
FN:492,_RNCNCNvMNtNtCs4Tkd3OJeaSh_10vectorizer9benchmark6runnerNtB6_15BenchmarkRunner30benchmark_concurrent_operation00Ba_
FN:489,_RNCNvMNtNtCs4Tkd3OJeaSh_10vectorizer9benchmark6runnerNtB4_15BenchmarkRunner30benchmark_concurrent_operation0B8_
FN:149,_RNvMNtNtCs4Tkd3OJeaSh_10vectorizer9benchmark6runnerNtB2_15BenchmarkRunner16benchmark_delete
FN:82,_RNvMNtNtCs4Tkd3OJeaSh_10vectorizer9benchmark6runnerNtB2_15BenchmarkRunner16benchmark_insert
FN:35,_RNvMNtNtCs4Tkd3OJeaSh_10vectorizer9benchmark6runnerNtB2_15BenchmarkRunner16benchmark_search
FN:105,_RNvMNtNtCs4Tkd3OJeaSh_10vectorizer9benchmark6runnerNtB2_15BenchmarkRunner16benchmark_update
FN:29,_RNvMNtNtCs4Tkd3OJeaSh_10vectorizer9benchmark6runnerNtB2_15BenchmarkRunner22with_system_monitoring
FN:172,_RNvMNtNtCs4Tkd3OJeaSh_10vectorizer9benchmark6runnerNtB2_15BenchmarkRunner26benchmark_concurrent_mixed
FN:385,_RNvMNtNtCs4Tkd3OJeaSh_10vectorizer9benchmark6runnerNtB2_15BenchmarkRunner26benchmark_delete_operation
FN:285,_RNvMNtNtCs4Tkd3OJeaSh_10vectorizer9benchmark6runnerNtB2_15BenchmarkRunner26benchmark_insert_operation
FN:229,_RNvMNtNtCs4Tkd3OJeaSh_10vectorizer9benchmark6runnerNtB2_15BenchmarkRunner26benchmark_search_operation
FN:338,_RNvMNtNtCs4Tkd3OJeaSh_10vectorizer9benchmark6runnerNtB2_15BenchmarkRunner26benchmark_update_operation
FN:194,_RNvMNtNtCs4Tkd3OJeaSh_10vectorizer9benchmark6runnerNtB2_15BenchmarkRunner27run_comprehensive_benchmark
FN:448,_RNvMNtNtCs4Tkd3OJeaSh_10vectorizer9benchmark6runnerNtB2_15BenchmarkRunner30benchmark_concurrent_operation
FN:21,_RNvMNtNtCs4Tkd3OJeaSh_10vectorizer9benchmark6runnerNtB2_15BenchmarkRunner3new
FNDA:0,_RNCNCNvMNtNtCs1YuMAXYbbDa_10vectorizer9benchmark6runnerNtB6_15BenchmarkRunner30benchmark_concurrent_operation00Ba_
FNDA:0,_RNCNvMNtNtCs1YuMAXYbbDa_10vectorizer9benchmark6runnerNtB4_15BenchmarkRunner30benchmark_concurrent_operation0B8_
FNDA:0,_RNCNCNvMNtNtCs4Tkd3OJeaSh_10vectorizer9benchmark6runnerNtB6_15BenchmarkRunner30benchmark_concurrent_operation00Ba_
FNDA:0,_RNCNvMNtNtCs4Tkd3OJeaSh_10vectorizer9benchmark6runnerNtB4_15BenchmarkRunner30benchmark_concurrent_operation0B8_
FNDA:0,_RNvMNtNtCs4Tkd3OJeaSh_10vectorizer9benchmark6runnerNtB2_15BenchmarkRunner16benchmark_delete
FNDA:0,_RNvMNtNtCs4Tkd3OJeaSh_10vectorizer9benchmark6runnerNtB2_15BenchmarkRunner16benchmark_insert
FNDA:0,_RNvMNtNtCs4Tkd3OJeaSh_10vectorizer9benchmark6runnerNtB2_15BenchmarkRunner16benchmark_search
FNDA:0,_RNvMNtNtCs4Tkd3OJeaSh_10vectorizer9benchmark6runnerNtB2_15BenchmarkRunner16benchmark_update
FNDA:0,_RNvMNtNtCs4Tkd3OJeaSh_10vectorizer9benchmark6runnerNtB2_15BenchmarkRunner22with_system_monitoring
FNDA:0,_RNvMNtNtCs4Tkd3OJeaSh_10vectorizer9benchmark6runnerNtB2_15BenchmarkRunner26benchmark_concurrent_mixed
FNDA:0,_RNvMNtNtCs4Tkd3OJeaSh_10vectorizer9benchmark6runnerNtB2_15BenchmarkRunner26benchmark_delete_operation
FNDA:0,_RNvMNtNtCs4Tkd3OJeaSh_10vectorizer9benchmark6runnerNtB2_15BenchmarkRunner26benchmark_insert_operation
FNDA:0,_RNvMNtNtCs4Tkd3OJeaSh_10vectorizer9benchmark6runnerNtB2_15BenchmarkRunner26benchmark_search_operation
FNDA:0,_RNvMNtNtCs4Tkd3OJeaSh_10vectorizer9benchmark6runnerNtB2_15BenchmarkRunner26benchmark_update_operation
FNDA:0,_RNvMNtNtCs4Tkd3OJeaSh_10vectorizer9benchmark6runnerNtB2_15BenchmarkRunner27run_comprehensive_benchmark
FNDA:0,_RNvMNtNtCs4Tkd3OJeaSh_10vectorizer9benchmark6runnerNtB2_15BenchmarkRunner30benchmark_concurrent_operation
FNDA:0,_RNvMNtNtCs4Tkd3OJeaSh_10vectorizer9benchmark6runnerNtB2_15BenchmarkRunner3new
FNF:15
FNH:0
DA:21,0
DA:22,0
DA:23,0
DA:24,0
DA:25,0
DA:26,0
DA:29,0
DA:30,0
DA:31,0
DA:32,0
DA:35,0
DA:36,0
DA:37,0
DA:38,0
DA:39,0
DA:40,0
DA:41,0
DA:42,0
DA:43,0
DA:47,0
DA:48,0
DA:49,0
DA:50,0
DA:51,0
DA:52,0
DA:53,0
DA:54,0
DA:55,0
DA:56,0
DA:58,0
DA:61,0
DA:62,0
DA:63,0
DA:64,0
DA:67,0
DA:70,0
DA:71,0
DA:72,0
DA:73,0
DA:76,0
DA:77,0
DA:78,0
DA:79,0
DA:82,0
DA:83,0
DA:84,0
DA:85,0
DA:86,0
DA:87,0
DA:88,0
DA:89,0
DA:90,0
DA:93,0
DA:94,0
DA:95,0
DA:96,0
DA:99,0
DA:100,0
DA:101,0
DA:102,0
DA:105,0
DA:106,0
DA:107,0
DA:108,0
DA:109,0
DA:110,0
DA:111,0
DA:112,0
DA:113,0
DA:117,0
DA:118,0
DA:119,0
DA:120,0
DA:121,0
DA:122,0
DA:123,0
DA:124,0
DA:125,0
DA:126,0
DA:128,0
DA:131,0
DA:132,0
DA:133,0
DA:136,0
DA:137,0
DA:138,0
DA:139,0
DA:140,0
DA:143,0
DA:144,0
DA:145,0
DA:146,0
DA:149,0
DA:150,0
DA:151,0
DA:152,0
DA:153,0
DA:154,0
DA:155,0
DA:156,0
DA:157,0
DA:160,0
DA:161,0
DA:162,0
DA:163,0
DA:166,0
DA:167,0
DA:168,0
DA:169,0
DA:172,0
DA:173,0
DA:174,0
DA:175,0
DA:176,0
DA:177,0
DA:178,0
DA:179,0
DA:180,0
DA:181,0
DA:184,0
DA:185,0
DA:187,0
DA:188,0
DA:189,0
DA:190,0
DA:191,0
DA:194,0
DA:195,0
DA:196,0
DA:197,0
DA:198,0
DA:201,0
DA:202,0
DA:203,0
DA:206,0
DA:207,0
DA:208,0
DA:211,0
DA:212,0
DA:213,0
DA:216,0
DA:217,0
DA:218,0
DA:221,0
DA:222,0
DA:224,0
DA:225,0
DA:229,0
DA:230,0
DA:231,0
DA:232,0
DA:233,0
DA:234,0
DA:235,0
DA:236,0
DA:237,0
DA:238,0
DA:239,0
DA:242,0
DA:243,0
DA:246,0
DA:247,0
DA:248,0
DA:249,0
DA:250,0
DA:252,0
DA:255,0
DA:256,0
DA:258,0
DA:259,0
DA:260,0
DA:261,0
DA:263,0
DA:264,0
DA:265,0
DA:266,0
DA:267,0
DA:268,0
DA:270,0
DA:272,0
DA:273,0
DA:274,0
DA:276,0
DA:277,0
DA:278,0
DA:279,0
DA:280,0
DA:281,0
DA:282,0
DA:283,0
DA:285,0
DA:286,0
DA:287,0
DA:288,0
DA:289,0
DA:290,0
DA:291,0
DA:292,0
DA:296,0
DA:297,0
DA:299,0
DA:300,0
DA:302,0
DA:303,0
DA:304,0
DA:305,0
DA:306,0
DA:307,0
DA:308,0
DA:309,0
DA:310,0
DA:311,0
DA:312,0
DA:313,0
DA:315,0
DA:317,0
DA:318,0
DA:319,0
DA:320,0
DA:321,0
DA:322,0
DA:323,0
DA:326,0
DA:327,0
DA:329,0
DA:330,0
DA:331,0
DA:332,0
DA:333,0
DA:334,0
DA:335,0
DA:336,0
DA:338,0
DA:339,0
DA:340,0
DA:341,0
DA:342,0
DA:343,0
DA:344,0
DA:345,0
DA:347,0
DA:348,0
DA:350,0
DA:351,0
DA:353,0
DA:354,0
DA:355,0
DA:358,0
DA:359,0
DA:361,0
DA:362,0
DA:363,0
DA:364,0
DA:367,0
DA:368,0
DA:369,0
DA:370,0
DA:373,0
DA:374,0
DA:376,0
DA:377,0
DA:378,0
DA:379,0
DA:380,0
DA:381,0
DA:382,0
DA:383,0
DA:385,0
DA:386,0
DA:387,0
DA:388,0
DA:389,0
DA:390,0
DA:391,0
DA:393,0
DA:394,0
DA:396,0
DA:397,0
DA:400,0
DA:401,0
DA:402,0
DA:403,0
DA:404,0
DA:405,0
DA:406,0
DA:407,0
DA:408,0
DA:409,0
DA:411,0
DA:414,0
DA:415,0
DA:416,0
DA:418,0
DA:419,0
DA:423,0
DA:424,0
DA:426,0
DA:427,0
DA:430,0
DA:431,0
DA:432,0
DA:433,0
DA:436,0
DA:437,0
DA:439,0
DA:440,0
DA:441,0
DA:442,0
DA:443,0
DA:444,0
DA:445,0
DA:446,0
DA:448,0
DA:449,0
DA:450,0
DA:451,0
DA:452,0
DA:453,0
DA:454,0
DA:455,0
DA:456,0
DA:461,0
DA:462,0
DA:463,0
DA:464,0
DA:465,0
DA:466,0
DA:467,0
DA:468,0
DA:469,0
DA:470,0
DA:472,0
DA:473,0
DA:476,0
DA:477,0
DA:478,0
DA:480,0
DA:481,0
DA:484,0
DA:485,0
DA:488,0
DA:489,0
DA:490,0
DA:491,0
DA:492,0
DA:493,0
DA:495,0
DA:496,0
DA:497,0
DA:499,0
DA:500,0
DA:501,0
DA:502,0
DA:503,0
DA:504,0
DA:505,0
DA:506,0
DA:507,0
DA:508,0
DA:509,0
DA:510,0
DA:511,0
DA:512,0
DA:513,0
DA:516,0
DA:517,0
DA:518,0
DA:519,0
DA:523,0
DA:524,0
DA:527,0
DA:528,0
DA:529,0
DA:530,0
DA:533,0
DA:534,0
DA:535,0
DA:536,0
DA:538,0
DA:539,0
DA:540,0
DA:542,0
DA:543,0
DA:544,0
DA:545,0
DA:546,0
DA:547,0
DA:548,0
DA:549,0
BRF:0
BRH:0
LF:391
LH:0
end_of_record
SF:/mnt/f/Node/hivellm/vectorizer/src/benchmark/system_monitor.rs
FN:186,_RNvNtNtNtCs1YuMAXYbbDa_10vectorizer9benchmark14system_monitor5linux12get_cpu_time
FN:275,_RNvNtNtNtCs1YuMAXYbbDa_10vectorizer9benchmark14system_monitor5linux16get_load_average
FN:205,_RNvNtNtNtCs1YuMAXYbbDa_10vectorizer9benchmark14system_monitor5linux16get_memory_usage
FN:261,_RNvNtNtNtCs1YuMAXYbbDa_10vectorizer9benchmark14system_monitor5linux16get_thread_count
FN:233,_RNvNtNtNtCs1YuMAXYbbDa_10vectorizer9benchmark14system_monitor5linux16get_total_memory
FN:247,_RNvNtNtNtCs1YuMAXYbbDa_10vectorizer9benchmark14system_monitor5linux18get_process_memory
FN:219,_RNvNtNtNtCs1YuMAXYbbDa_10vectorizer9benchmark14system_monitor5linux20get_available_memory
FN:73,_RNCNvMNtNtCs1YuMAXYbbDa_10vectorizer9benchmark14system_monitorNtB4_13SystemMonitor16start_monitoring0B8_
FN:169,_RNvMNtNtCs1YuMAXYbbDa_10vectorizer9benchmark14system_monitorNtB2_13SystemMonitor12get_duration
FN:128,_RNvMNtNtCs1YuMAXYbbDa_10vectorizer9benchmark14system_monitorNtB2_13SystemMonitor12get_snapshot
FN:149,_RNvMNtNtCs1YuMAXYbbDa_10vectorizer9benchmark14system_monitorNtB2_13SystemMonitor13get_cpu_usage
FN:164,_RNvMNtNtCs1YuMAXYbbDa_10vectorizer9benchmark14system_monitorNtB2_13SystemMonitor13is_monitoring
FN:159,_RNvMNtNtCs1YuMAXYbbDa_10vectorizer9benchmark14system_monitorNtB2_13SystemMonitor15get_peak_memory
FN:111,_RNvMNtNtCs1YuMAXYbbDa_10vectorizer9benchmark14system_monitorNtB2_13SystemMonitor15stop_monitoring
FN:154,_RNvMNtNtCs1YuMAXYbbDa_10vectorizer9benchmark14system_monitorNtB2_13SystemMonitor16get_memory_usage
FN:60,_RNvMNtNtCs1YuMAXYbbDa_10vectorizer9benchmark14system_monitorNtB2_13SystemMonitor16start_monitoring
FN:48,_RNvMNtNtCs1YuMAXYbbDa_10vectorizer9benchmark14system_monitorNtB2_13SystemMonitor3new
FN:425,_RNvNtNtCs1YuMAXYbbDa_10vectorizer9benchmark14system_monitor12get_cpu_time
FN:455,_RNvNtNtCs1YuMAXYbbDa_10vectorizer9benchmark14system_monitor16get_load_average
FN:430,_RNvNtNtCs1YuMAXYbbDa_10vectorizer9benchmark14system_monitor16get_memory_usage
FN:450,_RNvNtNtCs1YuMAXYbbDa_10vectorizer9benchmark14system_monitor16get_thread_count
FN:440,_RNvNtNtCs1YuMAXYbbDa_10vectorizer9benchmark14system_monitor16get_total_memory
FN:445,_RNvNtNtCs1YuMAXYbbDa_10vectorizer9benchmark14system_monitor18get_process_memory
FN:435,_RNvNtNtCs1YuMAXYbbDa_10vectorizer9benchmark14system_monitor20get_available_memory
FN:175,_RNvXs_NtNtCs1YuMAXYbbDa_10vectorizer9benchmark14system_monitorNtB4_13SystemMonitorNtNtNtCs9Kp62OsN3pY_4core3ops4drop4Drop4drop
FN:73,_RNCNvMNtNtCs4Tkd3OJeaSh_10vectorizer9benchmark14system_monitorNtB4_13SystemMonitor16start_monitoring0B8_
FN:169,_RNvMNtNtCs4Tkd3OJeaSh_10vectorizer9benchmark14system_monitorNtB2_13SystemMonitor12get_duration
FN:128,_RNvMNtNtCs4Tkd3OJeaSh_10vectorizer9benchmark14system_monitorNtB2_13SystemMonitor12get_snapshot
FN:149,_RNvMNtNtCs4Tkd3OJeaSh_10vectorizer9benchmark14system_monitorNtB2_13SystemMonitor13get_cpu_usage
FN:164,_RNvMNtNtCs4Tkd3OJeaSh_10vectorizer9benchmark14system_monitorNtB2_13SystemMonitor13is_monitoring
FN:159,_RNvMNtNtCs4Tkd3OJeaSh_10vectorizer9benchmark14system_monitorNtB2_13SystemMonitor15get_peak_memory
FN:111,_RNvMNtNtCs4Tkd3OJeaSh_10vectorizer9benchmark14system_monitorNtB2_13SystemMonitor15stop_monitoring
FN:154,_RNvMNtNtCs4Tkd3OJeaSh_10vectorizer9benchmark14system_monitorNtB2_13SystemMonitor16get_memory_usage
FN:60,_RNvMNtNtCs4Tkd3OJeaSh_10vectorizer9benchmark14system_monitorNtB2_13SystemMonitor16start_monitoring
FN:48,_RNvMNtNtCs4Tkd3OJeaSh_10vectorizer9benchmark14system_monitorNtB2_13SystemMonitor3new
FN:425,_RNvNtNtCs4Tkd3OJeaSh_10vectorizer9benchmark14system_monitor12get_cpu_time
FN:455,_RNvNtNtCs4Tkd3OJeaSh_10vectorizer9benchmark14system_monitor16get_load_average
FN:430,_RNvNtNtCs4Tkd3OJeaSh_10vectorizer9benchmark14system_monitor16get_memory_usage
FN:450,_RNvNtNtCs4Tkd3OJeaSh_10vectorizer9benchmark14system_monitor16get_thread_count
FN:440,_RNvNtNtCs4Tkd3OJeaSh_10vectorizer9benchmark14system_monitor16get_total_memory
FN:445,_RNvNtNtCs4Tkd3OJeaSh_10vectorizer9benchmark14system_monitor18get_process_memory
FN:435,_RNvNtNtCs4Tkd3OJeaSh_10vectorizer9benchmark14system_monitor20get_available_memory
FN:186,_RNvNtNtNtCs4Tkd3OJeaSh_10vectorizer9benchmark14system_monitor5linux12get_cpu_time
FN:275,_RNvNtNtNtCs4Tkd3OJeaSh_10vectorizer9benchmark14system_monitor5linux16get_load_average
FN:205,_RNvNtNtNtCs4Tkd3OJeaSh_10vectorizer9benchmark14system_monitor5linux16get_memory_usage
FN:261,_RNvNtNtNtCs4Tkd3OJeaSh_10vectorizer9benchmark14system_monitor5linux16get_thread_count
FN:233,_RNvNtNtNtCs4Tkd3OJeaSh_10vectorizer9benchmark14system_monitor5linux16get_total_memory
FN:247,_RNvNtNtNtCs4Tkd3OJeaSh_10vectorizer9benchmark14system_monitor5linux18get_process_memory
FN:219,_RNvNtNtNtCs4Tkd3OJeaSh_10vectorizer9benchmark14system_monitor5linux20get_available_memory
FN:175,_RNvXs_NtNtCs4Tkd3OJeaSh_10vectorizer9benchmark14system_monitorNtB4_13SystemMonitorNtNtNtCs9Kp62OsN3pY_4core3ops4drop4Drop4drop
FNDA:0,_RNvNtNtNtCs1YuMAXYbbDa_10vectorizer9benchmark14system_monitor5linux12get_cpu_time
FNDA:0,_RNvNtNtNtCs1YuMAXYbbDa_10vectorizer9benchmark14system_monitor5linux16get_load_average
FNDA:0,_RNvNtNtNtCs1YuMAXYbbDa_10vectorizer9benchmark14system_monitor5linux16get_memory_usage
FNDA:0,_RNvNtNtNtCs1YuMAXYbbDa_10vectorizer9benchmark14system_monitor5linux16get_thread_count
FNDA:0,_RNvNtNtNtCs1YuMAXYbbDa_10vectorizer9benchmark14system_monitor5linux16get_total_memory
FNDA:0,_RNvNtNtNtCs1YuMAXYbbDa_10vectorizer9benchmark14system_monitor5linux18get_process_memory
FNDA:0,_RNvNtNtNtCs1YuMAXYbbDa_10vectorizer9benchmark14system_monitor5linux20get_available_memory
FNDA:0,_RNCNvMNtNtCs1YuMAXYbbDa_10vectorizer9benchmark14system_monitorNtB4_13SystemMonitor16start_monitoring0B8_
FNDA:0,_RNvMNtNtCs1YuMAXYbbDa_10vectorizer9benchmark14system_monitorNtB2_13SystemMonitor12get_duration
FNDA:0,_RNvMNtNtCs1YuMAXYbbDa_10vectorizer9benchmark14system_monitorNtB2_13SystemMonitor12get_snapshot
FNDA:0,_RNvMNtNtCs1YuMAXYbbDa_10vectorizer9benchmark14system_monitorNtB2_13SystemMonitor13get_cpu_usage
FNDA:0,_RNvMNtNtCs1YuMAXYbbDa_10vectorizer9benchmark14system_monitorNtB2_13SystemMonitor13is_monitoring
FNDA:0,_RNvMNtNtCs1YuMAXYbbDa_10vectorizer9benchmark14system_monitorNtB2_13SystemMonitor15get_peak_memory
FNDA:0,_RNvMNtNtCs1YuMAXYbbDa_10vectorizer9benchmark14system_monitorNtB2_13SystemMonitor15stop_monitoring
FNDA:0,_RNvMNtNtCs1YuMAXYbbDa_10vectorizer9benchmark14system_monitorNtB2_13SystemMonitor16get_memory_usage
FNDA:0,_RNvMNtNtCs1YuMAXYbbDa_10vectorizer9benchmark14system_monitorNtB2_13SystemMonitor16start_monitoring
FNDA:0,_RNvMNtNtCs1YuMAXYbbDa_10vectorizer9benchmark14system_monitorNtB2_13SystemMonitor3new
FNDA:0,_RNvNtNtCs1YuMAXYbbDa_10vectorizer9benchmark14system_monitor12get_cpu_time
FNDA:0,_RNvNtNtCs1YuMAXYbbDa_10vectorizer9benchmark14system_monitor16get_load_average
FNDA:0,_RNvNtNtCs1YuMAXYbbDa_10vectorizer9benchmark14system_monitor16get_memory_usage
FNDA:0,_RNvNtNtCs1YuMAXYbbDa_10vectorizer9benchmark14system_monitor16get_thread_count
FNDA:0,_RNvNtNtCs1YuMAXYbbDa_10vectorizer9benchmark14system_monitor16get_total_memory
FNDA:0,_RNvNtNtCs1YuMAXYbbDa_10vectorizer9benchmark14system_monitor18get_process_memory
FNDA:0,_RNvNtNtCs1YuMAXYbbDa_10vectorizer9benchmark14system_monitor20get_available_memory
FNDA:0,_RNvXs_NtNtCs1YuMAXYbbDa_10vectorizer9benchmark14system_monitorNtB4_13SystemMonitorNtNtNtCs9Kp62OsN3pY_4core3ops4drop4Drop4drop
FNDA:0,_RNCNvMNtNtCs4Tkd3OJeaSh_10vectorizer9benchmark14system_monitorNtB4_13SystemMonitor16start_monitoring0B8_
FNDA:0,_RNvMNtNtCs4Tkd3OJeaSh_10vectorizer9benchmark14system_monitorNtB2_13SystemMonitor12get_duration
FNDA:0,_RNvMNtNtCs4Tkd3OJeaSh_10vectorizer9benchmark14system_monitorNtB2_13SystemMonitor12get_snapshot
FNDA:0,_RNvMNtNtCs4Tkd3OJeaSh_10vectorizer9benchmark14system_monitorNtB2_13SystemMonitor13get_cpu_usage
FNDA:0,_RNvMNtNtCs4Tkd3OJeaSh_10vectorizer9benchmark14system_monitorNtB2_13SystemMonitor13is_monitoring
FNDA:0,_RNvMNtNtCs4Tkd3OJeaSh_10vectorizer9benchmark14system_monitorNtB2_13SystemMonitor15get_peak_memory
FNDA:0,_RNvMNtNtCs4Tkd3OJeaSh_10vectorizer9benchmark14system_monitorNtB2_13SystemMonitor15stop_monitoring
FNDA:0,_RNvMNtNtCs4Tkd3OJeaSh_10vectorizer9benchmark14system_monitorNtB2_13SystemMonitor16get_memory_usage
FNDA:0,_RNvMNtNtCs4Tkd3OJeaSh_10vectorizer9benchmark14system_monitorNtB2_13SystemMonitor16start_monitoring
FNDA:0,_RNvMNtNtCs4Tkd3OJeaSh_10vectorizer9benchmark14system_monitorNtB2_13SystemMonitor3new
FNDA:0,_RNvNtNtCs4Tkd3OJeaSh_10vectorizer9benchmark14system_monitor12get_cpu_time
FNDA:0,_RNvNtNtCs4Tkd3OJeaSh_10vectorizer9benchmark14system_monitor16get_load_average
FNDA:0,_RNvNtNtCs4Tkd3OJeaSh_10vectorizer9benchmark14system_monitor16get_memory_usage
FNDA:0,_RNvNtNtCs4Tkd3OJeaSh_10vectorizer9benchmark14system_monitor16get_thread_count
FNDA:0,_RNvNtNtCs4Tkd3OJeaSh_10vectorizer9benchmark14system_monitor16get_total_memory
FNDA:0,_RNvNtNtCs4Tkd3OJeaSh_10vectorizer9benchmark14system_monitor18get_process_memory
FNDA:0,_RNvNtNtCs4Tkd3OJeaSh_10vectorizer9benchmark14system_monitor20get_available_memory
FNDA:0,_RNvNtNtNtCs4Tkd3OJeaSh_10vectorizer9benchmark14system_monitor5linux12get_cpu_time
FNDA:0,_RNvNtNtNtCs4Tkd3OJeaSh_10vectorizer9benchmark14system_monitor5linux16get_load_average
FNDA:0,_RNvNtNtNtCs4Tkd3OJeaSh_10vectorizer9benchmark14system_monitor5linux16get_memory_usage
FNDA:0,_RNvNtNtNtCs4Tkd3OJeaSh_10vectorizer9benchmark14system_monitor5linux16get_thread_count
FNDA:0,_RNvNtNtNtCs4Tkd3OJeaSh_10vectorizer9benchmark14system_monitor5linux16get_total_memory
FNDA:0,_RNvNtNtNtCs4Tkd3OJeaSh_10vectorizer9benchmark14system_monitor5linux18get_process_memory
FNDA:0,_RNvNtNtNtCs4Tkd3OJeaSh_10vectorizer9benchmark14system_monitor5linux20get_available_memory
FNDA:0,_RNvXs_NtNtCs4Tkd3OJeaSh_10vectorizer9benchmark14system_monitorNtB4_13SystemMonitorNtNtNtCs9Kp62OsN3pY_4core3ops4drop4Drop4drop
FNF:25
FNH:0
DA:48,0
DA:49,0
DA:50,0
DA:51,0
DA:52,0
DA:53,0
DA:54,0
DA:55,0
DA:56,0
DA:57,0
DA:60,0
DA:61,0
DA:62,0
DA:63,0
DA:65,0
DA:66,0
DA:68,0
DA:69,0
DA:70,0
DA:71,0
DA:73,0
DA:74,0
DA:75,0
DA:77,0
DA:78,0
DA:81,0
DA:82,0
DA:83,0
DA:85,0
DA:86,0
DA:87,0
DA:88,0
DA:89,0
DA:90,0
DA:91,0
DA:92,0
DA:95,0
DA:96,0
DA:99,0
DA:100,0
DA:101,0
DA:102,0
DA:104,0
DA:106,0
DA:107,0
DA:108,0
DA:111,0
DA:112,0
DA:113,0
DA:114,0
DA:116,0
DA:118,0
DA:119,0
DA:120,0
DA:121,0
DA:122,0
DA:124,0
DA:125,0
DA:128,0
DA:129,0
DA:130,0
DA:131,0
DA:133,0
DA:134,0
DA:135,0
DA:136,0
DA:137,0
DA:138,0
DA:139,0
DA:140,0
DA:141,0
DA:142,0
DA:143,0
DA:144,0
DA:145,0
DA:146,0
DA:149,0
DA:150,0
DA:151,0
DA:154,0
DA:155,0
DA:156,0
DA:159,0
DA:160,0
DA:161,0
DA:164,0
DA:165,0
DA:166,0
DA:169,0
DA:170,0
DA:171,0
DA:175,0
DA:176,0
DA:177,0
DA:186,0
DA:187,0
DA:188,0
DA:189,0
DA:190,0
DA:191,0
DA:192,0
DA:193,0
DA:194,0
DA:195,0
DA:196,0
DA:197,0
DA:198,0
DA:199,0
DA:200,0
DA:201,0
DA:202,0
DA:203,0
DA:205,0
DA:206,0
DA:207,0
DA:208,0
DA:209,0
DA:210,0
DA:211,0
DA:212,0
DA:213,0
DA:215,0
DA:216,0
DA:217,0
DA:219,0
DA:220,0
DA:221,0
DA:222,0
DA:223,0
DA:224,0
DA:225,0
DA:226,0
DA:227,0
DA:229,0
DA:230,0
DA:231,0
DA:233,0
DA:234,0
DA:235,0
DA:236,0
DA:237,0
DA:238,0
DA:239,0
DA:240,0
DA:241,0
DA:243,0
DA:244,0
DA:245,0
DA:247,0
DA:248,0
DA:249,0
DA:250,0
DA:251,0
DA:252,0
DA:253,0
DA:254,0
DA:255,0
DA:257,0
DA:258,0
DA:259,0
DA:261,0
DA:262,0
DA:263,0
DA:264,0
DA:265,0
DA:266,0
DA:267,0
DA:268,0
DA:269,0
DA:271,0
DA:272,0
DA:273,0
DA:275,0
DA:276,0
DA:277,0
DA:278,0
DA:279,0
DA:280,0
DA:281,0
DA:282,0
DA:283,0
DA:284,0
DA:285,0
DA:425,0
DA:426,0
DA:427,0
DA:430,0
DA:431,0
DA:432,0
DA:435,0
DA:436,0
DA:437,0
DA:440,0
DA:441,0
DA:442,0
DA:445,0
DA:446,0
DA:447,0
DA:450,0
DA:451,0
DA:452,0
DA:455,0
DA:456,0
DA:457,0
BRF:0
BRH:0
LF:205
LH:0
end_of_record
SF:/mnt/f/Node/hivellm/vectorizer/src/benchmark/utils.rs
FN:365,_RNCNvNtNtNtCs1YuMAXYbbDa_10vectorizer9benchmark5utils4file18get_file_extension0B9_
FN:366,_RNCNvNtNtNtCs1YuMAXYbbDa_10vectorizer9benchmark5utils4file18get_file_extensions_0B9_
FN:283,_RINvNtNtNtCs1YuMAXYbbDa_10vectorizer9benchmark5utils6timing12measure_timeppEB8_
FN:294,_RINvNtNtNtCs1YuMAXYbbDa_10vectorizer9benchmark5utils6timing18measure_time_asyncpppEB8_
FN:298,_RNCINvNtNtNtCs1YuMAXYbbDa_10vectorizer9benchmark5utils6timing18measure_time_asyncpppE0Ba_
FN:399,_RNvNtNtNtCs1YuMAXYbbDa_10vectorizer9benchmark5utils4math18standard_deviation
FN:373,_RNvNtNtNtCs1YuMAXYbbDa_10vectorizer9benchmark5utils4math4mean
FN:382,_RNvNtNtNtCs1YuMAXYbbDa_10vectorizer9benchmark5utils4math6median
FN:444,_RNvNtNtNtCs1YuMAXYbbDa_10vectorizer9benchmark5utils4math8kurtosis
FN:421,_RNvNtNtNtCs1YuMAXYbbDa_10vectorizer9benchmark5utils4math8skewness
FN:411,_RNvNtNtNtCs1YuMAXYbbDa_10vectorizer9benchmark5utils4math8variance
FN:406,_RNCNvNtNtNtCs1YuMAXYbbDa_10vectorizer9benchmark5utils4math18standard_deviation0B9_
FN:388,_RNCNvNtNtNtCs1YuMAXYbbDa_10vectorizer9benchmark5utils4math6median0B9_
FN:459,_RNCNvNtNtNtCs1YuMAXYbbDa_10vectorizer9benchmark5utils4math8kurtosis0B9_
FN:436,_RNCNvNtNtNtCs1YuMAXYbbDa_10vectorizer9benchmark5utils4math8skewness0B9_
FN:417,_RNCNvNtNtNtCs1YuMAXYbbDa_10vectorizer9benchmark5utils4math8variance0B9_
FN:200,_RNCNvNtNtNtCs1YuMAXYbbDa_10vectorizer9benchmark5utils5utils12linear_trend0B9_
FN:203,_RNCNvNtNtNtCs1YuMAXYbbDa_10vectorizer9benchmark5utils5utils12linear_trends0_0B9_
FN:202,_RNCNvNtNtNtCs1YuMAXYbbDa_10vectorizer9benchmark5utils5utils12linear_trends_0B9_
FN:139,_RNCNvNtNtNtCs1YuMAXYbbDa_10vectorizer9benchmark5utils5utils15detect_outliers0B9_
FN:153,_RNCNvNtNtNtCs1YuMAXYbbDa_10vectorizer9benchmark5utils5utils15detect_outlierss0_0B9_
FN:140,_RNCNvNtNtNtCs1YuMAXYbbDa_10vectorizer9benchmark5utils5utils15detect_outlierss_0B9_
FN:113,_RNCNvNtNtNtCs1YuMAXYbbDa_10vectorizer9benchmark5utils5utils15percentile_rank0B9_
FN:97,_RNCNvNtNtNtCs1YuMAXYbbDa_10vectorizer9benchmark5utils5utils19confidence_interval0B9_
FN:124,_RNCNvNtNtNtCs1YuMAXYbbDa_10vectorizer9benchmark5utils5utils19interquartile_range0B9_
FN:224,_RNCNvNtNtNtCs1YuMAXYbbDa_10vectorizer9benchmark5utils5utils23correlation_coefficient0B9_
FN:228,_RNCNvNtNtNtCs1YuMAXYbbDa_10vectorizer9benchmark5utils5utils23correlation_coefficients0_0B9_
FN:227,_RNCNvNtNtNtCs1YuMAXYbbDa_10vectorizer9benchmark5utils5utils23correlation_coefficients_0B9_
FN:83,_RNCNvNtNtNtCs1YuMAXYbbDa_10vectorizer9benchmark5utils5utils24coefficient_of_variation0B9_
FN:262,_RNCNvMNtNtNtCs1YuMAXYbbDa_10vectorizer9benchmark5utils6timingNtB4_5Timer4stop0Ba_
FN:267,_RNCNvMNtNtNtCs1YuMAXYbbDa_10vectorizer9benchmark5utils6timingNtB4_5Timer7elapsed0Ba_
FN:271,_RNvMNtNtNtCs1YuMAXYbbDa_10vectorizer9benchmark5utils6timingNtB2_5Timer10is_running
FN:251,_RNvMNtNtNtCs1YuMAXYbbDa_10vectorizer9benchmark5utils6timingNtB2_5Timer3new
FN:261,_RNvMNtNtNtCs1YuMAXYbbDa_10vectorizer9benchmark5utils6timingNtB2_5Timer4stop
FN:256,_RNvMNtNtNtCs1YuMAXYbbDa_10vectorizer9benchmark5utils6timingNtB2_5Timer5start
FN:266,_RNvMNtNtNtCs1YuMAXYbbDa_10vectorizer9benchmark5utils6timingNtB2_5Timer7elapsed
FN:277,_RNvXs_NtNtNtCs1YuMAXYbbDa_10vectorizer9benchmark5utils6timingNtB4_5TimerNtNtCs9Kp62OsN3pY_4core7default7Default7default
FN:68,_RNvNtNtNtCs1YuMAXYbbDa_10vectorizer9benchmark5utils5utils10efficiency
FN:25,_RNvNtNtNtCs1YuMAXYbbDa_10vectorizer9benchmark5utils5utils12format_bytes
FN:194,_RNvNtNtNtCs1YuMAXYbbDa_10vectorizer9benchmark5utils5utils12linear_trend
FN:59,_RNvNtNtNtCs1YuMAXYbbDa_10vectorizer9benchmark5utils5utils13speedup_ratio
FN:159,_RNvNtNtNtCs1YuMAXYbbDa_10vectorizer9benchmark5utils5utils14moving_average
FN:133,_RNvNtNtNtCs1YuMAXYbbDa_10vectorizer9benchmark5utils5utils15detect_outliers
FN:12,_RNvNtNtNtCs1YuMAXYbbDa_10vectorizer9benchmark5utils5utils15format_duration
FN:108,_RNvNtNtNtCs1YuMAXYbbDa_10vectorizer9benchmark5utils5utils15percentile_rank
FN:39,_RNvNtNtNtCs1YuMAXYbbDa_10vectorizer9benchmark5utils5utils17format_throughput
FN:50,_RNvNtNtNtCs1YuMAXYbbDa_10vectorizer9benchmark5utils5utils17percentage_change
FN:90,_RNvNtNtNtCs1YuMAXYbbDa_10vectorizer9benchmark5utils5utils19confidence_interval
FN:118,_RNvNtNtNtCs1YuMAXYbbDa_10vectorizer9benchmark5utils5utils19interquartile_range
FN:212,_RNvNtNtNtCs1YuMAXYbbDa_10vectorizer9benchmark5utils5utils23correlation_coefficient
FN:77,_RNvNtNtNtCs1YuMAXYbbDa_10vectorizer9benchmark5utils5utils24coefficient_of_variation
FN:177,_RNvNtNtNtCs1YuMAXYbbDa_10vectorizer9benchmark5utils5utils26exponential_moving_average
FN:358,_RNvNtNtNtCs1YuMAXYbbDa_10vectorizer9benchmark5utils4file11file_exists
FN:352,_RNvNtNtNtCs1YuMAXYbbDa_10vectorizer9benchmark5utils4file13get_file_size
FN:344,_RNvNtNtNtCs1YuMAXYbbDa_10vectorizer9benchmark5utils4file17ensure_dir_exists
FN:363,_RNvNtNtNtCs1YuMAXYbbDa_10vectorizer9benchmark5utils4file18get_file_extension
FN:328,_RNvNtNtNtCs1YuMAXYbbDa_10vectorizer9benchmark5utils6memory15allocate_memory
FN:316,_RNvNtNtNtCs1YuMAXYbbDa_10vectorizer9benchmark5utils6memory15get_peak_memory
FN:333,_RNvNtNtNtCs1YuMAXYbbDa_10vectorizer9benchmark5utils6memory17deallocate_memory
FN:309,_RNvNtNtNtCs1YuMAXYbbDa_10vectorizer9benchmark5utils6memory18get_process_memory
FN:322,_RNvNtNtNtCs1YuMAXYbbDa_10vectorizer9benchmark5utils6memory8force_gc
FN:283,_RINvNtNtNtCs4Tkd3OJeaSh_10vectorizer9benchmark5utils6timing12measure_timeppEB8_
FN:294,_RINvNtNtNtCs4Tkd3OJeaSh_10vectorizer9benchmark5utils6timing18measure_time_asyncpppEB8_
FN:298,_RNCINvNtNtNtCs4Tkd3OJeaSh_10vectorizer9benchmark5utils6timing18measure_time_asyncpppE0Ba_
FN:262,_RNCNvMNtNtNtCs4Tkd3OJeaSh_10vectorizer9benchmark5utils6timingNtB4_5Timer4stop0Ba_
FN:267,_RNCNvMNtNtNtCs4Tkd3OJeaSh_10vectorizer9benchmark5utils6timingNtB4_5Timer7elapsed0Ba_
FN:365,_RNCNvNtNtNtCs4Tkd3OJeaSh_10vectorizer9benchmark5utils4file18get_file_extension0B9_
FN:366,_RNCNvNtNtNtCs4Tkd3OJeaSh_10vectorizer9benchmark5utils4file18get_file_extensions_0B9_
FN:406,_RNCNvNtNtNtCs4Tkd3OJeaSh_10vectorizer9benchmark5utils4math18standard_deviation0B9_
FN:388,_RNCNvNtNtNtCs4Tkd3OJeaSh_10vectorizer9benchmark5utils4math6median0B9_
FN:459,_RNCNvNtNtNtCs4Tkd3OJeaSh_10vectorizer9benchmark5utils4math8kurtosis0B9_
FN:436,_RNCNvNtNtNtCs4Tkd3OJeaSh_10vectorizer9benchmark5utils4math8skewness0B9_
FN:417,_RNCNvNtNtNtCs4Tkd3OJeaSh_10vectorizer9benchmark5utils4math8variance0B9_
FN:200,_RNCNvNtNtNtCs4Tkd3OJeaSh_10vectorizer9benchmark5utils5utils12linear_trend0B9_
FN:203,_RNCNvNtNtNtCs4Tkd3OJeaSh_10vectorizer9benchmark5utils5utils12linear_trends0_0B9_
FN:202,_RNCNvNtNtNtCs4Tkd3OJeaSh_10vectorizer9benchmark5utils5utils12linear_trends_0B9_
FN:139,_RNCNvNtNtNtCs4Tkd3OJeaSh_10vectorizer9benchmark5utils5utils15detect_outliers0B9_
FN:153,_RNCNvNtNtNtCs4Tkd3OJeaSh_10vectorizer9benchmark5utils5utils15detect_outlierss0_0B9_
FN:140,_RNCNvNtNtNtCs4Tkd3OJeaSh_10vectorizer9benchmark5utils5utils15detect_outlierss_0B9_
FN:113,_RNCNvNtNtNtCs4Tkd3OJeaSh_10vectorizer9benchmark5utils5utils15percentile_rank0B9_
FN:97,_RNCNvNtNtNtCs4Tkd3OJeaSh_10vectorizer9benchmark5utils5utils19confidence_interval0B9_
FN:124,_RNCNvNtNtNtCs4Tkd3OJeaSh_10vectorizer9benchmark5utils5utils19interquartile_range0B9_
FN:224,_RNCNvNtNtNtCs4Tkd3OJeaSh_10vectorizer9benchmark5utils5utils23correlation_coefficient0B9_
FN:228,_RNCNvNtNtNtCs4Tkd3OJeaSh_10vectorizer9benchmark5utils5utils23correlation_coefficients0_0B9_
FN:227,_RNCNvNtNtNtCs4Tkd3OJeaSh_10vectorizer9benchmark5utils5utils23correlation_coefficients_0B9_
FN:83,_RNCNvNtNtNtCs4Tkd3OJeaSh_10vectorizer9benchmark5utils5utils24coefficient_of_variation0B9_
FN:271,_RNvMNtNtNtCs4Tkd3OJeaSh_10vectorizer9benchmark5utils6timingNtB2_5Timer10is_running
FN:251,_RNvMNtNtNtCs4Tkd3OJeaSh_10vectorizer9benchmark5utils6timingNtB2_5Timer3new
FN:261,_RNvMNtNtNtCs4Tkd3OJeaSh_10vectorizer9benchmark5utils6timingNtB2_5Timer4stop
FN:256,_RNvMNtNtNtCs4Tkd3OJeaSh_10vectorizer9benchmark5utils6timingNtB2_5Timer5start
FN:266,_RNvMNtNtNtCs4Tkd3OJeaSh_10vectorizer9benchmark5utils6timingNtB2_5Timer7elapsed
FN:358,_RNvNtNtNtCs4Tkd3OJeaSh_10vectorizer9benchmark5utils4file11file_exists
FN:352,_RNvNtNtNtCs4Tkd3OJeaSh_10vectorizer9benchmark5utils4file13get_file_size
FN:344,_RNvNtNtNtCs4Tkd3OJeaSh_10vectorizer9benchmark5utils4file17ensure_dir_exists
FN:363,_RNvNtNtNtCs4Tkd3OJeaSh_10vectorizer9benchmark5utils4file18get_file_extension
FN:399,_RNvNtNtNtCs4Tkd3OJeaSh_10vectorizer9benchmark5utils4math18standard_deviation
FN:373,_RNvNtNtNtCs4Tkd3OJeaSh_10vectorizer9benchmark5utils4math4mean
FN:382,_RNvNtNtNtCs4Tkd3OJeaSh_10vectorizer9benchmark5utils4math6median
FN:444,_RNvNtNtNtCs4Tkd3OJeaSh_10vectorizer9benchmark5utils4math8kurtosis
FN:421,_RNvNtNtNtCs4Tkd3OJeaSh_10vectorizer9benchmark5utils4math8skewness
FN:411,_RNvNtNtNtCs4Tkd3OJeaSh_10vectorizer9benchmark5utils4math8variance
FN:68,_RNvNtNtNtCs4Tkd3OJeaSh_10vectorizer9benchmark5utils5utils10efficiency
FN:25,_RNvNtNtNtCs4Tkd3OJeaSh_10vectorizer9benchmark5utils5utils12format_bytes
FN:194,_RNvNtNtNtCs4Tkd3OJeaSh_10vectorizer9benchmark5utils5utils12linear_trend
FN:59,_RNvNtNtNtCs4Tkd3OJeaSh_10vectorizer9benchmark5utils5utils13speedup_ratio
FN:159,_RNvNtNtNtCs4Tkd3OJeaSh_10vectorizer9benchmark5utils5utils14moving_average
FN:133,_RNvNtNtNtCs4Tkd3OJeaSh_10vectorizer9benchmark5utils5utils15detect_outliers
FN:12,_RNvNtNtNtCs4Tkd3OJeaSh_10vectorizer9benchmark5utils5utils15format_duration
FN:108,_RNvNtNtNtCs4Tkd3OJeaSh_10vectorizer9benchmark5utils5utils15percentile_rank
FN:39,_RNvNtNtNtCs4Tkd3OJeaSh_10vectorizer9benchmark5utils5utils17format_throughput
FN:50,_RNvNtNtNtCs4Tkd3OJeaSh_10vectorizer9benchmark5utils5utils17percentage_change
FN:90,_RNvNtNtNtCs4Tkd3OJeaSh_10vectorizer9benchmark5utils5utils19confidence_interval
FN:118,_RNvNtNtNtCs4Tkd3OJeaSh_10vectorizer9benchmark5utils5utils19interquartile_range
FN:212,_RNvNtNtNtCs4Tkd3OJeaSh_10vectorizer9benchmark5utils5utils23correlation_coefficient
FN:77,_RNvNtNtNtCs4Tkd3OJeaSh_10vectorizer9benchmark5utils5utils24coefficient_of_variation
FN:177,_RNvNtNtNtCs4Tkd3OJeaSh_10vectorizer9benchmark5utils5utils26exponential_moving_average
FN:328,_RNvNtNtNtCs4Tkd3OJeaSh_10vectorizer9benchmark5utils6memory15allocate_memory
FN:316,_RNvNtNtNtCs4Tkd3OJeaSh_10vectorizer9benchmark5utils6memory15get_peak_memory
FN:333,_RNvNtNtNtCs4Tkd3OJeaSh_10vectorizer9benchmark5utils6memory17deallocate_memory
FN:309,_RNvNtNtNtCs4Tkd3OJeaSh_10vectorizer9benchmark5utils6memory18get_process_memory
FN:322,_RNvNtNtNtCs4Tkd3OJeaSh_10vectorizer9benchmark5utils6memory8force_gc
FN:277,_RNvXs_NtNtNtCs4Tkd3OJeaSh_10vectorizer9benchmark5utils6timingNtB4_5TimerNtNtCs9Kp62OsN3pY_4core7default7Default7default
FNDA:0,_RNCNvNtNtNtCs1YuMAXYbbDa_10vectorizer9benchmark5utils4file18get_file_extension0B9_
FNDA:0,_RNCNvNtNtNtCs1YuMAXYbbDa_10vectorizer9benchmark5utils4file18get_file_extensions_0B9_
FNDA:0,_RINvNtNtNtCs1YuMAXYbbDa_10vectorizer9benchmark5utils6timing12measure_timeppEB8_
FNDA:0,_RINvNtNtNtCs1YuMAXYbbDa_10vectorizer9benchmark5utils6timing18measure_time_asyncpppEB8_
FNDA:0,_RNCINvNtNtNtCs1YuMAXYbbDa_10vectorizer9benchmark5utils6timing18measure_time_asyncpppE0Ba_
FNDA:0,_RNvNtNtNtCs1YuMAXYbbDa_10vectorizer9benchmark5utils4math18standard_deviation
FNDA:0,_RNvNtNtNtCs1YuMAXYbbDa_10vectorizer9benchmark5utils4math4mean
FNDA:0,_RNvNtNtNtCs1YuMAXYbbDa_10vectorizer9benchmark5utils4math6median
FNDA:0,_RNvNtNtNtCs1YuMAXYbbDa_10vectorizer9benchmark5utils4math8kurtosis
FNDA:0,_RNvNtNtNtCs1YuMAXYbbDa_10vectorizer9benchmark5utils4math8skewness
FNDA:0,_RNvNtNtNtCs1YuMAXYbbDa_10vectorizer9benchmark5utils4math8variance
FNDA:0,_RNCNvNtNtNtCs1YuMAXYbbDa_10vectorizer9benchmark5utils4math18standard_deviation0B9_
FNDA:0,_RNCNvNtNtNtCs1YuMAXYbbDa_10vectorizer9benchmark5utils4math6median0B9_
FNDA:0,_RNCNvNtNtNtCs1YuMAXYbbDa_10vectorizer9benchmark5utils4math8kurtosis0B9_
FNDA:0,_RNCNvNtNtNtCs1YuMAXYbbDa_10vectorizer9benchmark5utils4math8skewness0B9_
FNDA:0,_RNCNvNtNtNtCs1YuMAXYbbDa_10vectorizer9benchmark5utils4math8variance0B9_
FNDA:0,_RNCNvNtNtNtCs1YuMAXYbbDa_10vectorizer9benchmark5utils5utils12linear_trend0B9_
FNDA:0,_RNCNvNtNtNtCs1YuMAXYbbDa_10vectorizer9benchmark5utils5utils12linear_trends0_0B9_
FNDA:0,_RNCNvNtNtNtCs1YuMAXYbbDa_10vectorizer9benchmark5utils5utils12linear_trends_0B9_
FNDA:0,_RNCNvNtNtNtCs1YuMAXYbbDa_10vectorizer9benchmark5utils5utils15detect_outliers0B9_
FNDA:0,_RNCNvNtNtNtCs1YuMAXYbbDa_10vectorizer9benchmark5utils5utils15detect_outlierss0_0B9_
FNDA:0,_RNCNvNtNtNtCs1YuMAXYbbDa_10vectorizer9benchmark5utils5utils15detect_outlierss_0B9_
FNDA:0,_RNCNvNtNtNtCs1YuMAXYbbDa_10vectorizer9benchmark5utils5utils15percentile_rank0B9_
FNDA:0,_RNCNvNtNtNtCs1YuMAXYbbDa_10vectorizer9benchmark5utils5utils19confidence_interval0B9_
FNDA:0,_RNCNvNtNtNtCs1YuMAXYbbDa_10vectorizer9benchmark5utils5utils19interquartile_range0B9_
FNDA:0,_RNCNvNtNtNtCs1YuMAXYbbDa_10vectorizer9benchmark5utils5utils23correlation_coefficient0B9_
FNDA:0,_RNCNvNtNtNtCs1YuMAXYbbDa_10vectorizer9benchmark5utils5utils23correlation_coefficients0_0B9_
FNDA:0,_RNCNvNtNtNtCs1YuMAXYbbDa_10vectorizer9benchmark5utils5utils23correlation_coefficients_0B9_
FNDA:0,_RNCNvNtNtNtCs1YuMAXYbbDa_10vectorizer9benchmark5utils5utils24coefficient_of_variation0B9_
FNDA:0,_RNCNvMNtNtNtCs1YuMAXYbbDa_10vectorizer9benchmark5utils6timingNtB4_5Timer4stop0Ba_
FNDA:0,_RNCNvMNtNtNtCs1YuMAXYbbDa_10vectorizer9benchmark5utils6timingNtB4_5Timer7elapsed0Ba_
FNDA:0,_RNvMNtNtNtCs1YuMAXYbbDa_10vectorizer9benchmark5utils6timingNtB2_5Timer10is_running
FNDA:0,_RNvMNtNtNtCs1YuMAXYbbDa_10vectorizer9benchmark5utils6timingNtB2_5Timer3new
FNDA:0,_RNvMNtNtNtCs1YuMAXYbbDa_10vectorizer9benchmark5utils6timingNtB2_5Timer4stop
FNDA:0,_RNvMNtNtNtCs1YuMAXYbbDa_10vectorizer9benchmark5utils6timingNtB2_5Timer5start
FNDA:0,_RNvMNtNtNtCs1YuMAXYbbDa_10vectorizer9benchmark5utils6timingNtB2_5Timer7elapsed
FNDA:0,_RNvXs_NtNtNtCs1YuMAXYbbDa_10vectorizer9benchmark5utils6timingNtB4_5TimerNtNtCs9Kp62OsN3pY_4core7default7Default7default
FNDA:0,_RNvNtNtNtCs1YuMAXYbbDa_10vectorizer9benchmark5utils5utils10efficiency
FNDA:0,_RNvNtNtNtCs1YuMAXYbbDa_10vectorizer9benchmark5utils5utils12format_bytes
FNDA:0,_RNvNtNtNtCs1YuMAXYbbDa_10vectorizer9benchmark5utils5utils12linear_trend
FNDA:0,_RNvNtNtNtCs1YuMAXYbbDa_10vectorizer9benchmark5utils5utils13speedup_ratio
FNDA:0,_RNvNtNtNtCs1YuMAXYbbDa_10vectorizer9benchmark5utils5utils14moving_average
FNDA:0,_RNvNtNtNtCs1YuMAXYbbDa_10vectorizer9benchmark5utils5utils15detect_outliers
FNDA:0,_RNvNtNtNtCs1YuMAXYbbDa_10vectorizer9benchmark5utils5utils15format_duration
FNDA:0,_RNvNtNtNtCs1YuMAXYbbDa_10vectorizer9benchmark5utils5utils15percentile_rank
FNDA:0,_RNvNtNtNtCs1YuMAXYbbDa_10vectorizer9benchmark5utils5utils17format_throughput
FNDA:0,_RNvNtNtNtCs1YuMAXYbbDa_10vectorizer9benchmark5utils5utils17percentage_change
FNDA:0,_RNvNtNtNtCs1YuMAXYbbDa_10vectorizer9benchmark5utils5utils19confidence_interval
FNDA:0,_RNvNtNtNtCs1YuMAXYbbDa_10vectorizer9benchmark5utils5utils19interquartile_range
FNDA:0,_RNvNtNtNtCs1YuMAXYbbDa_10vectorizer9benchmark5utils5utils23correlation_coefficient
FNDA:0,_RNvNtNtNtCs1YuMAXYbbDa_10vectorizer9benchmark5utils5utils24coefficient_of_variation
FNDA:0,_RNvNtNtNtCs1YuMAXYbbDa_10vectorizer9benchmark5utils5utils26exponential_moving_average
FNDA:0,_RNvNtNtNtCs1YuMAXYbbDa_10vectorizer9benchmark5utils4file11file_exists
FNDA:0,_RNvNtNtNtCs1YuMAXYbbDa_10vectorizer9benchmark5utils4file13get_file_size
FNDA:0,_RNvNtNtNtCs1YuMAXYbbDa_10vectorizer9benchmark5utils4file17ensure_dir_exists
FNDA:0,_RNvNtNtNtCs1YuMAXYbbDa_10vectorizer9benchmark5utils4file18get_file_extension
FNDA:0,_RNvNtNtNtCs1YuMAXYbbDa_10vectorizer9benchmark5utils6memory15allocate_memory
FNDA:0,_RNvNtNtNtCs1YuMAXYbbDa_10vectorizer9benchmark5utils6memory15get_peak_memory
FNDA:0,_RNvNtNtNtCs1YuMAXYbbDa_10vectorizer9benchmark5utils6memory17deallocate_memory
FNDA:0,_RNvNtNtNtCs1YuMAXYbbDa_10vectorizer9benchmark5utils6memory18get_process_memory
FNDA:0,_RNvNtNtNtCs1YuMAXYbbDa_10vectorizer9benchmark5utils6memory8force_gc
FNDA:0,_RINvNtNtNtCs4Tkd3OJeaSh_10vectorizer9benchmark5utils6timing12measure_timeppEB8_
FNDA:0,_RINvNtNtNtCs4Tkd3OJeaSh_10vectorizer9benchmark5utils6timing18measure_time_asyncpppEB8_
FNDA:0,_RNCINvNtNtNtCs4Tkd3OJeaSh_10vectorizer9benchmark5utils6timing18measure_time_asyncpppE0Ba_
FNDA:0,_RNCNvMNtNtNtCs4Tkd3OJeaSh_10vectorizer9benchmark5utils6timingNtB4_5Timer4stop0Ba_
FNDA:0,_RNCNvMNtNtNtCs4Tkd3OJeaSh_10vectorizer9benchmark5utils6timingNtB4_5Timer7elapsed0Ba_
FNDA:0,_RNCNvNtNtNtCs4Tkd3OJeaSh_10vectorizer9benchmark5utils4file18get_file_extension0B9_
FNDA:0,_RNCNvNtNtNtCs4Tkd3OJeaSh_10vectorizer9benchmark5utils4file18get_file_extensions_0B9_
FNDA:0,_RNCNvNtNtNtCs4Tkd3OJeaSh_10vectorizer9benchmark5utils4math18standard_deviation0B9_
FNDA:0,_RNCNvNtNtNtCs4Tkd3OJeaSh_10vectorizer9benchmark5utils4math6median0B9_
FNDA:0,_RNCNvNtNtNtCs4Tkd3OJeaSh_10vectorizer9benchmark5utils4math8kurtosis0B9_
FNDA:0,_RNCNvNtNtNtCs4Tkd3OJeaSh_10vectorizer9benchmark5utils4math8skewness0B9_
FNDA:0,_RNCNvNtNtNtCs4Tkd3OJeaSh_10vectorizer9benchmark5utils4math8variance0B9_
FNDA:0,_RNCNvNtNtNtCs4Tkd3OJeaSh_10vectorizer9benchmark5utils5utils12linear_trend0B9_
FNDA:0,_RNCNvNtNtNtCs4Tkd3OJeaSh_10vectorizer9benchmark5utils5utils12linear_trends0_0B9_
FNDA:0,_RNCNvNtNtNtCs4Tkd3OJeaSh_10vectorizer9benchmark5utils5utils12linear_trends_0B9_
FNDA:0,_RNCNvNtNtNtCs4Tkd3OJeaSh_10vectorizer9benchmark5utils5utils15detect_outliers0B9_
FNDA:0,_RNCNvNtNtNtCs4Tkd3OJeaSh_10vectorizer9benchmark5utils5utils15detect_outlierss0_0B9_
FNDA:0,_RNCNvNtNtNtCs4Tkd3OJeaSh_10vectorizer9benchmark5utils5utils15detect_outlierss_0B9_
FNDA:0,_RNCNvNtNtNtCs4Tkd3OJeaSh_10vectorizer9benchmark5utils5utils15percentile_rank0B9_
FNDA:0,_RNCNvNtNtNtCs4Tkd3OJeaSh_10vectorizer9benchmark5utils5utils19confidence_interval0B9_
FNDA:0,_RNCNvNtNtNtCs4Tkd3OJeaSh_10vectorizer9benchmark5utils5utils19interquartile_range0B9_
FNDA:0,_RNCNvNtNtNtCs4Tkd3OJeaSh_10vectorizer9benchmark5utils5utils23correlation_coefficient0B9_
FNDA:0,_RNCNvNtNtNtCs4Tkd3OJeaSh_10vectorizer9benchmark5utils5utils23correlation_coefficients0_0B9_
FNDA:0,_RNCNvNtNtNtCs4Tkd3OJeaSh_10vectorizer9benchmark5utils5utils23correlation_coefficients_0B9_
FNDA:0,_RNCNvNtNtNtCs4Tkd3OJeaSh_10vectorizer9benchmark5utils5utils24coefficient_of_variation0B9_
FNDA:0,_RNvMNtNtNtCs4Tkd3OJeaSh_10vectorizer9benchmark5utils6timingNtB2_5Timer10is_running
FNDA:0,_RNvMNtNtNtCs4Tkd3OJeaSh_10vectorizer9benchmark5utils6timingNtB2_5Timer3new
FNDA:0,_RNvMNtNtNtCs4Tkd3OJeaSh_10vectorizer9benchmark5utils6timingNtB2_5Timer4stop
FNDA:0,_RNvMNtNtNtCs4Tkd3OJeaSh_10vectorizer9benchmark5utils6timingNtB2_5Timer5start
FNDA:0,_RNvMNtNtNtCs4Tkd3OJeaSh_10vectorizer9benchmark5utils6timingNtB2_5Timer7elapsed
FNDA:0,_RNvNtNtNtCs4Tkd3OJeaSh_10vectorizer9benchmark5utils4file11file_exists
FNDA:0,_RNvNtNtNtCs4Tkd3OJeaSh_10vectorizer9benchmark5utils4file13get_file_size
FNDA:0,_RNvNtNtNtCs4Tkd3OJeaSh_10vectorizer9benchmark5utils4file17ensure_dir_exists
FNDA:0,_RNvNtNtNtCs4Tkd3OJeaSh_10vectorizer9benchmark5utils4file18get_file_extension
FNDA:0,_RNvNtNtNtCs4Tkd3OJeaSh_10vectorizer9benchmark5utils4math18standard_deviation
FNDA:0,_RNvNtNtNtCs4Tkd3OJeaSh_10vectorizer9benchmark5utils4math4mean
FNDA:0,_RNvNtNtNtCs4Tkd3OJeaSh_10vectorizer9benchmark5utils4math6median
FNDA:0,_RNvNtNtNtCs4Tkd3OJeaSh_10vectorizer9benchmark5utils4math8kurtosis
FNDA:0,_RNvNtNtNtCs4Tkd3OJeaSh_10vectorizer9benchmark5utils4math8skewness
FNDA:0,_RNvNtNtNtCs4Tkd3OJeaSh_10vectorizer9benchmark5utils4math8variance
FNDA:0,_RNvNtNtNtCs4Tkd3OJeaSh_10vectorizer9benchmark5utils5utils10efficiency
FNDA:0,_RNvNtNtNtCs4Tkd3OJeaSh_10vectorizer9benchmark5utils5utils12format_bytes
FNDA:0,_RNvNtNtNtCs4Tkd3OJeaSh_10vectorizer9benchmark5utils5utils12linear_trend
FNDA:0,_RNvNtNtNtCs4Tkd3OJeaSh_10vectorizer9benchmark5utils5utils13speedup_ratio
FNDA:0,_RNvNtNtNtCs4Tkd3OJeaSh_10vectorizer9benchmark5utils5utils14moving_average
FNDA:0,_RNvNtNtNtCs4Tkd3OJeaSh_10vectorizer9benchmark5utils5utils15detect_outliers
FNDA:0,_RNvNtNtNtCs4Tkd3OJeaSh_10vectorizer9benchmark5utils5utils15format_duration
FNDA:0,_RNvNtNtNtCs4Tkd3OJeaSh_10vectorizer9benchmark5utils5utils15percentile_rank
FNDA:0,_RNvNtNtNtCs4Tkd3OJeaSh_10vectorizer9benchmark5utils5utils17format_throughput
FNDA:0,_RNvNtNtNtCs4Tkd3OJeaSh_10vectorizer9benchmark5utils5utils17percentage_change
FNDA:0,_RNvNtNtNtCs4Tkd3OJeaSh_10vectorizer9benchmark5utils5utils19confidence_interval
FNDA:0,_RNvNtNtNtCs4Tkd3OJeaSh_10vectorizer9benchmark5utils5utils19interquartile_range
FNDA:0,_RNvNtNtNtCs4Tkd3OJeaSh_10vectorizer9benchmark5utils5utils23correlation_coefficient
FNDA:0,_RNvNtNtNtCs4Tkd3OJeaSh_10vectorizer9benchmark5utils5utils24coefficient_of_variation
FNDA:0,_RNvNtNtNtCs4Tkd3OJeaSh_10vectorizer9benchmark5utils5utils26exponential_moving_average
FNDA:0,_RNvNtNtNtCs4Tkd3OJeaSh_10vectorizer9benchmark5utils6memory15allocate_memory
FNDA:0,_RNvNtNtNtCs4Tkd3OJeaSh_10vectorizer9benchmark5utils6memory15get_peak_memory
FNDA:0,_RNvNtNtNtCs4Tkd3OJeaSh_10vectorizer9benchmark5utils6memory17deallocate_memory
FNDA:0,_RNvNtNtNtCs4Tkd3OJeaSh_10vectorizer9benchmark5utils6memory18get_process_memory
FNDA:0,_RNvNtNtNtCs4Tkd3OJeaSh_10vectorizer9benchmark5utils6memory8force_gc
FNDA:0,_RNvXs_NtNtNtCs4Tkd3OJeaSh_10vectorizer9benchmark5utils6timingNtB4_5TimerNtNtCs9Kp62OsN3pY_4core7default7Default7default
FNF:61
FNH:0
DA:12,0
DA:13,0
DA:14,0
DA:15,0
DA:16,0
DA:17,0
DA:18,0
DA:20,0
DA:22,0
DA:25,0
DA:27,0
DA:28,0
DA:30,0
DA:31,0
DA:32,0
DA:33,0
DA:35,0
DA:36,0
DA:39,0
DA:40,0
DA:41,0
DA:42,0
DA:43,0
DA:45,0
DA:47,0
DA:50,0
DA:51,0
DA:52,0
DA:54,0
DA:56,0
DA:59,0
DA:60,0
DA:61,0
DA:63,0
DA:65,0
DA:68,0
DA:69,0
DA:70,0
DA:72,0
DA:74,0
DA:77,0
DA:78,0
DA:79,0
DA:80,0
DA:82,0
DA:83,0
DA:84,0
DA:86,0
DA:87,0
DA:90,0
DA:91,0
DA:92,0
DA:93,0
DA:95,0
DA:96,0
DA:97,0
DA:98,0
DA:102,0
DA:104,0
DA:105,0
DA:108,0
DA:109,0
DA:110,0
DA:111,0
DA:113,0
DA:114,0
DA:115,0
DA:118,0
DA:119,0
DA:120,0
DA:121,0
DA:123,0
DA:124,0
DA:126,0
DA:127,0
DA:129,0
DA:130,0
DA:133,0
DA:134,0
DA:135,0
DA:136,0
DA:138,0
DA:139,0
DA:140,0
DA:142,0
DA:143,0
DA:144,0
DA:145,0
DA:146,0
DA:148,0
DA:149,0
DA:151,0
DA:152,0
DA:153,0
DA:154,0
DA:155,0
DA:156,0
DA:159,0
DA:160,0
DA:161,0
DA:162,0
DA:164,0
DA:165,0
DA:167,0
DA:168,0
DA:169,0
DA:170,0
DA:171,0
DA:173,0
DA:174,0
DA:177,0
DA:178,0
DA:179,0
DA:180,0
DA:182,0
DA:183,0
DA:185,0
DA:186,0
DA:187,0
DA:188,0
DA:190,0
DA:191,0
DA:194,0
DA:195,0
DA:196,0
DA:197,0
DA:199,0
DA:200,0
DA:201,0
DA:202,0
DA:203,0
DA:205,0
DA:206,0
DA:208,0
DA:209,0
DA:212,0
DA:213,0
DA:214,0
DA:215,0
DA:217,0
DA:218,0
DA:219,0
DA:221,0
DA:222,0
DA:223,0
DA:224,0
DA:225,0
DA:227,0
DA:228,0
DA:230,0
DA:232,0
DA:233,0
DA:235,0
DA:237,0
DA:251,0
DA:252,0
DA:253,0
DA:256,0
DA:257,0
DA:258,0
DA:261,0
DA:262,0
DA:263,0
DA:266,0
DA:267,0
DA:268,0
DA:271,0
DA:272,0
DA:273,0
DA:277,0
DA:278,0
DA:279,0
DA:283,0
DA:284,0
DA:285,0
DA:287,0
DA:288,0
DA:289,0
DA:290,0
DA:291,0
DA:294,0
DA:295,0
DA:296,0
DA:297,0
DA:298,0
DA:299,0
DA:300,0
DA:301,0
DA:302,0
DA:303,0
DA:309,0
DA:312,0
DA:313,0
DA:316,0
DA:318,0
DA:319,0
DA:322,0
DA:325,0
DA:328,0
DA:329,0
DA:330,0
DA:333,0
DA:335,0
DA:344,0
DA:345,0
DA:346,0
DA:347,0
DA:348,0
DA:349,0
DA:352,0
DA:353,0
DA:354,0
DA:355,0
DA:358,0
DA:359,0
DA:360,0
DA:363,0
DA:364,0
DA:365,0
DA:366,0
DA:367,0
DA:373,0
DA:374,0
DA:375,0
DA:377,0
DA:379,0
DA:382,0
DA:383,0
DA:384,0
DA:385,0
DA:387,0
DA:388,0
DA:390,0
DA:391,0
DA:392,0
DA:394,0
DA:396,0
DA:399,0
DA:400,0
DA:401,0
DA:402,0
DA:404,0
DA:405,0
DA:406,0
DA:407,0
DA:408,0
DA:411,0
DA:412,0
DA:413,0
DA:414,0
DA:416,0
DA:417,0
DA:418,0
DA:421,0
DA:422,0
DA:423,0
DA:424,0
DA:426,0
DA:427,0
DA:429,0
DA:430,0
DA:431,0
DA:433,0
DA:434,0
DA:435,0
DA:436,0
DA:437,0
DA:438,0
DA:440,0
DA:441,0
DA:444,0
DA:445,0
DA:446,0
DA:447,0
DA:449,0
DA:450,0
DA:452,0
DA:453,0
DA:454,0
DA:456,0
DA:457,0
DA:458,0
DA:459,0
DA:460,0
DA:461,0
DA:464,0
DA:465,0
BRF:0
BRH:0
LF:309
LH:0
end_of_record
SF:/mnt/f/Node/hivellm/vectorizer/src/bin/vectorizer-cli.rs
FN:212,_RNCNCNvCs6tRpjL8GLsA_14vectorizer_cli13run_as_daemon00B5_
FN:321,_RNCNCNvCs6tRpjL8GLsA_14vectorizer_cli15install_service00B5_
FN:103,_RNCNvCs6tRpjL8GLsA_14vectorizer_cli11run_servers0B3_
FN:272,_RNCNvCs6tRpjL8GLsA_14vectorizer_cli12check_status0B3_
FN:249,_RNCNvCs6tRpjL8GLsA_14vectorizer_cli12stop_servers0B3_
FN:193,_RNCNvCs6tRpjL8GLsA_14vectorizer_cli13run_as_daemon0B3_
FN:419,_RNCNvCs6tRpjL8GLsA_14vectorizer_cli14find_processes0B3_
FN:427,_RNCNvCs6tRpjL8GLsA_14vectorizer_cli14find_processess_0B3_
FN:313,_RNCNvCs6tRpjL8GLsA_14vectorizer_cli15install_service0B3_
FN:127,_RNCNvCs6tRpjL8GLsA_14vectorizer_cli15run_interactive0B3_
FN:373,_RNCNvCs6tRpjL8GLsA_14vectorizer_cli17uninstall_service0B3_
FN:63,_RNCNvCs6tRpjL8GLsA_14vectorizer_cli4main0B3_
FN:103,_RNvCs6tRpjL8GLsA_14vectorizer_cli11run_servers
FN:272,_RNvCs6tRpjL8GLsA_14vectorizer_cli12check_status
FN:249,_RNvCs6tRpjL8GLsA_14vectorizer_cli12stop_servers
FN:193,_RNvCs6tRpjL8GLsA_14vectorizer_cli13run_as_daemon
FN:414,_RNvCs6tRpjL8GLsA_14vectorizer_cli14find_processes
FN:313,_RNvCs6tRpjL8GLsA_14vectorizer_cli15install_service
FN:127,_RNvCs6tRpjL8GLsA_14vectorizer_cli15run_interactive
FN:373,_RNvCs6tRpjL8GLsA_14vectorizer_cli17uninstall_service
FN:63,_RNvCs6tRpjL8GLsA_14vectorizer_cli4main
FN:212,_RNCNCNvCs8vn7zf95i0c_14vectorizer_cli13run_as_daemon00B5_
FN:321,_RNCNCNvCs8vn7zf95i0c_14vectorizer_cli15install_service00B5_
FN:103,_RNCNvCs8vn7zf95i0c_14vectorizer_cli11run_servers0B3_
FN:272,_RNCNvCs8vn7zf95i0c_14vectorizer_cli12check_status0B3_
FN:249,_RNCNvCs8vn7zf95i0c_14vectorizer_cli12stop_servers0B3_
FN:193,_RNCNvCs8vn7zf95i0c_14vectorizer_cli13run_as_daemon0B3_
FN:419,_RNCNvCs8vn7zf95i0c_14vectorizer_cli14find_processes0B3_
FN:427,_RNCNvCs8vn7zf95i0c_14vectorizer_cli14find_processess_0B3_
FN:313,_RNCNvCs8vn7zf95i0c_14vectorizer_cli15install_service0B3_
FN:127,_RNCNvCs8vn7zf95i0c_14vectorizer_cli15run_interactive0B3_
FN:373,_RNCNvCs8vn7zf95i0c_14vectorizer_cli17uninstall_service0B3_
FN:63,_RNCNvCs8vn7zf95i0c_14vectorizer_cli4main0B3_
FN:103,_RNvCs8vn7zf95i0c_14vectorizer_cli11run_servers
FN:272,_RNvCs8vn7zf95i0c_14vectorizer_cli12check_status
FN:249,_RNvCs8vn7zf95i0c_14vectorizer_cli12stop_servers
FN:193,_RNvCs8vn7zf95i0c_14vectorizer_cli13run_as_daemon
FN:414,_RNvCs8vn7zf95i0c_14vectorizer_cli14find_processes
FN:313,_RNvCs8vn7zf95i0c_14vectorizer_cli15install_service
FN:127,_RNvCs8vn7zf95i0c_14vectorizer_cli15run_interactive
FN:373,_RNvCs8vn7zf95i0c_14vectorizer_cli17uninstall_service
FN:63,_RNvCs8vn7zf95i0c_14vectorizer_cli4main
FNDA:0,_RNCNCNvCs6tRpjL8GLsA_14vectorizer_cli13run_as_daemon00B5_
FNDA:0,_RNCNCNvCs6tRpjL8GLsA_14vectorizer_cli15install_service00B5_
FNDA:0,_RNCNvCs6tRpjL8GLsA_14vectorizer_cli11run_servers0B3_
FNDA:0,_RNCNvCs6tRpjL8GLsA_14vectorizer_cli12check_status0B3_
FNDA:0,_RNCNvCs6tRpjL8GLsA_14vectorizer_cli12stop_servers0B3_
FNDA:0,_RNCNvCs6tRpjL8GLsA_14vectorizer_cli13run_as_daemon0B3_
FNDA:0,_RNCNvCs6tRpjL8GLsA_14vectorizer_cli14find_processes0B3_
FNDA:0,_RNCNvCs6tRpjL8GLsA_14vectorizer_cli14find_processess_0B3_
FNDA:0,_RNCNvCs6tRpjL8GLsA_14vectorizer_cli15install_service0B3_
FNDA:0,_RNCNvCs6tRpjL8GLsA_14vectorizer_cli15run_interactive0B3_
FNDA:0,_RNCNvCs6tRpjL8GLsA_14vectorizer_cli17uninstall_service0B3_
FNDA:0,_RNCNvCs6tRpjL8GLsA_14vectorizer_cli4main0B3_
FNDA:0,_RNvCs6tRpjL8GLsA_14vectorizer_cli11run_servers
FNDA:0,_RNvCs6tRpjL8GLsA_14vectorizer_cli12check_status
FNDA:0,_RNvCs6tRpjL8GLsA_14vectorizer_cli12stop_servers
FNDA:0,_RNvCs6tRpjL8GLsA_14vectorizer_cli13run_as_daemon
FNDA:0,_RNvCs6tRpjL8GLsA_14vectorizer_cli14find_processes
FNDA:0,_RNvCs6tRpjL8GLsA_14vectorizer_cli15install_service
FNDA:0,_RNvCs6tRpjL8GLsA_14vectorizer_cli15run_interactive
FNDA:0,_RNvCs6tRpjL8GLsA_14vectorizer_cli17uninstall_service
FNDA:0,_RNvCs6tRpjL8GLsA_14vectorizer_cli4main
FNDA:0,_RNCNCNvCs8vn7zf95i0c_14vectorizer_cli13run_as_daemon00B5_
FNDA:0,_RNCNCNvCs8vn7zf95i0c_14vectorizer_cli15install_service00B5_
FNDA:0,_RNCNvCs8vn7zf95i0c_14vectorizer_cli11run_servers0B3_
FNDA:0,_RNCNvCs8vn7zf95i0c_14vectorizer_cli12check_status0B3_
FNDA:0,_RNCNvCs8vn7zf95i0c_14vectorizer_cli12stop_servers0B3_
FNDA:0,_RNCNvCs8vn7zf95i0c_14vectorizer_cli13run_as_daemon0B3_
FNDA:0,_RNCNvCs8vn7zf95i0c_14vectorizer_cli14find_processes0B3_
FNDA:0,_RNCNvCs8vn7zf95i0c_14vectorizer_cli14find_processess_0B3_
FNDA:0,_RNCNvCs8vn7zf95i0c_14vectorizer_cli15install_service0B3_
FNDA:0,_RNCNvCs8vn7zf95i0c_14vectorizer_cli15run_interactive0B3_
FNDA:0,_RNCNvCs8vn7zf95i0c_14vectorizer_cli17uninstall_service0B3_
FNDA:0,_RNCNvCs8vn7zf95i0c_14vectorizer_cli4main0B3_
FNDA:0,_RNvCs8vn7zf95i0c_14vectorizer_cli11run_servers
FNDA:0,_RNvCs8vn7zf95i0c_14vectorizer_cli12check_status
FNDA:0,_RNvCs8vn7zf95i0c_14vectorizer_cli12stop_servers
FNDA:0,_RNvCs8vn7zf95i0c_14vectorizer_cli13run_as_daemon
FNDA:0,_RNvCs8vn7zf95i0c_14vectorizer_cli14find_processes
FNDA:0,_RNvCs8vn7zf95i0c_14vectorizer_cli15install_service
FNDA:0,_RNvCs8vn7zf95i0c_14vectorizer_cli15run_interactive
FNDA:0,_RNvCs8vn7zf95i0c_14vectorizer_cli17uninstall_service
FNDA:0,_RNvCs8vn7zf95i0c_14vectorizer_cli4main
FNF:21
FNH:0
DA:63,0
DA:65,0
DA:66,0
DA:67,0
DA:69,0
DA:71,0
DA:72,0
DA:73,0
DA:74,0
DA:75,0
DA:76,0
DA:77,0
DA:78,0
DA:79,0
DA:80,0
DA:81,0
DA:82,0
DA:83,0
DA:84,0
DA:85,0
DA:86,0
DA:87,0
DA:88,0
DA:89,0
DA:90,0
DA:91,0
DA:92,0
DA:93,0
DA:94,0
DA:95,0
DA:96,0
DA:97,0
DA:98,0
DA:99,0
DA:100,0
DA:101,0
DA:103,0
DA:105,0
DA:106,0
DA:107,0
DA:108,0
DA:110,0
DA:111,0
DA:113,0
DA:114,0
DA:115,0
DA:116,0
DA:117,0
DA:119,0
DA:120,0
DA:121,0
DA:123,0
DA:125,0
DA:127,0
DA:130,0
DA:131,0
DA:132,0
DA:133,0
DA:134,0
DA:135,0
DA:136,0
DA:137,0
DA:138,0
DA:139,0
DA:140,0
DA:141,0
DA:142,0
DA:144,0
DA:145,0
DA:146,0
DA:150,0
DA:152,0
DA:153,0
DA:154,0
DA:155,0
DA:156,0
DA:157,0
DA:158,0
DA:159,0
DA:160,0
DA:161,0
DA:162,0
DA:163,0
DA:164,0
DA:165,0
DA:166,0
DA:167,0
DA:168,0
DA:169,0
DA:171,0
DA:172,0
DA:173,0
DA:176,0
DA:177,0
DA:178,0
DA:179,0
DA:180,0
DA:183,0
DA:184,0
DA:185,0
DA:187,0
DA:188,0
DA:189,0
DA:190,0
DA:191,0
DA:193,0
DA:198,0
DA:201,0
DA:202,0
DA:203,0
DA:204,0
DA:205,0
DA:206,0
DA:207,0
DA:208,0
DA:209,0
DA:210,0
DA:211,0
DA:212,0
DA:214,0
DA:215,0
DA:216,0
DA:217,0
DA:218,0
DA:219,0
DA:222,0
DA:223,0
DA:224,0
DA:225,0
DA:226,0
DA:227,0
DA:228,0
DA:229,0
DA:247,0
DA:249,0
DA:250,0
DA:252,0
DA:253,0
DA:255,0
DA:256,0
DA:257,0
DA:258,0
DA:260,0
DA:261,0
DA:262,0
DA:263,0
DA:265,0
DA:266,0
DA:267,0
DA:268,0
DA:269,0
DA:270,0
DA:272,0
DA:273,0
DA:274,0
DA:276,0
DA:277,0
DA:279,0
DA:280,0
DA:281,0
DA:282,0
DA:284,0
DA:287,0
DA:288,0
DA:289,0
DA:290,0
DA:292,0
DA:296,0
DA:298,0
DA:299,0
DA:300,0
DA:302,0
DA:304,0
DA:306,0
DA:307,0
DA:308,0
DA:310,0
DA:311,0
DA:313,0
DA:316,0
DA:318,0
DA:319,0
DA:320,0
DA:321,0
DA:322,0
DA:323,0
DA:325,0
DA:326,0
DA:327,0
DA:328,0
DA:329,0
DA:330,0
DA:331,0
DA:332,0
DA:333,0
DA:334,0
DA:335,0
DA:336,0
DA:337,0
DA:338,0
DA:339,0
DA:340,0
DA:343,0
DA:344,0
DA:345,0
DA:346,0
DA:347,0
DA:348,0
DA:349,0
DA:350,0
DA:351,0
DA:352,0
DA:353,0
DA:371,0
DA:373,0
DA:376,0
DA:378,0
DA:381,0
DA:382,0
DA:383,0
DA:384,0
DA:385,0
DA:386,0
DA:388,0
DA:389,0
DA:390,0
DA:391,0
DA:392,0
DA:393,0
DA:394,0
DA:412,0
DA:414,0
DA:415,0
DA:416,0
DA:417,0
DA:418,0
DA:419,0
DA:420,0
DA:421,0
DA:422,0
DA:424,0
DA:425,0
DA:426,0
DA:427,0
DA:428,0
DA:430,0
DA:432,0
BRF:0
BRH:0
LF:273
LH:0
end_of_record
SF:/mnt/f/Node/hivellm/vectorizer/src/bin/vectorizer.rs
FN:26,_RNvCs6aCSoG4ikjA_10vectorizer4main
FN:26,_RNCNvCs6aCSoG4ikjA_10vectorizer4main0B3_
FN:26,_RNCNvCseKd1IjcloC5_10vectorizer4main0B3_
FN:26,_RNvCseKd1IjcloC5_10vectorizer4main
FNDA:0,_RNvCs6aCSoG4ikjA_10vectorizer4main
FNDA:0,_RNCNvCs6aCSoG4ikjA_10vectorizer4main0B3_
FNDA:0,_RNCNvCseKd1IjcloC5_10vectorizer4main0B3_
FNDA:0,_RNvCseKd1IjcloC5_10vectorizer4main
FNF:2
FNH:0
DA:26,0
DA:28,0
DA:30,0
DA:32,0
DA:33,0
DA:36,0
DA:37,0
DA:40,0
DA:41,0
DA:42,0
DA:43,0
DA:44,0
DA:45,0
DA:46,0
DA:47,0
DA:50,0
DA:52,0
DA:53,0
DA:54,0
DA:56,0
DA:57,0
DA:59,0
DA:60,0
DA:61,0
DA:62,0
DA:63,0
DA:64,0
DA:65,0
DA:66,0
DA:67,0
DA:68,0
DA:69,0
DA:70,0
DA:71,0
DA:73,0
DA:74,0
DA:75,0
DA:76,0
DA:77,0
DA:78,0
DA:79,0
DA:81,0
DA:82,0
DA:83,0
DA:84,0
DA:85,0
DA:86,0
DA:89,0
DA:92,0
DA:93,0
DA:94,0
DA:95,0
DA:96,0
DA:98,0
DA:100,0
DA:101,0
BRF:0
BRH:0
LF:58
LH:0
end_of_record
SF:/mnt/f/Node/hivellm/vectorizer/src/cache/advanced_cache.rs
FN:306,_RINvXs0_NtNtCs1YuMAXYbbDa_10vectorizer5cache14advanced_cacheNtB6_8CacheKeyNtNtCs9Kp62OsN3pY_4core4hash4Hash4hashpEBa_
FN:766,_RNCNvMs2_NtNtCs1YuMAXYbbDa_10vectorizer5cache14advanced_cacheINtB7_19CacheWarmingManagerpE12warm_by_time0Bb_
FN:737,_RNCNvMs2_NtNtCs1YuMAXYbbDa_10vectorizer5cache14advanced_cacheINtB7_19CacheWarmingManagerpE21execute_warming_cycle0Bb_
FN:772,_RNCNvMs2_NtNtCs1YuMAXYbbDa_10vectorizer5cache14advanced_cacheINtB7_19CacheWarmingManagerpE21warm_by_user_behavior0Bb_
FN:760,_RNCNvMs2_NtNtCs1YuMAXYbbDa_10vectorizer5cache14advanced_cacheINtB7_19CacheWarmingManagerpE22warm_by_access_pattern0Bb_
FN:778,_RNCNvMs2_NtNtCs1YuMAXYbbDa_10vectorizer5cache14advanced_cacheINtB7_19CacheWarmingManagerpE22warm_by_data_freshness0Bb_
FN:784,_RNCNvMs2_NtNtCs1YuMAXYbbDa_10vectorizer5cache14advanced_cacheINtB7_19CacheWarmingManagerpE24warm_by_query_similarity0Bb_
FN:714,_RNCNvMs2_NtNtCs1YuMAXYbbDa_10vectorizer5cache14advanced_cacheINtB7_19CacheWarmingManagerpE28execute_warming_cycle_static0Bb_
FN:694,_RNCNvMs2_NtNtCs1YuMAXYbbDa_10vectorizer5cache14advanced_cacheINtB7_19CacheWarmingManagerpE5start0Bb_
FN:240,_RNvMNtNtCs1YuMAXYbbDa_10vectorizer5cache14advanced_cacheINtB2_10CacheEntrypE10is_expiredB6_
FN:245,_RNvMNtNtCs1YuMAXYbbDa_10vectorizer5cache14advanced_cacheINtB2_10CacheEntrypE13record_accessB6_
FN:251,_RNvMNtNtCs1YuMAXYbbDa_10vectorizer5cache14advanced_cacheINtB2_10CacheEntrypE16access_frequencyB6_
FN:224,_RNvMNtNtCs1YuMAXYbbDa_10vectorizer5cache14advanced_cacheINtB2_10CacheEntrypE3newB6_
FN:625,_RNvMs1_NtNtCs1YuMAXYbbDa_10vectorizer5cache14advanced_cacheINtB5_13AdvancedCachepE10record_hitB9_
FN:637,_RNvMs1_NtNtCs1YuMAXYbbDa_10vectorizer5cache14advanced_cacheINtB5_13AdvancedCachepE11record_missB9_
FN:613,_RNvMs1_NtNtCs1YuMAXYbbDa_10vectorizer5cache14advanced_cacheINtB5_13AdvancedCachepE13promote_to_l1B9_
FN:619,_RNvMs1_NtNtCs1YuMAXYbbDa_10vectorizer5cache14advanced_cacheINtB5_13AdvancedCachepE13promote_to_l2B9_
FN:557,_RNvMs1_NtNtCs1YuMAXYbbDa_10vectorizer5cache14advanced_cacheINtB5_13AdvancedCachepE14get_from_layerB9_
FN:655,_RNvMs1_NtNtCs1YuMAXYbbDa_10vectorizer5cache14advanced_cacheINtB5_13AdvancedCachepE15record_evictionB9_
FN:605,_RNvMs1_NtNtCs1YuMAXYbbDa_10vectorizer5cache14advanced_cacheINtB5_13AdvancedCachepE16evict_from_layerB9_
FN:644,_RNvMs1_NtNtCs1YuMAXYbbDa_10vectorizer5cache14advanced_cacheINtB5_13AdvancedCachepE16record_insertionB9_
FN:578,_RNvMs1_NtNtCs1YuMAXYbbDa_10vectorizer5cache14advanced_cacheINtB5_13AdvancedCachepE17insert_into_layerB9_
FN:595,_RNvMs1_NtNtCs1YuMAXYbbDa_10vectorizer5cache14advanced_cacheINtB5_13AdvancedCachepE17remove_from_layerB9_
FN:661,_RNvMs1_NtNtCs1YuMAXYbbDa_10vectorizer5cache14advanced_cacheINtB5_13AdvancedCachepE21record_operation_timeB9_
FN:478,_RNvMs1_NtNtCs1YuMAXYbbDa_10vectorizer5cache14advanced_cacheINtB5_13AdvancedCachepE3getB9_
FN:431,_RNvMs1_NtNtCs1YuMAXYbbDa_10vectorizer5cache14advanced_cacheINtB5_13AdvancedCachepE3newB9_
FN:542,_RNvMs1_NtNtCs1YuMAXYbbDa_10vectorizer5cache14advanced_cacheINtB5_13AdvancedCachepE5clearB9_
FN:512,_RNvMs1_NtNtCs1YuMAXYbbDa_10vectorizer5cache14advanced_cacheINtB5_13AdvancedCachepE6insertB9_
FN:535,_RNvMs1_NtNtCs1YuMAXYbbDa_10vectorizer5cache14advanced_cacheINtB5_13AdvancedCachepE6removeB9_
FN:552,_RNvMs1_NtNtCs1YuMAXYbbDa_10vectorizer5cache14advanced_cacheINtB5_13AdvancedCachepE9get_statsB9_
FN:766,_RNvMs2_NtNtCs1YuMAXYbbDa_10vectorizer5cache14advanced_cacheINtB5_19CacheWarmingManagerpE12warm_by_timeB9_
FN:737,_RNvMs2_NtNtCs1YuMAXYbbDa_10vectorizer5cache14advanced_cacheINtB5_19CacheWarmingManagerpE21execute_warming_cycleB9_
FN:772,_RNvMs2_NtNtCs1YuMAXYbbDa_10vectorizer5cache14advanced_cacheINtB5_19CacheWarmingManagerpE21warm_by_user_behaviorB9_
FN:760,_RNvMs2_NtNtCs1YuMAXYbbDa_10vectorizer5cache14advanced_cacheINtB5_19CacheWarmingManagerpE22warm_by_access_patternB9_
FN:778,_RNvMs2_NtNtCs1YuMAXYbbDa_10vectorizer5cache14advanced_cacheINtB5_19CacheWarmingManagerpE22warm_by_data_freshnessB9_
FN:784,_RNvMs2_NtNtCs1YuMAXYbbDa_10vectorizer5cache14advanced_cacheINtB5_19CacheWarmingManagerpE24warm_by_query_similarityB9_
FN:710,_RNvMs2_NtNtCs1YuMAXYbbDa_10vectorizer5cache14advanced_cacheINtB5_19CacheWarmingManagerpE28execute_warming_cycle_staticB9_
FN:670,_RNvMs2_NtNtCs1YuMAXYbbDa_10vectorizer5cache14advanced_cacheINtB5_19CacheWarmingManagerpE3newB9_
FN:680,_RNvMs2_NtNtCs1YuMAXYbbDa_10vectorizer5cache14advanced_cacheINtB5_19CacheWarmingManagerpE5startB9_
FN:832,_RNvMs3_NtNtCs1YuMAXYbbDa_10vectorizer5cache14advanced_cacheNtB5_18CompressionManager10decompress
FN:792,_RNvMs3_NtNtCs1YuMAXYbbDa_10vectorizer5cache14advanced_cacheNtB5_18CompressionManager3new
FN:802,_RNvMs3_NtNtCs1YuMAXYbbDa_10vectorizer5cache14advanced_cacheNtB5_18CompressionManager8compress
FN:289,_RNvMs_NtNtCs1YuMAXYbbDa_10vectorizer5cache14advanced_cacheNtB4_8CacheKey12with_version
FN:279,_RNvMs_NtNtCs1YuMAXYbbDa_10vectorizer5cache14advanced_cacheNtB4_8CacheKey3new
FN:299,_RNvMs_NtNtCs1YuMAXYbbDa_10vectorizer5cache14advanced_cacheNtB4_8CacheKey9with_tags
FN:859,_RNvXs4_NtNtCs1YuMAXYbbDa_10vectorizer5cache14advanced_cacheNtB5_19AdvancedCacheConfigNtNtCs9Kp62OsN3pY_4core7default7Default7default
FN:306,_RINvXs0_NtNtCs4Tkd3OJeaSh_10vectorizer5cache14advanced_cacheNtB6_8CacheKeyNtNtCs9Kp62OsN3pY_4core4hash4Hash4hashpEBa_
FN:766,_RNCNvMs2_NtNtCs4Tkd3OJeaSh_10vectorizer5cache14advanced_cacheINtB7_19CacheWarmingManagerpE12warm_by_time0Bb_
FN:737,_RNCNvMs2_NtNtCs4Tkd3OJeaSh_10vectorizer5cache14advanced_cacheINtB7_19CacheWarmingManagerpE21execute_warming_cycle0Bb_
FN:772,_RNCNvMs2_NtNtCs4Tkd3OJeaSh_10vectorizer5cache14advanced_cacheINtB7_19CacheWarmingManagerpE21warm_by_user_behavior0Bb_
FN:760,_RNCNvMs2_NtNtCs4Tkd3OJeaSh_10vectorizer5cache14advanced_cacheINtB7_19CacheWarmingManagerpE22warm_by_access_pattern0Bb_
FN:778,_RNCNvMs2_NtNtCs4Tkd3OJeaSh_10vectorizer5cache14advanced_cacheINtB7_19CacheWarmingManagerpE22warm_by_data_freshness0Bb_
FN:784,_RNCNvMs2_NtNtCs4Tkd3OJeaSh_10vectorizer5cache14advanced_cacheINtB7_19CacheWarmingManagerpE24warm_by_query_similarity0Bb_
FN:714,_RNCNvMs2_NtNtCs4Tkd3OJeaSh_10vectorizer5cache14advanced_cacheINtB7_19CacheWarmingManagerpE28execute_warming_cycle_static0Bb_
FN:694,_RNCNvMs2_NtNtCs4Tkd3OJeaSh_10vectorizer5cache14advanced_cacheINtB7_19CacheWarmingManagerpE5start0Bb_
FN:251,_RNvMNtNtCs4Tkd3OJeaSh_10vectorizer5cache14advanced_cacheINtB2_10CacheEntrypE16access_frequencyB6_
FN:625,_RNvMs1_NtNtCs4Tkd3OJeaSh_10vectorizer5cache14advanced_cacheINtB5_13AdvancedCachepE10record_hitB9_
FN:637,_RNvMs1_NtNtCs4Tkd3OJeaSh_10vectorizer5cache14advanced_cacheINtB5_13AdvancedCachepE11record_missB9_
FN:613,_RNvMs1_NtNtCs4Tkd3OJeaSh_10vectorizer5cache14advanced_cacheINtB5_13AdvancedCachepE13promote_to_l1B9_
FN:619,_RNvMs1_NtNtCs4Tkd3OJeaSh_10vectorizer5cache14advanced_cacheINtB5_13AdvancedCachepE13promote_to_l2B9_
FN:557,_RNvMs1_NtNtCs4Tkd3OJeaSh_10vectorizer5cache14advanced_cacheINtB5_13AdvancedCachepE14get_from_layerB9_
FN:655,_RNvMs1_NtNtCs4Tkd3OJeaSh_10vectorizer5cache14advanced_cacheINtB5_13AdvancedCachepE15record_evictionB9_
FN:605,_RNvMs1_NtNtCs4Tkd3OJeaSh_10vectorizer5cache14advanced_cacheINtB5_13AdvancedCachepE16evict_from_layerB9_
FN:644,_RNvMs1_NtNtCs4Tkd3OJeaSh_10vectorizer5cache14advanced_cacheINtB5_13AdvancedCachepE16record_insertionB9_
FN:578,_RNvMs1_NtNtCs4Tkd3OJeaSh_10vectorizer5cache14advanced_cacheINtB5_13AdvancedCachepE17insert_into_layerB9_
FN:595,_RNvMs1_NtNtCs4Tkd3OJeaSh_10vectorizer5cache14advanced_cacheINtB5_13AdvancedCachepE17remove_from_layerB9_
FN:661,_RNvMs1_NtNtCs4Tkd3OJeaSh_10vectorizer5cache14advanced_cacheINtB5_13AdvancedCachepE21record_operation_timeB9_
FN:478,_RNvMs1_NtNtCs4Tkd3OJeaSh_10vectorizer5cache14advanced_cacheINtB5_13AdvancedCachepE3getB9_
FN:431,_RNvMs1_NtNtCs4Tkd3OJeaSh_10vectorizer5cache14advanced_cacheINtB5_13AdvancedCachepE3newB9_
FN:542,_RNvMs1_NtNtCs4Tkd3OJeaSh_10vectorizer5cache14advanced_cacheINtB5_13AdvancedCachepE5clearB9_
FN:512,_RNvMs1_NtNtCs4Tkd3OJeaSh_10vectorizer5cache14advanced_cacheINtB5_13AdvancedCachepE6insertB9_
FN:535,_RNvMs1_NtNtCs4Tkd3OJeaSh_10vectorizer5cache14advanced_cacheINtB5_13AdvancedCachepE6removeB9_
FN:552,_RNvMs1_NtNtCs4Tkd3OJeaSh_10vectorizer5cache14advanced_cacheINtB5_13AdvancedCachepE9get_statsB9_
FN:766,_RNvMs2_NtNtCs4Tkd3OJeaSh_10vectorizer5cache14advanced_cacheINtB5_19CacheWarmingManagerpE12warm_by_timeB9_
FN:737,_RNvMs2_NtNtCs4Tkd3OJeaSh_10vectorizer5cache14advanced_cacheINtB5_19CacheWarmingManagerpE21execute_warming_cycleB9_
FN:772,_RNvMs2_NtNtCs4Tkd3OJeaSh_10vectorizer5cache14advanced_cacheINtB5_19CacheWarmingManagerpE21warm_by_user_behaviorB9_
FN:760,_RNvMs2_NtNtCs4Tkd3OJeaSh_10vectorizer5cache14advanced_cacheINtB5_19CacheWarmingManagerpE22warm_by_access_patternB9_
FN:778,_RNvMs2_NtNtCs4Tkd3OJeaSh_10vectorizer5cache14advanced_cacheINtB5_19CacheWarmingManagerpE22warm_by_data_freshnessB9_
FN:784,_RNvMs2_NtNtCs4Tkd3OJeaSh_10vectorizer5cache14advanced_cacheINtB5_19CacheWarmingManagerpE24warm_by_query_similarityB9_
FN:710,_RNvMs2_NtNtCs4Tkd3OJeaSh_10vectorizer5cache14advanced_cacheINtB5_19CacheWarmingManagerpE28execute_warming_cycle_staticB9_
FN:670,_RNvMs2_NtNtCs4Tkd3OJeaSh_10vectorizer5cache14advanced_cacheINtB5_19CacheWarmingManagerpE3newB9_
FN:680,_RNvMs2_NtNtCs4Tkd3OJeaSh_10vectorizer5cache14advanced_cacheINtB5_19CacheWarmingManagerpE5startB9_
FN:832,_RNvMs3_NtNtCs4Tkd3OJeaSh_10vectorizer5cache14advanced_cacheNtB5_18CompressionManager10decompress
FN:915,_RNvNtNtNtCs4Tkd3OJeaSh_10vectorizer5cache14advanced_cache5testss_23test_cache_key_creation
FN:929,_RNvNtNtNtCs4Tkd3OJeaSh_10vectorizer5cache14advanced_cache5testss_24test_cache_key_with_tags
FN:938,_RNvNtNtNtCs4Tkd3OJeaSh_10vectorizer5cache14advanced_cache5testss_25test_cache_entry_creation
FN:959,_RNvNtNtNtCs4Tkd3OJeaSh_10vectorizer5cache14advanced_cache5testss_27test_cache_entry_expiration
FN:923,_RNvNtNtNtCs4Tkd3OJeaSh_10vectorizer5cache14advanced_cache5testss_27test_cache_key_with_version
FN:980,_RNvNtNtNtCs4Tkd3OJeaSh_10vectorizer5cache14advanced_cache5testss_32test_compression_below_threshold
FN:947,_RNvNtNtNtCs4Tkd3OJeaSh_10vectorizer5cache14advanced_cache5testss_33test_cache_entry_access_recording
FN:966,_RNvNtNtNtCs4Tkd3OJeaSh_10vectorizer5cache14advanced_cache5testss_33test_compression_manager_creation
FN:995,_RNvNtNtNtCs4Tkd3OJeaSh_10vectorizer5cache14advanced_cache5testss_34test_advanced_cache_config_default
FN:240,_RNvMNtNtCs4Tkd3OJeaSh_10vectorizer5cache14advanced_cacheINtB2_10CacheEntryNtNtCs2jSHSziefvq_5alloc6string6StringE10is_expiredB6_
FN:245,_RNvMNtNtCs4Tkd3OJeaSh_10vectorizer5cache14advanced_cacheINtB2_10CacheEntryNtNtCs2jSHSziefvq_5alloc6string6StringE13record_accessB6_
FN:224,_RNvMNtNtCs4Tkd3OJeaSh_10vectorizer5cache14advanced_cacheINtB2_10CacheEntryNtNtCs2jSHSziefvq_5alloc6string6StringE3newB6_
FN:792,_RNvMs3_NtNtCs4Tkd3OJeaSh_10vectorizer5cache14advanced_cacheNtB5_18CompressionManager3new
FN:802,_RNvMs3_NtNtCs4Tkd3OJeaSh_10vectorizer5cache14advanced_cacheNtB5_18CompressionManager8compress
FN:289,_RNvMs_NtNtCs4Tkd3OJeaSh_10vectorizer5cache14advanced_cacheNtB4_8CacheKey12with_version
FN:279,_RNvMs_NtNtCs4Tkd3OJeaSh_10vectorizer5cache14advanced_cacheNtB4_8CacheKey3new
FN:299,_RNvMs_NtNtCs4Tkd3OJeaSh_10vectorizer5cache14advanced_cacheNtB4_8CacheKey9with_tags
FN:859,_RNvXs4_NtNtCs4Tkd3OJeaSh_10vectorizer5cache14advanced_cacheNtB5_19AdvancedCacheConfigNtNtCs9Kp62OsN3pY_4core7default7Default7default
FNDA:0,_RINvXs0_NtNtCs1YuMAXYbbDa_10vectorizer5cache14advanced_cacheNtB6_8CacheKeyNtNtCs9Kp62OsN3pY_4core4hash4Hash4hashpEBa_
FNDA:0,_RNCNvMs2_NtNtCs1YuMAXYbbDa_10vectorizer5cache14advanced_cacheINtB7_19CacheWarmingManagerpE12warm_by_time0Bb_
FNDA:0,_RNCNvMs2_NtNtCs1YuMAXYbbDa_10vectorizer5cache14advanced_cacheINtB7_19CacheWarmingManagerpE21execute_warming_cycle0Bb_
FNDA:0,_RNCNvMs2_NtNtCs1YuMAXYbbDa_10vectorizer5cache14advanced_cacheINtB7_19CacheWarmingManagerpE21warm_by_user_behavior0Bb_
FNDA:0,_RNCNvMs2_NtNtCs1YuMAXYbbDa_10vectorizer5cache14advanced_cacheINtB7_19CacheWarmingManagerpE22warm_by_access_pattern0Bb_
FNDA:0,_RNCNvMs2_NtNtCs1YuMAXYbbDa_10vectorizer5cache14advanced_cacheINtB7_19CacheWarmingManagerpE22warm_by_data_freshness0Bb_
FNDA:0,_RNCNvMs2_NtNtCs1YuMAXYbbDa_10vectorizer5cache14advanced_cacheINtB7_19CacheWarmingManagerpE24warm_by_query_similarity0Bb_
FNDA:0,_RNCNvMs2_NtNtCs1YuMAXYbbDa_10vectorizer5cache14advanced_cacheINtB7_19CacheWarmingManagerpE28execute_warming_cycle_static0Bb_
FNDA:0,_RNCNvMs2_NtNtCs1YuMAXYbbDa_10vectorizer5cache14advanced_cacheINtB7_19CacheWarmingManagerpE5start0Bb_
FNDA:0,_RNvMNtNtCs1YuMAXYbbDa_10vectorizer5cache14advanced_cacheINtB2_10CacheEntrypE10is_expiredB6_
FNDA:0,_RNvMNtNtCs1YuMAXYbbDa_10vectorizer5cache14advanced_cacheINtB2_10CacheEntrypE13record_accessB6_
FNDA:0,_RNvMNtNtCs1YuMAXYbbDa_10vectorizer5cache14advanced_cacheINtB2_10CacheEntrypE16access_frequencyB6_
FNDA:0,_RNvMNtNtCs1YuMAXYbbDa_10vectorizer5cache14advanced_cacheINtB2_10CacheEntrypE3newB6_
FNDA:0,_RNvMs1_NtNtCs1YuMAXYbbDa_10vectorizer5cache14advanced_cacheINtB5_13AdvancedCachepE10record_hitB9_
FNDA:0,_RNvMs1_NtNtCs1YuMAXYbbDa_10vectorizer5cache14advanced_cacheINtB5_13AdvancedCachepE11record_missB9_
FNDA:0,_RNvMs1_NtNtCs1YuMAXYbbDa_10vectorizer5cache14advanced_cacheINtB5_13AdvancedCachepE13promote_to_l1B9_
FNDA:0,_RNvMs1_NtNtCs1YuMAXYbbDa_10vectorizer5cache14advanced_cacheINtB5_13AdvancedCachepE13promote_to_l2B9_
FNDA:0,_RNvMs1_NtNtCs1YuMAXYbbDa_10vectorizer5cache14advanced_cacheINtB5_13AdvancedCachepE14get_from_layerB9_
FNDA:0,_RNvMs1_NtNtCs1YuMAXYbbDa_10vectorizer5cache14advanced_cacheINtB5_13AdvancedCachepE15record_evictionB9_
FNDA:0,_RNvMs1_NtNtCs1YuMAXYbbDa_10vectorizer5cache14advanced_cacheINtB5_13AdvancedCachepE16evict_from_layerB9_
FNDA:0,_RNvMs1_NtNtCs1YuMAXYbbDa_10vectorizer5cache14advanced_cacheINtB5_13AdvancedCachepE16record_insertionB9_
FNDA:0,_RNvMs1_NtNtCs1YuMAXYbbDa_10vectorizer5cache14advanced_cacheINtB5_13AdvancedCachepE17insert_into_layerB9_
FNDA:0,_RNvMs1_NtNtCs1YuMAXYbbDa_10vectorizer5cache14advanced_cacheINtB5_13AdvancedCachepE17remove_from_layerB9_
FNDA:0,_RNvMs1_NtNtCs1YuMAXYbbDa_10vectorizer5cache14advanced_cacheINtB5_13AdvancedCachepE21record_operation_timeB9_
FNDA:0,_RNvMs1_NtNtCs1YuMAXYbbDa_10vectorizer5cache14advanced_cacheINtB5_13AdvancedCachepE3getB9_
FNDA:0,_RNvMs1_NtNtCs1YuMAXYbbDa_10vectorizer5cache14advanced_cacheINtB5_13AdvancedCachepE3newB9_
FNDA:0,_RNvMs1_NtNtCs1YuMAXYbbDa_10vectorizer5cache14advanced_cacheINtB5_13AdvancedCachepE5clearB9_
FNDA:0,_RNvMs1_NtNtCs1YuMAXYbbDa_10vectorizer5cache14advanced_cacheINtB5_13AdvancedCachepE6insertB9_
FNDA:0,_RNvMs1_NtNtCs1YuMAXYbbDa_10vectorizer5cache14advanced_cacheINtB5_13AdvancedCachepE6removeB9_
FNDA:0,_RNvMs1_NtNtCs1YuMAXYbbDa_10vectorizer5cache14advanced_cacheINtB5_13AdvancedCachepE9get_statsB9_
FNDA:0,_RNvMs2_NtNtCs1YuMAXYbbDa_10vectorizer5cache14advanced_cacheINtB5_19CacheWarmingManagerpE12warm_by_timeB9_
FNDA:0,_RNvMs2_NtNtCs1YuMAXYbbDa_10vectorizer5cache14advanced_cacheINtB5_19CacheWarmingManagerpE21execute_warming_cycleB9_
FNDA:0,_RNvMs2_NtNtCs1YuMAXYbbDa_10vectorizer5cache14advanced_cacheINtB5_19CacheWarmingManagerpE21warm_by_user_behaviorB9_
FNDA:0,_RNvMs2_NtNtCs1YuMAXYbbDa_10vectorizer5cache14advanced_cacheINtB5_19CacheWarmingManagerpE22warm_by_access_patternB9_
FNDA:0,_RNvMs2_NtNtCs1YuMAXYbbDa_10vectorizer5cache14advanced_cacheINtB5_19CacheWarmingManagerpE22warm_by_data_freshnessB9_
FNDA:0,_RNvMs2_NtNtCs1YuMAXYbbDa_10vectorizer5cache14advanced_cacheINtB5_19CacheWarmingManagerpE24warm_by_query_similarityB9_
FNDA:0,_RNvMs2_NtNtCs1YuMAXYbbDa_10vectorizer5cache14advanced_cacheINtB5_19CacheWarmingManagerpE28execute_warming_cycle_staticB9_
FNDA:0,_RNvMs2_NtNtCs1YuMAXYbbDa_10vectorizer5cache14advanced_cacheINtB5_19CacheWarmingManagerpE3newB9_
FNDA:0,_RNvMs2_NtNtCs1YuMAXYbbDa_10vectorizer5cache14advanced_cacheINtB5_19CacheWarmingManagerpE5startB9_
FNDA:0,_RNvMs3_NtNtCs1YuMAXYbbDa_10vectorizer5cache14advanced_cacheNtB5_18CompressionManager10decompress
FNDA:0,_RNvMs3_NtNtCs1YuMAXYbbDa_10vectorizer5cache14advanced_cacheNtB5_18CompressionManager3new
FNDA:0,_RNvMs3_NtNtCs1YuMAXYbbDa_10vectorizer5cache14advanced_cacheNtB5_18CompressionManager8compress
FNDA:0,_RNvMs_NtNtCs1YuMAXYbbDa_10vectorizer5cache14advanced_cacheNtB4_8CacheKey12with_version
FNDA:0,_RNvMs_NtNtCs1YuMAXYbbDa_10vectorizer5cache14advanced_cacheNtB4_8CacheKey3new
FNDA:0,_RNvMs_NtNtCs1YuMAXYbbDa_10vectorizer5cache14advanced_cacheNtB4_8CacheKey9with_tags
FNDA:0,_RNvXs4_NtNtCs1YuMAXYbbDa_10vectorizer5cache14advanced_cacheNtB5_19AdvancedCacheConfigNtNtCs9Kp62OsN3pY_4core7default7Default7default
FNDA:0,_RINvXs0_NtNtCs4Tkd3OJeaSh_10vectorizer5cache14advanced_cacheNtB6_8CacheKeyNtNtCs9Kp62OsN3pY_4core4hash4Hash4hashpEBa_
FNDA:0,_RNCNvMs2_NtNtCs4Tkd3OJeaSh_10vectorizer5cache14advanced_cacheINtB7_19CacheWarmingManagerpE12warm_by_time0Bb_
FNDA:0,_RNCNvMs2_NtNtCs4Tkd3OJeaSh_10vectorizer5cache14advanced_cacheINtB7_19CacheWarmingManagerpE21execute_warming_cycle0Bb_
FNDA:0,_RNCNvMs2_NtNtCs4Tkd3OJeaSh_10vectorizer5cache14advanced_cacheINtB7_19CacheWarmingManagerpE21warm_by_user_behavior0Bb_
FNDA:0,_RNCNvMs2_NtNtCs4Tkd3OJeaSh_10vectorizer5cache14advanced_cacheINtB7_19CacheWarmingManagerpE22warm_by_access_pattern0Bb_
FNDA:0,_RNCNvMs2_NtNtCs4Tkd3OJeaSh_10vectorizer5cache14advanced_cacheINtB7_19CacheWarmingManagerpE22warm_by_data_freshness0Bb_
FNDA:0,_RNCNvMs2_NtNtCs4Tkd3OJeaSh_10vectorizer5cache14advanced_cacheINtB7_19CacheWarmingManagerpE24warm_by_query_similarity0Bb_
FNDA:0,_RNCNvMs2_NtNtCs4Tkd3OJeaSh_10vectorizer5cache14advanced_cacheINtB7_19CacheWarmingManagerpE28execute_warming_cycle_static0Bb_
FNDA:0,_RNCNvMs2_NtNtCs4Tkd3OJeaSh_10vectorizer5cache14advanced_cacheINtB7_19CacheWarmingManagerpE5start0Bb_
FNDA:0,_RNvMNtNtCs4Tkd3OJeaSh_10vectorizer5cache14advanced_cacheINtB2_10CacheEntrypE16access_frequencyB6_
FNDA:0,_RNvMs1_NtNtCs4Tkd3OJeaSh_10vectorizer5cache14advanced_cacheINtB5_13AdvancedCachepE10record_hitB9_
FNDA:0,_RNvMs1_NtNtCs4Tkd3OJeaSh_10vectorizer5cache14advanced_cacheINtB5_13AdvancedCachepE11record_missB9_
FNDA:0,_RNvMs1_NtNtCs4Tkd3OJeaSh_10vectorizer5cache14advanced_cacheINtB5_13AdvancedCachepE13promote_to_l1B9_
FNDA:0,_RNvMs1_NtNtCs4Tkd3OJeaSh_10vectorizer5cache14advanced_cacheINtB5_13AdvancedCachepE13promote_to_l2B9_
FNDA:0,_RNvMs1_NtNtCs4Tkd3OJeaSh_10vectorizer5cache14advanced_cacheINtB5_13AdvancedCachepE14get_from_layerB9_
FNDA:0,_RNvMs1_NtNtCs4Tkd3OJeaSh_10vectorizer5cache14advanced_cacheINtB5_13AdvancedCachepE15record_evictionB9_
FNDA:0,_RNvMs1_NtNtCs4Tkd3OJeaSh_10vectorizer5cache14advanced_cacheINtB5_13AdvancedCachepE16evict_from_layerB9_
FNDA:0,_RNvMs1_NtNtCs4Tkd3OJeaSh_10vectorizer5cache14advanced_cacheINtB5_13AdvancedCachepE16record_insertionB9_
FNDA:0,_RNvMs1_NtNtCs4Tkd3OJeaSh_10vectorizer5cache14advanced_cacheINtB5_13AdvancedCachepE17insert_into_layerB9_
FNDA:0,_RNvMs1_NtNtCs4Tkd3OJeaSh_10vectorizer5cache14advanced_cacheINtB5_13AdvancedCachepE17remove_from_layerB9_
FNDA:0,_RNvMs1_NtNtCs4Tkd3OJeaSh_10vectorizer5cache14advanced_cacheINtB5_13AdvancedCachepE21record_operation_timeB9_
FNDA:0,_RNvMs1_NtNtCs4Tkd3OJeaSh_10vectorizer5cache14advanced_cacheINtB5_13AdvancedCachepE3getB9_
FNDA:0,_RNvMs1_NtNtCs4Tkd3OJeaSh_10vectorizer5cache14advanced_cacheINtB5_13AdvancedCachepE3newB9_
FNDA:0,_RNvMs1_NtNtCs4Tkd3OJeaSh_10vectorizer5cache14advanced_cacheINtB5_13AdvancedCachepE5clearB9_
FNDA:0,_RNvMs1_NtNtCs4Tkd3OJeaSh_10vectorizer5cache14advanced_cacheINtB5_13AdvancedCachepE6insertB9_
FNDA:0,_RNvMs1_NtNtCs4Tkd3OJeaSh_10vectorizer5cache14advanced_cacheINtB5_13AdvancedCachepE6removeB9_
FNDA:0,_RNvMs1_NtNtCs4Tkd3OJeaSh_10vectorizer5cache14advanced_cacheINtB5_13AdvancedCachepE9get_statsB9_
FNDA:0,_RNvMs2_NtNtCs4Tkd3OJeaSh_10vectorizer5cache14advanced_cacheINtB5_19CacheWarmingManagerpE12warm_by_timeB9_
FNDA:0,_RNvMs2_NtNtCs4Tkd3OJeaSh_10vectorizer5cache14advanced_cacheINtB5_19CacheWarmingManagerpE21execute_warming_cycleB9_
FNDA:0,_RNvMs2_NtNtCs4Tkd3OJeaSh_10vectorizer5cache14advanced_cacheINtB5_19CacheWarmingManagerpE21warm_by_user_behaviorB9_
FNDA:0,_RNvMs2_NtNtCs4Tkd3OJeaSh_10vectorizer5cache14advanced_cacheINtB5_19CacheWarmingManagerpE22warm_by_access_patternB9_
FNDA:0,_RNvMs2_NtNtCs4Tkd3OJeaSh_10vectorizer5cache14advanced_cacheINtB5_19CacheWarmingManagerpE22warm_by_data_freshnessB9_
FNDA:0,_RNvMs2_NtNtCs4Tkd3OJeaSh_10vectorizer5cache14advanced_cacheINtB5_19CacheWarmingManagerpE24warm_by_query_similarityB9_
FNDA:0,_RNvMs2_NtNtCs4Tkd3OJeaSh_10vectorizer5cache14advanced_cacheINtB5_19CacheWarmingManagerpE28execute_warming_cycle_staticB9_
FNDA:0,_RNvMs2_NtNtCs4Tkd3OJeaSh_10vectorizer5cache14advanced_cacheINtB5_19CacheWarmingManagerpE3newB9_
FNDA:0,_RNvMs2_NtNtCs4Tkd3OJeaSh_10vectorizer5cache14advanced_cacheINtB5_19CacheWarmingManagerpE5startB9_
FNDA:0,_RNvMs3_NtNtCs4Tkd3OJeaSh_10vectorizer5cache14advanced_cacheNtB5_18CompressionManager10decompress
FNDA:1,_RNvNtNtNtCs4Tkd3OJeaSh_10vectorizer5cache14advanced_cache5testss_23test_cache_key_creation
FNDA:1,_RNvNtNtNtCs4Tkd3OJeaSh_10vectorizer5cache14advanced_cache5testss_24test_cache_key_with_tags
FNDA:1,_RNvNtNtNtCs4Tkd3OJeaSh_10vectorizer5cache14advanced_cache5testss_25test_cache_entry_creation
FNDA:1,_RNvNtNtNtCs4Tkd3OJeaSh_10vectorizer5cache14advanced_cache5testss_27test_cache_entry_expiration
FNDA:1,_RNvNtNtNtCs4Tkd3OJeaSh_10vectorizer5cache14advanced_cache5testss_27test_cache_key_with_version
FNDA:1,_RNvNtNtNtCs4Tkd3OJeaSh_10vectorizer5cache14advanced_cache5testss_32test_compression_below_threshold
FNDA:1,_RNvNtNtNtCs4Tkd3OJeaSh_10vectorizer5cache14advanced_cache5testss_33test_cache_entry_access_recording
FNDA:1,_RNvNtNtNtCs4Tkd3OJeaSh_10vectorizer5cache14advanced_cache5testss_33test_compression_manager_creation
FNDA:1,_RNvNtNtNtCs4Tkd3OJeaSh_10vectorizer5cache14advanced_cache5testss_34test_advanced_cache_config_default
FNDA:2,_RNvMNtNtCs4Tkd3OJeaSh_10vectorizer5cache14advanced_cacheINtB2_10CacheEntryNtNtCs2jSHSziefvq_5alloc6string6StringE10is_expiredB6_
FNDA:2,_RNvMNtNtCs4Tkd3OJeaSh_10vectorizer5cache14advanced_cacheINtB2_10CacheEntryNtNtCs2jSHSziefvq_5alloc6string6StringE13record_accessB6_
FNDA:3,_RNvMNtNtCs4Tkd3OJeaSh_10vectorizer5cache14advanced_cacheINtB2_10CacheEntryNtNtCs2jSHSziefvq_5alloc6string6StringE3newB6_
FNDA:2,_RNvMs3_NtNtCs4Tkd3OJeaSh_10vectorizer5cache14advanced_cacheNtB5_18CompressionManager3new
FNDA:1,_RNvMs3_NtNtCs4Tkd3OJeaSh_10vectorizer5cache14advanced_cacheNtB5_18CompressionManager8compress
FNDA:1,_RNvMs_NtNtCs4Tkd3OJeaSh_10vectorizer5cache14advanced_cacheNtB4_8CacheKey12with_version
FNDA:2,_RNvMs_NtNtCs4Tkd3OJeaSh_10vectorizer5cache14advanced_cacheNtB4_8CacheKey3new
FNDA:1,_RNvMs_NtNtCs4Tkd3OJeaSh_10vectorizer5cache14advanced_cacheNtB4_8CacheKey9with_tags
FNDA:1,_RNvXs4_NtNtCs4Tkd3OJeaSh_10vectorizer5cache14advanced_cacheNtB5_19AdvancedCacheConfigNtNtCs9Kp62OsN3pY_4core7default7Default7default
FNF:55
FNH:18
DA:224,3
DA:225,3
DA:226,3
DA:227,3
DA:228,3
DA:229,3
DA:230,3
DA:231,3
DA:232,3
DA:233,3
DA:234,3
DA:235,3
DA:236,3
DA:237,3
DA:240,2
DA:241,2
DA:242,2
DA:245,2
DA:246,2
DA:247,2
DA:248,2
DA:251,0
DA:252,0
DA:253,0
DA:254,0
DA:256,0
DA:258,0
DA:279,2
DA:280,2
DA:281,2
DA:282,2
DA:283,2
DA:284,2
DA:285,2
DA:286,2
DA:289,1
DA:290,1
DA:291,1
DA:292,1
DA:293,1
DA:294,1
DA:295,1
DA:296,1
DA:299,1
DA:300,1
DA:301,1
DA:302,1
DA:306,0
DA:307,0
DA:308,0
DA:309,0
DA:311,0
DA:431,0
DA:432,0
DA:433,0
DA:434,0
DA:435,0
DA:436,0
DA:437,0
DA:439,0
DA:440,0
DA:441,0
DA:442,0
DA:443,0
DA:444,0
DA:445,0
DA:446,0
DA:447,0
DA:449,0
DA:452,0
DA:453,0
DA:454,0
DA:455,0
DA:456,0
DA:458,0
DA:462,0
DA:463,0
DA:465,0
DA:469,0
DA:470,0
DA:471,0
DA:474,0
DA:475,0
DA:478,0
DA:479,0
DA:482,0
DA:483,0
DA:484,0
DA:485,0
DA:486,0
DA:489,0
DA:490,0
DA:492,0
DA:493,0
DA:494,0
DA:495,0
DA:498,0
DA:499,0
DA:501,0
DA:502,0
DA:503,0
DA:504,0
DA:506,0
DA:507,0
DA:508,0
DA:509,0
DA:512,0
DA:513,0
DA:514,0
DA:517,0
DA:520,0
DA:521,0
DA:522,0
DA:523,0
DA:524,0
DA:525,0
DA:526,0
DA:527,0
DA:530,0
DA:531,0
DA:532,0
DA:535,0
DA:536,0
DA:537,0
DA:538,0
DA:539,0
DA:542,0
DA:543,0
DA:544,0
DA:545,0
DA:547,0
DA:548,0
DA:549,0
DA:552,0
DA:553,0
DA:554,0
DA:557,0
DA:558,0
DA:559,0
DA:560,0
DA:561,0
DA:562,0
DA:564,0
DA:565,0
DA:566,0
DA:567,0
DA:568,0
DA:570,0
DA:571,0
DA:573,0
DA:575,0
DA:578,0
DA:579,0
DA:580,0
DA:581,0
DA:582,0
DA:583,0
DA:584,0
DA:587,0
DA:588,0
DA:589,0
DA:591,0
DA:592,0
DA:595,0
DA:596,0
DA:597,0
DA:598,0
DA:599,0
DA:600,0
DA:601,0
DA:602,0
DA:605,0
DA:607,0
DA:608,0
DA:609,0
DA:610,0
DA:613,0
DA:616,0
DA:619,0
DA:622,0
DA:625,0
DA:626,0
DA:627,0
DA:628,0
DA:629,0
DA:630,0
DA:631,0
DA:633,0
DA:634,0
DA:637,0
DA:638,0
DA:639,0
DA:640,0
DA:641,0
DA:644,0
DA:645,0
DA:646,0
DA:647,0
DA:648,0
DA:649,0
DA:650,0
DA:652,0
DA:655,0
DA:656,0
DA:657,0
DA:658,0
DA:661,0
DA:662,0
DA:663,0
DA:664,0
DA:665,0
DA:670,0
DA:671,0
DA:672,0
DA:673,0
DA:674,0
DA:675,0
DA:676,0
DA:677,0
DA:680,0
DA:681,0
DA:682,0
DA:683,0
DA:684,0
DA:687,0
DA:688,0
DA:689,0
DA:690,0
DA:691,0
DA:692,0
DA:694,0
DA:695,0
DA:697,0
DA:699,0
DA:700,0
DA:701,0
DA:702,0
DA:703,0
DA:704,0
DA:707,0
DA:710,0
DA:711,0
DA:712,0
DA:713,0
DA:714,0
DA:715,0
DA:716,0
DA:717,0
DA:718,0
DA:719,0
DA:720,0
DA:721,0
DA:722,0
DA:723,0
DA:724,0
DA:725,0
DA:726,0
DA:727,0
DA:728,0
DA:729,0
DA:730,0
DA:731,0
DA:734,0
DA:737,0
DA:738,0
DA:739,0
DA:741,0
DA:744,0
DA:747,0
DA:750,0
DA:753,0
DA:757,0
DA:760,0
DA:762,0
DA:763,0
DA:766,0
DA:768,0
DA:769,0
DA:772,0
DA:774,0
DA:775,0
DA:778,0
DA:780,0
DA:781,0
DA:784,0
DA:786,0
DA:787,0
DA:792,2
DA:793,2
DA:794,2
DA:795,2
DA:796,2
DA:797,2
DA:798,2
DA:799,2
DA:802,1
DA:803,1
DA:804,1
DA:805,0
DA:807,0
DA:810,0
DA:814,0
DA:818,0
DA:822,0
DA:826,0
DA:829,1
DA:832,0
DA:833,0
DA:836,0
DA:840,0
DA:844,0
DA:848,0
DA:852,0
DA:855,0
DA:859,1
DA:860,1
DA:861,1
DA:862,1
DA:863,1
DA:864,1
DA:865,1
DA:866,1
DA:867,1
DA:868,1
DA:869,1
DA:870,1
DA:871,1
DA:872,1
DA:873,1
DA:874,1
DA:875,1
DA:876,1
DA:877,1
DA:878,1
DA:879,1
DA:880,1
DA:881,1
DA:882,1
DA:883,1
DA:884,1
DA:885,1
DA:886,1
DA:887,1
DA:888,1
DA:889,1
DA:890,1
DA:891,1
DA:892,1
DA:893,1
DA:894,1
DA:895,1
DA:896,1
DA:897,1
DA:898,1
DA:899,1
DA:900,1
DA:901,1
DA:902,1
DA:903,1
DA:904,1
DA:905,1
DA:906,1
DA:907,1
DA:915,1
DA:916,1
DA:917,1
DA:918,1
DA:919,1
DA:920,1
DA:923,1
DA:924,1
DA:925,1
DA:926,1
DA:929,1
DA:930,1
DA:931,1
DA:932,1
DA:933,1
DA:934,1
DA:935,1
DA:938,1
DA:939,1
DA:940,1
DA:941,1
DA:942,1
DA:943,1
DA:944,1
DA:947,1
DA:948,1
DA:949,1
DA:951,1
DA:952,1
DA:954,1
DA:955,1
DA:956,1
DA:959,1
DA:960,1
DA:962,1
DA:963,1
DA:966,1
DA:967,1
DA:968,1
DA:969,1
DA:970,1
DA:971,1
DA:972,1
DA:974,1
DA:975,1
DA:976,1
DA:977,1
DA:980,1
DA:981,1
DA:982,1
DA:983,1
DA:984,1
DA:985,1
DA:986,1
DA:988,1
DA:989,1
DA:990,1
DA:991,1
DA:992,1
DA:995,1
DA:996,1
DA:997,1
DA:998,1
DA:999,1
DA:1000,1
DA:1001,1
DA:1002,1
BRF:0
BRH:0
LF:438
LH:169
end_of_record
SF:/mnt/f/Node/hivellm/vectorizer/src/cache/query_cache.rs
FN:190,_RNvMs2_NtNtCs1YuMAXYbbDa_10vectorizer5cache11query_cacheINtB5_10QueryCachepE11reset_statsB9_
FN:105,_RNvMs2_NtNtCs1YuMAXYbbDa_10vectorizer5cache11query_cacheINtB5_10QueryCachepE3newB9_
FN:163,_RNvMs2_NtNtCs1YuMAXYbbDa_10vectorizer5cache11query_cacheINtB5_10QueryCachepE5clearB9_
FN:58,_RNvMs_NtNtCs1YuMAXYbbDa_10vectorizer5cache11query_cacheNtB4_8QueryKey13threshold_f64
FN:48,_RNvMs_NtNtCs1YuMAXYbbDa_10vectorizer5cache11query_cacheNtB4_8QueryKey3new
FN:24,_RNvXNtNtCs1YuMAXYbbDa_10vectorizer5cache11query_cacheNtB2_16QueryCacheConfigNtNtCs9Kp62OsN3pY_4core7default7Default7default
FN:64,_RINvXs0_NtNtCs1YuMAXYbbDa_10vectorizer5cache11query_cacheNtB6_8QueryKeyNtNtCs9Kp62OsN3pY_4core4hash4Hash4hashNtNtCscXuXXhIhAwy_9hashbrown6hasher13DefaultHasherEBa_
FN:153,_RNCNvMs2_NtNtCs1YuMAXYbbDa_10vectorizer5cache11query_cacheINtB7_10QueryCacheNtNtCs3j9EsvJpHFf_10serde_json5value5ValueE21invalidate_collection0Bb_
FN:154,_RNCNvMs2_NtNtCs1YuMAXYbbDa_10vectorizer5cache11query_cacheINtB7_10QueryCacheNtNtCs3j9EsvJpHFf_10serde_json5value5ValueE21invalidate_collections_0Bb_
FN:59,_RNCNvMs_NtNtCs1YuMAXYbbDa_10vectorizer5cache11query_cacheNtB6_8QueryKey13threshold_f640Ba_
FN:53,_RNCNvMs_NtNtCs1YuMAXYbbDa_10vectorizer5cache11query_cacheNtB6_8QueryKey3new0Ba_
FN:89,_RNvMs1_NtNtCs1YuMAXYbbDa_10vectorizer5cache11query_cacheINtB5_11CachedEntryNtNtCs3j9EsvJpHFf_10serde_json5value5ValueE10is_expiredB9_
FN:81,_RNvMs1_NtNtCs1YuMAXYbbDa_10vectorizer5cache11query_cacheINtB5_11CachedEntryNtNtCs3j9EsvJpHFf_10serde_json5value5ValueE3newB9_
FN:149,_RNvMs2_NtNtCs1YuMAXYbbDa_10vectorizer5cache11query_cacheINtB5_10QueryCacheNtNtCs3j9EsvJpHFf_10serde_json5value5ValueE21invalidate_collectionB9_
FN:119,_RNvMs2_NtNtCs1YuMAXYbbDa_10vectorizer5cache11query_cacheINtB5_10QueryCacheNtNtCs3j9EsvJpHFf_10serde_json5value5ValueE3getB9_
FN:169,_RNvMs2_NtNtCs1YuMAXYbbDa_10vectorizer5cache11query_cacheINtB5_10QueryCacheNtNtCs3j9EsvJpHFf_10serde_json5value5ValueE5statsB9_
FN:139,_RNvMs2_NtNtCs1YuMAXYbbDa_10vectorizer5cache11query_cacheINtB5_10QueryCacheNtNtCs3j9EsvJpHFf_10serde_json5value5ValueE6insertB9_
FN:105,_RNvMs2_NtNtCs1YuMAXYbbDa_10vectorizer5cache11query_cacheINtB5_10QueryCacheNtNtCs3j9EsvJpHFf_10serde_json5value5ValueE3newCs6A4V2kEPNjh_23integration_query_cache
FN:59,_RNCNvMs_NtNtCs4Tkd3OJeaSh_10vectorizer5cache11query_cacheNtB6_8QueryKey13threshold_f640Ba_
FN:190,_RNvMs2_NtNtCs4Tkd3OJeaSh_10vectorizer5cache11query_cacheINtB5_10QueryCachepE11reset_statsB9_
FN:58,_RNvMs_NtNtCs4Tkd3OJeaSh_10vectorizer5cache11query_cacheNtB4_8QueryKey13threshold_f64
FN:64,_RINvXs0_NtNtCs4Tkd3OJeaSh_10vectorizer5cache11query_cacheNtB6_8QueryKeyNtNtCs9Kp62OsN3pY_4core4hash4Hash4hashNtNtCscXuXXhIhAwy_9hashbrown6hasher13DefaultHasherEBa_
FN:153,_RNCNvMs2_NtNtCs4Tkd3OJeaSh_10vectorizer5cache11query_cacheINtB7_10QueryCacheINtNtCs2jSHSziefvq_5alloc3vec3VecNtNtB1h_6string6StringEE21invalidate_collection0Bb_
FN:154,_RNCNvMs2_NtNtCs4Tkd3OJeaSh_10vectorizer5cache11query_cacheINtB7_10QueryCacheINtNtCs2jSHSziefvq_5alloc3vec3VecNtNtB1h_6string6StringEE21invalidate_collections_0Bb_
FN:153,_RNCNvMs2_NtNtCs4Tkd3OJeaSh_10vectorizer5cache11query_cacheINtB7_10QueryCacheNtNtCs3j9EsvJpHFf_10serde_json5value5ValueE21invalidate_collection0Bb_
FN:154,_RNCNvMs2_NtNtCs4Tkd3OJeaSh_10vectorizer5cache11query_cacheINtB7_10QueryCacheNtNtCs3j9EsvJpHFf_10serde_json5value5ValueE21invalidate_collections_0Bb_
FN:53,_RNCNvMs_NtNtCs4Tkd3OJeaSh_10vectorizer5cache11query_cacheNtB6_8QueryKey3new0Ba_
FN:89,_RNvMs1_NtNtCs4Tkd3OJeaSh_10vectorizer5cache11query_cacheINtB5_11CachedEntryINtNtCs2jSHSziefvq_5alloc3vec3VecNtNtB1g_6string6StringEE10is_expiredB9_
FN:81,_RNvMs1_NtNtCs4Tkd3OJeaSh_10vectorizer5cache11query_cacheINtB5_11CachedEntryINtNtCs2jSHSziefvq_5alloc3vec3VecNtNtB1g_6string6StringEE3newB9_
FN:89,_RNvMs1_NtNtCs4Tkd3OJeaSh_10vectorizer5cache11query_cacheINtB5_11CachedEntryNtNtCs3j9EsvJpHFf_10serde_json5value5ValueE10is_expiredB9_
FN:81,_RNvMs1_NtNtCs4Tkd3OJeaSh_10vectorizer5cache11query_cacheINtB5_11CachedEntryNtNtCs3j9EsvJpHFf_10serde_json5value5ValueE3newB9_
FN:149,_RNvMs2_NtNtCs4Tkd3OJeaSh_10vectorizer5cache11query_cacheINtB5_10QueryCacheINtNtCs2jSHSziefvq_5alloc3vec3VecNtNtB1f_6string6StringEE21invalidate_collectionB9_
FN:119,_RNvMs2_NtNtCs4Tkd3OJeaSh_10vectorizer5cache11query_cacheINtB5_10QueryCacheINtNtCs2jSHSziefvq_5alloc3vec3VecNtNtB1f_6string6StringEE3getB9_
FN:105,_RNvMs2_NtNtCs4Tkd3OJeaSh_10vectorizer5cache11query_cacheINtB5_10QueryCacheINtNtCs2jSHSziefvq_5alloc3vec3VecNtNtB1f_6string6StringEE3newB9_
FN:163,_RNvMs2_NtNtCs4Tkd3OJeaSh_10vectorizer5cache11query_cacheINtB5_10QueryCacheINtNtCs2jSHSziefvq_5alloc3vec3VecNtNtB1f_6string6StringEE5clearB9_
FN:169,_RNvMs2_NtNtCs4Tkd3OJeaSh_10vectorizer5cache11query_cacheINtB5_10QueryCacheINtNtCs2jSHSziefvq_5alloc3vec3VecNtNtB1f_6string6StringEE5statsB9_
FN:139,_RNvMs2_NtNtCs4Tkd3OJeaSh_10vectorizer5cache11query_cacheINtB5_10QueryCacheINtNtCs2jSHSziefvq_5alloc3vec3VecNtNtB1f_6string6StringEE6insertB9_
FN:149,_RNvMs2_NtNtCs4Tkd3OJeaSh_10vectorizer5cache11query_cacheINtB5_10QueryCacheNtNtCs3j9EsvJpHFf_10serde_json5value5ValueE21invalidate_collectionB9_
FN:119,_RNvMs2_NtNtCs4Tkd3OJeaSh_10vectorizer5cache11query_cacheINtB5_10QueryCacheNtNtCs3j9EsvJpHFf_10serde_json5value5ValueE3getB9_
FN:105,_RNvMs2_NtNtCs4Tkd3OJeaSh_10vectorizer5cache11query_cacheINtB5_10QueryCacheNtNtCs3j9EsvJpHFf_10serde_json5value5ValueE3newB9_
FN:169,_RNvMs2_NtNtCs4Tkd3OJeaSh_10vectorizer5cache11query_cacheINtB5_10QueryCacheNtNtCs3j9EsvJpHFf_10serde_json5value5ValueE5statsB9_
FN:139,_RNvMs2_NtNtCs4Tkd3OJeaSh_10vectorizer5cache11query_cacheINtB5_10QueryCacheNtNtCs3j9EsvJpHFf_10serde_json5value5ValueE6insertB9_
FN:48,_RNvMs_NtNtCs4Tkd3OJeaSh_10vectorizer5cache11query_cacheNtB4_8QueryKey3new
FN:24,_RNvXNtNtCs4Tkd3OJeaSh_10vectorizer5cache11query_cacheNtB2_16QueryCacheConfigNtNtCs9Kp62OsN3pY_4core7default7Default7default
FN:250,_RNvNtNtNtCs4Tkd3OJeaSh_10vectorizer5cache11query_cache5testss_15test_cache_miss
FN:309,_RNvNtNtNtCs4Tkd3OJeaSh_10vectorizer5cache11query_cache5testss_16test_cache_clear
FN:265,_RNvNtNtNtCs4Tkd3OJeaSh_10vectorizer5cache11query_cache5testss_19test_cache_eviction
FN:344,_RNvNtNtNtCs4Tkd3OJeaSh_10vectorizer5cache11query_cache5testss_19test_query_key_hash
FN:292,_RNvNtNtNtCs4Tkd3OJeaSh_10vectorizer5cache11query_cache5testss_23test_cache_invalidation
FN:231,_RNvNtNtNtCs4Tkd3OJeaSh_10vectorizer5cache11query_cache5testss_25test_cache_insert_and_get
FN:326,_RNvNtNtNtCs4Tkd3OJeaSh_10vectorizer5cache11query_cache5testss_25test_cache_ttl_expiration
FN:354,_RNvNtNtNtCs4Tkd3OJeaSh_10vectorizer5cache11query_cache5testss_25test_hit_rate_calculation
FN:219,_RNvNtNtNtCs4Tkd3OJeaSh_10vectorizer5cache11query_cache5testss_25test_query_cache_creation
FN:105,_RNvMs2_NtNtCs1YuMAXYbbDa_10vectorizer5cache11query_cacheINtB5_10QueryCacheNtNtCs3j9EsvJpHFf_10serde_json5value5ValueE3newCs6aCSoG4ikjA_10vectorizer
FNDA:0,_RNvMs2_NtNtCs1YuMAXYbbDa_10vectorizer5cache11query_cacheINtB5_10QueryCachepE11reset_statsB9_
FNDA:0,_RNvMs2_NtNtCs1YuMAXYbbDa_10vectorizer5cache11query_cacheINtB5_10QueryCachepE3newB9_
FNDA:0,_RNvMs2_NtNtCs1YuMAXYbbDa_10vectorizer5cache11query_cacheINtB5_10QueryCachepE5clearB9_
FNDA:0,_RNvMs_NtNtCs1YuMAXYbbDa_10vectorizer5cache11query_cacheNtB4_8QueryKey13threshold_f64
FNDA:7,_RNvMs_NtNtCs1YuMAXYbbDa_10vectorizer5cache11query_cacheNtB4_8QueryKey3new
FNDA:2,_RNvXNtNtCs1YuMAXYbbDa_10vectorizer5cache11query_cacheNtB2_16QueryCacheConfigNtNtCs9Kp62OsN3pY_4core7default7Default7default
FNDA:22,_RINvXs0_NtNtCs1YuMAXYbbDa_10vectorizer5cache11query_cacheNtB6_8QueryKeyNtNtCs9Kp62OsN3pY_4core4hash4Hash4hashNtNtCscXuXXhIhAwy_9hashbrown6hasher13DefaultHasherEBa_
FNDA:2,_RNCNvMs2_NtNtCs1YuMAXYbbDa_10vectorizer5cache11query_cacheINtB7_10QueryCacheNtNtCs3j9EsvJpHFf_10serde_json5value5ValueE21invalidate_collection0Bb_
FNDA:1,_RNCNvMs2_NtNtCs1YuMAXYbbDa_10vectorizer5cache11query_cacheINtB7_10QueryCacheNtNtCs3j9EsvJpHFf_10serde_json5value5ValueE21invalidate_collections_0Bb_
FNDA:0,_RNCNvMs_NtNtCs1YuMAXYbbDa_10vectorizer5cache11query_cacheNtB6_8QueryKey13threshold_f640Ba_
FNDA:1,_RNCNvMs_NtNtCs1YuMAXYbbDa_10vectorizer5cache11query_cacheNtB6_8QueryKey3new0Ba_
FNDA:7,_RNvMs1_NtNtCs1YuMAXYbbDa_10vectorizer5cache11query_cacheINtB5_11CachedEntryNtNtCs3j9EsvJpHFf_10serde_json5value5ValueE10is_expiredB9_
FNDA:7,_RNvMs1_NtNtCs1YuMAXYbbDa_10vectorizer5cache11query_cacheINtB5_11CachedEntryNtNtCs3j9EsvJpHFf_10serde_json5value5ValueE3newB9_
FNDA:1,_RNvMs2_NtNtCs1YuMAXYbbDa_10vectorizer5cache11query_cacheINtB5_10QueryCacheNtNtCs3j9EsvJpHFf_10serde_json5value5ValueE21invalidate_collectionB9_
FNDA:9,_RNvMs2_NtNtCs1YuMAXYbbDa_10vectorizer5cache11query_cacheINtB5_10QueryCacheNtNtCs3j9EsvJpHFf_10serde_json5value5ValueE3getB9_
FNDA:2,_RNvMs2_NtNtCs1YuMAXYbbDa_10vectorizer5cache11query_cacheINtB5_10QueryCacheNtNtCs3j9EsvJpHFf_10serde_json5value5ValueE5statsB9_
FNDA:7,_RNvMs2_NtNtCs1YuMAXYbbDa_10vectorizer5cache11query_cacheINtB5_10QueryCacheNtNtCs3j9EsvJpHFf_10serde_json5value5ValueE6insertB9_
FNDA:4,_RNvMs2_NtNtCs1YuMAXYbbDa_10vectorizer5cache11query_cacheINtB5_10QueryCacheNtNtCs3j9EsvJpHFf_10serde_json5value5ValueE3newCs6A4V2kEPNjh_23integration_query_cache
FNDA:0,_RNCNvMs_NtNtCs4Tkd3OJeaSh_10vectorizer5cache11query_cacheNtB6_8QueryKey13threshold_f640Ba_
FNDA:0,_RNvMs2_NtNtCs4Tkd3OJeaSh_10vectorizer5cache11query_cacheINtB5_10QueryCachepE11reset_statsB9_
FNDA:0,_RNvMs_NtNtCs4Tkd3OJeaSh_10vectorizer5cache11query_cacheNtB4_8QueryKey13threshold_f64
FNDA:28,_RINvXs0_NtNtCs4Tkd3OJeaSh_10vectorizer5cache11query_cacheNtB6_8QueryKeyNtNtCs9Kp62OsN3pY_4core4hash4Hash4hashNtNtCscXuXXhIhAwy_9hashbrown6hasher13DefaultHasherEBa_
FNDA:2,_RNCNvMs2_NtNtCs4Tkd3OJeaSh_10vectorizer5cache11query_cacheINtB7_10QueryCacheINtNtCs2jSHSziefvq_5alloc3vec3VecNtNtB1h_6string6StringEE21invalidate_collection0Bb_
FNDA:1,_RNCNvMs2_NtNtCs4Tkd3OJeaSh_10vectorizer5cache11query_cacheINtB7_10QueryCacheINtNtCs2jSHSziefvq_5alloc3vec3VecNtNtB1h_6string6StringEE21invalidate_collections_0Bb_
FNDA:0,_RNCNvMs2_NtNtCs4Tkd3OJeaSh_10vectorizer5cache11query_cacheINtB7_10QueryCacheNtNtCs3j9EsvJpHFf_10serde_json5value5ValueE21invalidate_collection0Bb_
FNDA:0,_RNCNvMs2_NtNtCs4Tkd3OJeaSh_10vectorizer5cache11query_cacheINtB7_10QueryCacheNtNtCs3j9EsvJpHFf_10serde_json5value5ValueE21invalidate_collections_0Bb_
FNDA:4,_RNCNvMs_NtNtCs4Tkd3OJeaSh_10vectorizer5cache11query_cacheNtB6_8QueryKey3new0Ba_
FNDA:6,_RNvMs1_NtNtCs4Tkd3OJeaSh_10vectorizer5cache11query_cacheINtB5_11CachedEntryINtNtCs2jSHSziefvq_5alloc3vec3VecNtNtB1g_6string6StringEE10is_expiredB9_
FNDA:10,_RNvMs1_NtNtCs4Tkd3OJeaSh_10vectorizer5cache11query_cacheINtB5_11CachedEntryINtNtCs2jSHSziefvq_5alloc3vec3VecNtNtB1g_6string6StringEE3newB9_
FNDA:0,_RNvMs1_NtNtCs4Tkd3OJeaSh_10vectorizer5cache11query_cacheINtB5_11CachedEntryNtNtCs3j9EsvJpHFf_10serde_json5value5ValueE10is_expiredB9_
FNDA:0,_RNvMs1_NtNtCs4Tkd3OJeaSh_10vectorizer5cache11query_cacheINtB5_11CachedEntryNtNtCs3j9EsvJpHFf_10serde_json5value5ValueE3newB9_
FNDA:1,_RNvMs2_NtNtCs4Tkd3OJeaSh_10vectorizer5cache11query_cacheINtB5_10QueryCacheINtNtCs2jSHSziefvq_5alloc3vec3VecNtNtB1f_6string6StringEE21invalidate_collectionB9_
FNDA:10,_RNvMs2_NtNtCs4Tkd3OJeaSh_10vectorizer5cache11query_cacheINtB5_10QueryCacheINtNtCs2jSHSziefvq_5alloc3vec3VecNtNtB1f_6string6StringEE3getB9_
FNDA:8,_RNvMs2_NtNtCs4Tkd3OJeaSh_10vectorizer5cache11query_cacheINtB5_10QueryCacheINtNtCs2jSHSziefvq_5alloc3vec3VecNtNtB1f_6string6StringEE3newB9_
FNDA:1,_RNvMs2_NtNtCs4Tkd3OJeaSh_10vectorizer5cache11query_cacheINtB5_10QueryCacheINtNtCs2jSHSziefvq_5alloc3vec3VecNtNtB1f_6string6StringEE5clearB9_
FNDA:6,_RNvMs2_NtNtCs4Tkd3OJeaSh_10vectorizer5cache11query_cacheINtB5_10QueryCacheINtNtCs2jSHSziefvq_5alloc3vec3VecNtNtB1f_6string6StringEE5statsB9_
FNDA:10,_RNvMs2_NtNtCs4Tkd3OJeaSh_10vectorizer5cache11query_cacheINtB5_10QueryCacheINtNtCs2jSHSziefvq_5alloc3vec3VecNtNtB1f_6string6StringEE6insertB9_
FNDA:0,_RNvMs2_NtNtCs4Tkd3OJeaSh_10vectorizer5cache11query_cacheINtB5_10QueryCacheNtNtCs3j9EsvJpHFf_10serde_json5value5ValueE21invalidate_collectionB9_
FNDA:0,_RNvMs2_NtNtCs4Tkd3OJeaSh_10vectorizer5cache11query_cacheINtB5_10QueryCacheNtNtCs3j9EsvJpHFf_10serde_json5value5ValueE3getB9_
FNDA:3,_RNvMs2_NtNtCs4Tkd3OJeaSh_10vectorizer5cache11query_cacheINtB5_10QueryCacheNtNtCs3j9EsvJpHFf_10serde_json5value5ValueE3newB9_
FNDA:0,_RNvMs2_NtNtCs4Tkd3OJeaSh_10vectorizer5cache11query_cacheINtB5_10QueryCacheNtNtCs3j9EsvJpHFf_10serde_json5value5ValueE5statsB9_
FNDA:0,_RNvMs2_NtNtCs4Tkd3OJeaSh_10vectorizer5cache11query_cacheINtB5_10QueryCacheNtNtCs3j9EsvJpHFf_10serde_json5value5ValueE6insertB9_
FNDA:15,_RNvMs_NtNtCs4Tkd3OJeaSh_10vectorizer5cache11query_cacheNtB4_8QueryKey3new
FNDA:9,_RNvXNtNtCs4Tkd3OJeaSh_10vectorizer5cache11query_cacheNtB2_16QueryCacheConfigNtNtCs9Kp62OsN3pY_4core7default7Default7default
FNDA:1,_RNvNtNtNtCs4Tkd3OJeaSh_10vectorizer5cache11query_cache5testss_15test_cache_miss
FNDA:1,_RNvNtNtNtCs4Tkd3OJeaSh_10vectorizer5cache11query_cache5testss_16test_cache_clear
FNDA:1,_RNvNtNtNtCs4Tkd3OJeaSh_10vectorizer5cache11query_cache5testss_19test_cache_eviction
FNDA:1,_RNvNtNtNtCs4Tkd3OJeaSh_10vectorizer5cache11query_cache5testss_19test_query_key_hash
FNDA:1,_RNvNtNtNtCs4Tkd3OJeaSh_10vectorizer5cache11query_cache5testss_23test_cache_invalidation
FNDA:1,_RNvNtNtNtCs4Tkd3OJeaSh_10vectorizer5cache11query_cache5testss_25test_cache_insert_and_get
FNDA:1,_RNvNtNtNtCs4Tkd3OJeaSh_10vectorizer5cache11query_cache5testss_25test_cache_ttl_expiration
FNDA:1,_RNvNtNtNtCs4Tkd3OJeaSh_10vectorizer5cache11query_cache5testss_25test_hit_rate_calculation
FNDA:1,_RNvNtNtNtCs4Tkd3OJeaSh_10vectorizer5cache11query_cache5testss_25test_query_cache_creation
FNDA:0,_RNvMs2_NtNtCs1YuMAXYbbDa_10vectorizer5cache11query_cacheINtB5_10QueryCacheNtNtCs3j9EsvJpHFf_10serde_json5value5ValueE3newCs6aCSoG4ikjA_10vectorizer
FNF:26
FNH:23
DA:24,11
DA:25,11
DA:26,11
DA:27,11
DA:28,11
DA:29,11
DA:30,11
DA:48,22
DA:50,22
DA:51,22
DA:52,22
DA:53,22
DA:55,22
DA:58,0
DA:59,0
DA:60,0
DA:64,50
DA:65,50
DA:66,50
DA:67,50
DA:68,50
DA:69,50
DA:81,17
DA:82,17
DA:83,17
DA:84,17
DA:85,17
DA:86,17
DA:87,17
DA:89,13
DA:90,13
DA:91,13
DA:105,15
DA:106,15
DA:107,15
DA:109,15
DA:110,15
DA:111,15
DA:112,15
DA:113,15
DA:114,15
DA:115,15
DA:116,15
DA:119,19
DA:120,19
DA:122,19
DA:123,13
DA:125,2
DA:126,2
DA:127,2
DA:129,11
DA:130,11
DA:133,6
DA:134,6
DA:136,19
DA:139,17
DA:140,17
DA:141,17
DA:143,17
DA:144,2
DA:145,15
DA:146,17
DA:149,2
DA:150,2
DA:151,2
DA:152,2
DA:153,4
DA:154,2
DA:155,2
DA:157,4
DA:158,2
DA:159,2
DA:160,2
DA:163,1
DA:164,1
DA:165,1
DA:166,1
DA:169,8
DA:170,8
DA:171,8
DA:172,8
DA:173,8
DA:176,8
DA:177,8
DA:178,8
DA:179,8
DA:180,8
DA:181,8
DA:182,4
DA:184,4
DA:187,8
DA:190,0
DA:191,0
DA:192,0
DA:193,0
DA:194,0
DA:219,1
DA:220,1
DA:221,1
DA:222,1
DA:224,1
DA:225,1
DA:226,1
DA:227,1
DA:228,1
DA:231,1
DA:232,1
DA:233,1
DA:235,1
DA:236,1
DA:238,1
DA:240,1
DA:241,1
DA:242,1
DA:244,1
DA:245,1
DA:246,1
DA:247,1
DA:250,1
DA:251,1
DA:252,1
DA:254,1
DA:256,1
DA:257,1
DA:259,1
DA:260,1
DA:261,1
DA:262,1
DA:265,1
DA:266,1
DA:267,1
DA:268,1
DA:269,1
DA:270,1
DA:271,1
DA:273,1
DA:274,1
DA:275,1
DA:277,1
DA:278,1
DA:279,1
DA:281,1
DA:282,1
DA:283,1
DA:286,1
DA:287,1
DA:288,1
DA:289,1
DA:292,1
DA:293,1
DA:294,1
DA:296,1
DA:297,1
DA:299,1
DA:300,1
DA:302,1
DA:304,1
DA:305,1
DA:306,1
DA:309,1
DA:310,1
DA:311,1
DA:313,1
DA:314,1
DA:316,1
DA:317,1
DA:319,1
DA:321,1
DA:322,1
DA:323,1
DA:326,1
DA:327,1
DA:328,1
DA:329,1
DA:330,1
DA:331,1
DA:332,1
DA:334,1
DA:335,1
DA:337,1
DA:340,1
DA:341,1
DA:344,1
DA:345,1
DA:346,1
DA:347,1
DA:349,1
DA:350,1
DA:351,1
DA:354,1
DA:355,1
DA:356,1
DA:358,1
DA:359,1
DA:362,1
DA:364,1
DA:365,1
DA:366,1
DA:367,1
DA:368,1
DA:369,1
DA:371,1
DA:372,1
DA:373,1
BRF:0
BRH:0
LF:208
LH:199
end_of_record
SF:/mnt/f/Node/hivellm/vectorizer/src/cli/commands.rs
FN:95,_RNCNCNvNtNtCs1YuMAXYbbDa_10vectorizer3cli8commands19handle_user_command00B9_
FN:154,_RNCNCNvNtNtCs1YuMAXYbbDa_10vectorizer3cli8commands19handle_user_command0s0_0B9_
FN:155,_RNCNCNvNtNtCs1YuMAXYbbDa_10vectorizer3cli8commands19handle_user_command0s1_0B9_
FN:96,_RNCNCNvNtNtCs1YuMAXYbbDa_10vectorizer3cli8commands19handle_user_command0s_0B9_
FN:550,_RNCNCNvNtNtCs1YuMAXYbbDa_10vectorizer3cli8commands21handle_config_command00B9_
FN:562,_RNCNCNvNtNtCs1YuMAXYbbDa_10vectorizer3cli8commands21handle_config_command0s_0B9_
FN:595,_RNCNCNvNtNtCs1YuMAXYbbDa_10vectorizer3cli8commands21handle_status_command0s8_0B9_
FN:595,_RNCNCNvNtNtCs1YuMAXYbbDa_10vectorizer3cli8commands21handle_status_command0s9_0B9_
FN:599,_RNCNCNvNtNtCs1YuMAXYbbDa_10vectorizer3cli8commands21handle_status_command0sb_0B9_
FN:599,_RNCNCNvNtNtCs1YuMAXYbbDa_10vectorizer3cli8commands21handle_status_command0sc_0B9_
FN:201,_RNCNCNvNtNtCs1YuMAXYbbDa_10vectorizer3cli8commands22handle_api_key_command00B9_
FN:202,_RNCNCNvNtNtCs1YuMAXYbbDa_10vectorizer3cli8commands22handle_api_key_command0s_0B9_
FN:734,_RNCNCNvNtNtCs1YuMAXYbbDa_10vectorizer3cli8commands23handle_snapshot_command00B9_
FN:447,_RNCNvNtNtCs1YuMAXYbbDa_10vectorizer3cli8commands17handle_db_command0B7_
FN:81,_RNCNvNtNtCs1YuMAXYbbDa_10vectorizer3cli8commands19handle_user_command0B7_
FN:486,_RNCNvNtNtCs1YuMAXYbbDa_10vectorizer3cli8commands21handle_config_command0B7_
FN:20,_RNCNvNtNtCs1YuMAXYbbDa_10vectorizer3cli8commands21handle_server_command0B7_
FN:573,_RNCNvNtNtCs1YuMAXYbbDa_10vectorizer3cli8commands21handle_status_command0B7_
FN:186,_RNCNvNtNtCs1YuMAXYbbDa_10vectorizer3cli8commands22handle_api_key_command0B7_
FN:754,_RNCNvNtNtCs1YuMAXYbbDa_10vectorizer3cli8commands22handle_storage_command0B7_
FN:644,_RNCNvNtNtCs1YuMAXYbbDa_10vectorizer3cli8commands23handle_snapshot_command0B7_
FN:334,_RNCNvNtNtCs1YuMAXYbbDa_10vectorizer3cli8commands25handle_collection_command0B7_
FN:447,_RNvNtNtCs1YuMAXYbbDa_10vectorizer3cli8commands17handle_db_command
FN:81,_RNvNtNtCs1YuMAXYbbDa_10vectorizer3cli8commands19handle_user_command
FN:486,_RNvNtNtCs1YuMAXYbbDa_10vectorizer3cli8commands21handle_config_command
FN:20,_RNvNtNtCs1YuMAXYbbDa_10vectorizer3cli8commands21handle_server_command
FN:573,_RNvNtNtCs1YuMAXYbbDa_10vectorizer3cli8commands21handle_status_command
FN:186,_RNvNtNtCs1YuMAXYbbDa_10vectorizer3cli8commands22handle_api_key_command
FN:751,_RNvNtNtCs1YuMAXYbbDa_10vectorizer3cli8commands22handle_storage_command
FN:641,_RNvNtNtCs1YuMAXYbbDa_10vectorizer3cli8commands23handle_snapshot_command
FN:331,_RNvNtNtCs1YuMAXYbbDa_10vectorizer3cli8commands25handle_collection_command
FN:447,_RNvNtNtCs4Tkd3OJeaSh_10vectorizer3cli8commands17handle_db_command
FN:81,_RNvNtNtCs4Tkd3OJeaSh_10vectorizer3cli8commands19handle_user_command
FN:486,_RNvNtNtCs4Tkd3OJeaSh_10vectorizer3cli8commands21handle_config_command
FN:20,_RNvNtNtCs4Tkd3OJeaSh_10vectorizer3cli8commands21handle_server_command
FN:573,_RNvNtNtCs4Tkd3OJeaSh_10vectorizer3cli8commands21handle_status_command
FN:186,_RNvNtNtCs4Tkd3OJeaSh_10vectorizer3cli8commands22handle_api_key_command
FN:751,_RNvNtNtCs4Tkd3OJeaSh_10vectorizer3cli8commands22handle_storage_command
FN:641,_RNvNtNtCs4Tkd3OJeaSh_10vectorizer3cli8commands23handle_snapshot_command
FN:331,_RNvNtNtCs4Tkd3OJeaSh_10vectorizer3cli8commands25handle_collection_command
FN:95,_RNCNCNvNtNtCs4Tkd3OJeaSh_10vectorizer3cli8commands19handle_user_command00B9_
FN:154,_RNCNCNvNtNtCs4Tkd3OJeaSh_10vectorizer3cli8commands19handle_user_command0s0_0B9_
FN:155,_RNCNCNvNtNtCs4Tkd3OJeaSh_10vectorizer3cli8commands19handle_user_command0s1_0B9_
FN:96,_RNCNCNvNtNtCs4Tkd3OJeaSh_10vectorizer3cli8commands19handle_user_command0s_0B9_
FN:550,_RNCNCNvNtNtCs4Tkd3OJeaSh_10vectorizer3cli8commands21handle_config_command00B9_
FN:562,_RNCNCNvNtNtCs4Tkd3OJeaSh_10vectorizer3cli8commands21handle_config_command0s_0B9_
FN:595,_RNCNCNvNtNtCs4Tkd3OJeaSh_10vectorizer3cli8commands21handle_status_command0s8_0B9_
FN:595,_RNCNCNvNtNtCs4Tkd3OJeaSh_10vectorizer3cli8commands21handle_status_command0s9_0B9_
FN:599,_RNCNCNvNtNtCs4Tkd3OJeaSh_10vectorizer3cli8commands21handle_status_command0sb_0B9_
FN:599,_RNCNCNvNtNtCs4Tkd3OJeaSh_10vectorizer3cli8commands21handle_status_command0sc_0B9_
FN:201,_RNCNCNvNtNtCs4Tkd3OJeaSh_10vectorizer3cli8commands22handle_api_key_command00B9_
FN:202,_RNCNCNvNtNtCs4Tkd3OJeaSh_10vectorizer3cli8commands22handle_api_key_command0s_0B9_
FN:734,_RNCNCNvNtNtCs4Tkd3OJeaSh_10vectorizer3cli8commands23handle_snapshot_command00B9_
FN:447,_RNCNvNtNtCs4Tkd3OJeaSh_10vectorizer3cli8commands17handle_db_command0B7_
FN:81,_RNCNvNtNtCs4Tkd3OJeaSh_10vectorizer3cli8commands19handle_user_command0B7_
FN:486,_RNCNvNtNtCs4Tkd3OJeaSh_10vectorizer3cli8commands21handle_config_command0B7_
FN:20,_RNCNvNtNtCs4Tkd3OJeaSh_10vectorizer3cli8commands21handle_server_command0B7_
FN:573,_RNCNvNtNtCs4Tkd3OJeaSh_10vectorizer3cli8commands21handle_status_command0B7_
FN:186,_RNCNvNtNtCs4Tkd3OJeaSh_10vectorizer3cli8commands22handle_api_key_command0B7_
FN:754,_RNCNvNtNtCs4Tkd3OJeaSh_10vectorizer3cli8commands22handle_storage_command0B7_
FN:644,_RNCNvNtNtCs4Tkd3OJeaSh_10vectorizer3cli8commands23handle_snapshot_command0B7_
FN:334,_RNCNvNtNtCs4Tkd3OJeaSh_10vectorizer3cli8commands25handle_collection_command0B7_
FNDA:0,_RNCNCNvNtNtCs1YuMAXYbbDa_10vectorizer3cli8commands19handle_user_command00B9_
FNDA:0,_RNCNCNvNtNtCs1YuMAXYbbDa_10vectorizer3cli8commands19handle_user_command0s0_0B9_
FNDA:0,_RNCNCNvNtNtCs1YuMAXYbbDa_10vectorizer3cli8commands19handle_user_command0s1_0B9_
FNDA:0,_RNCNCNvNtNtCs1YuMAXYbbDa_10vectorizer3cli8commands19handle_user_command0s_0B9_
FNDA:0,_RNCNCNvNtNtCs1YuMAXYbbDa_10vectorizer3cli8commands21handle_config_command00B9_
FNDA:0,_RNCNCNvNtNtCs1YuMAXYbbDa_10vectorizer3cli8commands21handle_config_command0s_0B9_
FNDA:0,_RNCNCNvNtNtCs1YuMAXYbbDa_10vectorizer3cli8commands21handle_status_command0s8_0B9_
FNDA:0,_RNCNCNvNtNtCs1YuMAXYbbDa_10vectorizer3cli8commands21handle_status_command0s9_0B9_
FNDA:0,_RNCNCNvNtNtCs1YuMAXYbbDa_10vectorizer3cli8commands21handle_status_command0sb_0B9_
FNDA:0,_RNCNCNvNtNtCs1YuMAXYbbDa_10vectorizer3cli8commands21handle_status_command0sc_0B9_
FNDA:0,_RNCNCNvNtNtCs1YuMAXYbbDa_10vectorizer3cli8commands22handle_api_key_command00B9_
FNDA:0,_RNCNCNvNtNtCs1YuMAXYbbDa_10vectorizer3cli8commands22handle_api_key_command0s_0B9_
FNDA:0,_RNCNCNvNtNtCs1YuMAXYbbDa_10vectorizer3cli8commands23handle_snapshot_command00B9_
FNDA:0,_RNCNvNtNtCs1YuMAXYbbDa_10vectorizer3cli8commands17handle_db_command0B7_
FNDA:0,_RNCNvNtNtCs1YuMAXYbbDa_10vectorizer3cli8commands19handle_user_command0B7_
FNDA:0,_RNCNvNtNtCs1YuMAXYbbDa_10vectorizer3cli8commands21handle_config_command0B7_
FNDA:0,_RNCNvNtNtCs1YuMAXYbbDa_10vectorizer3cli8commands21handle_server_command0B7_
FNDA:0,_RNCNvNtNtCs1YuMAXYbbDa_10vectorizer3cli8commands21handle_status_command0B7_
FNDA:0,_RNCNvNtNtCs1YuMAXYbbDa_10vectorizer3cli8commands22handle_api_key_command0B7_
FNDA:0,_RNCNvNtNtCs1YuMAXYbbDa_10vectorizer3cli8commands22handle_storage_command0B7_
FNDA:0,_RNCNvNtNtCs1YuMAXYbbDa_10vectorizer3cli8commands23handle_snapshot_command0B7_
FNDA:0,_RNCNvNtNtCs1YuMAXYbbDa_10vectorizer3cli8commands25handle_collection_command0B7_
FNDA:0,_RNvNtNtCs1YuMAXYbbDa_10vectorizer3cli8commands17handle_db_command
FNDA:0,_RNvNtNtCs1YuMAXYbbDa_10vectorizer3cli8commands19handle_user_command
FNDA:0,_RNvNtNtCs1YuMAXYbbDa_10vectorizer3cli8commands21handle_config_command
FNDA:0,_RNvNtNtCs1YuMAXYbbDa_10vectorizer3cli8commands21handle_server_command
FNDA:0,_RNvNtNtCs1YuMAXYbbDa_10vectorizer3cli8commands21handle_status_command
FNDA:0,_RNvNtNtCs1YuMAXYbbDa_10vectorizer3cli8commands22handle_api_key_command
FNDA:0,_RNvNtNtCs1YuMAXYbbDa_10vectorizer3cli8commands22handle_storage_command
FNDA:0,_RNvNtNtCs1YuMAXYbbDa_10vectorizer3cli8commands23handle_snapshot_command
FNDA:0,_RNvNtNtCs1YuMAXYbbDa_10vectorizer3cli8commands25handle_collection_command
FNDA:0,_RNvNtNtCs4Tkd3OJeaSh_10vectorizer3cli8commands17handle_db_command
FNDA:0,_RNvNtNtCs4Tkd3OJeaSh_10vectorizer3cli8commands19handle_user_command
FNDA:0,_RNvNtNtCs4Tkd3OJeaSh_10vectorizer3cli8commands21handle_config_command
FNDA:0,_RNvNtNtCs4Tkd3OJeaSh_10vectorizer3cli8commands21handle_server_command
FNDA:0,_RNvNtNtCs4Tkd3OJeaSh_10vectorizer3cli8commands21handle_status_command
FNDA:0,_RNvNtNtCs4Tkd3OJeaSh_10vectorizer3cli8commands22handle_api_key_command
FNDA:0,_RNvNtNtCs4Tkd3OJeaSh_10vectorizer3cli8commands22handle_storage_command
FNDA:0,_RNvNtNtCs4Tkd3OJeaSh_10vectorizer3cli8commands23handle_snapshot_command
FNDA:0,_RNvNtNtCs4Tkd3OJeaSh_10vectorizer3cli8commands25handle_collection_command
FNDA:0,_RNCNCNvNtNtCs4Tkd3OJeaSh_10vectorizer3cli8commands19handle_user_command00B9_
FNDA:0,_RNCNCNvNtNtCs4Tkd3OJeaSh_10vectorizer3cli8commands19handle_user_command0s0_0B9_
FNDA:0,_RNCNCNvNtNtCs4Tkd3OJeaSh_10vectorizer3cli8commands19handle_user_command0s1_0B9_
FNDA:0,_RNCNCNvNtNtCs4Tkd3OJeaSh_10vectorizer3cli8commands19handle_user_command0s_0B9_
FNDA:0,_RNCNCNvNtNtCs4Tkd3OJeaSh_10vectorizer3cli8commands21handle_config_command00B9_
FNDA:0,_RNCNCNvNtNtCs4Tkd3OJeaSh_10vectorizer3cli8commands21handle_config_command0s_0B9_
FNDA:0,_RNCNCNvNtNtCs4Tkd3OJeaSh_10vectorizer3cli8commands21handle_status_command0s8_0B9_
FNDA:0,_RNCNCNvNtNtCs4Tkd3OJeaSh_10vectorizer3cli8commands21handle_status_command0s9_0B9_
FNDA:0,_RNCNCNvNtNtCs4Tkd3OJeaSh_10vectorizer3cli8commands21handle_status_command0sb_0B9_
FNDA:0,_RNCNCNvNtNtCs4Tkd3OJeaSh_10vectorizer3cli8commands21handle_status_command0sc_0B9_
FNDA:0,_RNCNCNvNtNtCs4Tkd3OJeaSh_10vectorizer3cli8commands22handle_api_key_command00B9_
FNDA:0,_RNCNCNvNtNtCs4Tkd3OJeaSh_10vectorizer3cli8commands22handle_api_key_command0s_0B9_
FNDA:0,_RNCNCNvNtNtCs4Tkd3OJeaSh_10vectorizer3cli8commands23handle_snapshot_command00B9_
FNDA:0,_RNCNvNtNtCs4Tkd3OJeaSh_10vectorizer3cli8commands17handle_db_command0B7_
FNDA:0,_RNCNvNtNtCs4Tkd3OJeaSh_10vectorizer3cli8commands19handle_user_command0B7_
FNDA:0,_RNCNvNtNtCs4Tkd3OJeaSh_10vectorizer3cli8commands21handle_config_command0B7_
FNDA:0,_RNCNvNtNtCs4Tkd3OJeaSh_10vectorizer3cli8commands21handle_server_command0B7_
FNDA:0,_RNCNvNtNtCs4Tkd3OJeaSh_10vectorizer3cli8commands21handle_status_command0B7_
FNDA:0,_RNCNvNtNtCs4Tkd3OJeaSh_10vectorizer3cli8commands22handle_api_key_command0B7_
FNDA:0,_RNCNvNtNtCs4Tkd3OJeaSh_10vectorizer3cli8commands22handle_storage_command0B7_
FNDA:0,_RNCNvNtNtCs4Tkd3OJeaSh_10vectorizer3cli8commands23handle_snapshot_command0B7_
FNDA:0,_RNCNvNtNtCs4Tkd3OJeaSh_10vectorizer3cli8commands25handle_collection_command0B7_
FNF:29
FNH:0
DA:20,0
DA:21,0
DA:23,0
DA:24,0
DA:25,0
DA:26,0
DA:28,0
DA:31,0
DA:32,0
DA:33,0
DA:35,0
DA:39,0
DA:42,0
DA:43,0
DA:44,0
DA:45,0
DA:46,0
DA:51,0
DA:54,0
DA:55,0
DA:59,0
DA:60,0
DA:63,0
DA:64,0
DA:67,0
DA:70,0
DA:73,0
DA:75,0
DA:78,0
DA:81,0
DA:82,0
DA:84,0
DA:86,0
DA:87,0
DA:88,0
DA:90,0
DA:93,0
DA:94,0
DA:95,0
DA:96,0
DA:97,0
DA:98,0
DA:99,0
DA:100,0
DA:102,0
DA:103,0
DA:105,0
DA:106,0
DA:108,0
DA:109,0
DA:110,0
DA:111,0
DA:112,0
DA:115,0
DA:117,0
DA:118,0
DA:119,0
DA:120,0
DA:121,0
DA:122,0
DA:124,0
DA:127,0
DA:128,0
DA:130,0
DA:131,0
DA:133,0
DA:136,0
DA:139,0
DA:140,0
DA:143,0
DA:145,0
DA:148,0
DA:149,0
DA:152,0
DA:153,0
DA:154,0
DA:155,0
DA:156,0
DA:157,0
DA:158,0
DA:159,0
DA:161,0
DA:162,0
DA:164,0
DA:165,0
DA:167,0
DA:168,0
DA:169,0
DA:170,0
DA:171,0
DA:174,0
DA:176,0
DA:177,0
DA:178,0
DA:180,0
DA:183,0
DA:186,0
DA:187,0
DA:189,0
DA:191,0
DA:192,0
DA:193,0
DA:194,0
DA:196,0
DA:199,0
DA:200,0
DA:201,0
DA:202,0
DA:203,0
DA:204,0
DA:205,0
DA:206,0
DA:207,0
DA:208,0
DA:209,0
DA:210,0
DA:211,0
DA:213,0
DA:214,0
DA:216,0
DA:217,0
DA:219,0
DA:220,0
DA:221,0
DA:222,0
DA:223,0
DA:226,0
DA:227,0
DA:229,0
DA:233,0
DA:234,0
DA:235,0
DA:237,0
DA:238,0
DA:239,0
DA:240,0
DA:241,0
DA:242,0
DA:243,0
DA:244,0
DA:245,0
DA:248,0
DA:250,0
DA:252,0
DA:255,0
DA:256,0
DA:257,0
DA:258,0
DA:260,0
DA:261,0
DA:262,0
DA:263,0
DA:264,0
DA:265,0
DA:266,0
DA:267,0
DA:268,0
DA:270,0
DA:271,0
DA:272,0
DA:273,0
DA:275,0
DA:276,0
DA:277,0
DA:279,0
DA:280,0
DA:283,0
DA:288,0
DA:290,0
DA:293,0
DA:296,0
DA:297,0
DA:299,0
DA:300,0
DA:302,0
DA:305,0
DA:306,0
DA:308,0
DA:309,0
DA:310,0
DA:311,0
DA:312,0
DA:313,0
DA:314,0
DA:315,0
DA:316,0
DA:319,0
DA:320,0
DA:321,0
DA:325,0
DA:328,0
DA:331,0
DA:332,0
DA:333,0
DA:334,0
DA:335,0
DA:337,0
DA:339,0
DA:340,0
DA:341,0
DA:343,0
DA:346,0
DA:347,0
DA:348,0
DA:349,0
DA:351,0
DA:352,0
DA:353,0
DA:357,0
DA:358,0
DA:359,0
DA:360,0
DA:361,0
DA:362,0
DA:363,0
DA:364,0
DA:366,0
DA:367,0
DA:368,0
DA:369,0
DA:371,0
DA:374,0
DA:375,0
DA:377,0
DA:379,0
DA:380,0
DA:382,0
DA:383,0
DA:384,0
DA:385,0
DA:386,0
DA:387,0
DA:388,0
DA:389,0
DA:390,0
DA:391,0
DA:393,0
DA:398,0
DA:401,0
DA:402,0
DA:404,0
DA:406,0
DA:407,0
DA:408,0
DA:410,0
DA:411,0
DA:413,0
DA:416,0
DA:417,0
DA:419,0
DA:421,0
DA:422,0
DA:423,0
DA:424,0
DA:425,0
DA:426,0
DA:427,0
DA:428,0
DA:431,0
DA:432,0
DA:433,0
DA:434,0
DA:435,0
DA:437,0
DA:441,0
DA:444,0
DA:447,0
DA:448,0
DA:450,0
DA:451,0
DA:453,0
DA:455,0
DA:456,0
DA:457,0
DA:460,0
DA:462,0
DA:465,0
DA:466,0
DA:468,0
DA:469,0
DA:470,0
DA:473,0
DA:475,0
DA:479,0
DA:480,0
DA:481,0
DA:483,0
DA:486,0
DA:487,0
DA:488,0
DA:489,0
DA:491,0
DA:492,0
DA:493,0
DA:494,0
DA:495,0
DA:497,0
DA:498,0
DA:499,0
DA:500,0
DA:501,0
DA:504,0
DA:505,0
DA:508,0
DA:510,0
DA:511,0
DA:512,0
DA:514,0
DA:517,0
DA:518,0
DA:519,0
DA:520,0
DA:523,0
DA:524,0
DA:528,0
DA:529,0
DA:530,0
DA:531,0
DA:532,0
DA:533,0
DA:535,0
DA:538,0
DA:539,0
DA:541,0
DA:542,0
DA:543,0
DA:544,0
DA:545,0
DA:546,0
DA:548,0
DA:549,0
DA:550,0
DA:552,0
DA:554,0
DA:557,0
DA:558,0
DA:560,0
DA:561,0
DA:562,0
DA:564,0
DA:565,0
DA:567,0
DA:570,0
DA:573,0
DA:574,0
DA:575,0
DA:577,0
DA:578,0
DA:579,0
DA:580,0
DA:581,0
DA:582,0
DA:583,0
DA:584,0
DA:586,0
DA:590,0
DA:591,0
DA:592,0
DA:593,0
DA:594,0
DA:595,0
DA:597,0
DA:598,0
DA:599,0
DA:602,0
DA:603,0
DA:604,0
DA:605,0
DA:609,0
DA:610,0
DA:611,0
DA:612,0
DA:615,0
DA:618,0
DA:619,0
DA:620,0
DA:621,0
DA:623,0
DA:624,0
DA:625,0
DA:626,0
DA:627,0
DA:628,0
DA:631,0
DA:633,0
DA:635,0
DA:637,0
DA:638,0
DA:641,0
DA:642,0
DA:643,0
DA:644,0
DA:647,0
DA:648,0
DA:649,0
DA:650,0
DA:652,0
DA:654,0
DA:655,0
DA:656,0
DA:658,0
DA:660,0
DA:661,0
DA:662,0
DA:663,0
DA:665,0
DA:666,0
DA:667,0
DA:668,0
DA:669,0
DA:670,0
DA:672,0
DA:673,0
DA:674,0
DA:675,0
DA:676,0
DA:679,0
DA:682,0
DA:683,0
DA:685,0
DA:687,0
DA:688,0
DA:689,0
DA:691,0
DA:692,0
DA:693,0
DA:695,0
DA:698,0
DA:699,0
DA:701,0
DA:702,0
DA:703,0
DA:704,0
DA:706,0
DA:707,0
DA:709,0
DA:712,0
DA:713,0
DA:715,0
DA:716,0
DA:718,0
DA:721,0
DA:724,0
DA:725,0
DA:727,0
DA:728,0
DA:730,0
DA:731,0
DA:733,0
DA:734,0
DA:736,0
DA:737,0
DA:738,0
DA:741,0
DA:742,0
DA:745,0
DA:748,0
DA:751,0
DA:752,0
DA:753,0
DA:754,0
DA:759,0
DA:761,0
DA:762,0
DA:763,0
DA:765,0
DA:766,0
DA:768,0
DA:769,0
DA:770,0
DA:771,0
DA:773,0
DA:774,0
DA:775,0
DA:776,0
DA:777,0
DA:778,0
DA:780,0
DA:781,0
DA:782,0
DA:784,0
DA:785,0
DA:786,0
DA:789,0
DA:790,0
DA:791,0
DA:792,0
DA:793,0
DA:794,0
DA:795,0
DA:796,0
DA:798,0
DA:800,0
DA:801,0
DA:802,0
DA:803,0
DA:804,0
DA:806,0
DA:807,0
DA:811,0
DA:812,0
DA:816,0
DA:819,0
DA:820,0
DA:822,0
DA:824,0
DA:825,0
DA:826,0
DA:827,0
DA:829,0
DA:831,0
DA:832,0
DA:833,0
DA:835,0
DA:836,0
DA:837,0
DA:839,0
DA:842,0
DA:843,0
DA:845,0
DA:847,0
DA:849,0
DA:850,0
DA:852,0
DA:853,0
DA:855,0
DA:857,0
DA:858,0
DA:860,0
DA:861,0
DA:862,0
DA:866,0
DA:870,0
DA:873,0
DA:874,0
DA:876,0
DA:878,0
DA:879,0
DA:880,0
DA:881,0
DA:882,0
DA:884,0
DA:886,0
DA:887,0
DA:888,0
DA:890,0
DA:893,0
BRF:0
BRH:0
LF:567
LH:0
end_of_record
SF:/mnt/f/Node/hivellm/vectorizer/src/cli/config.rs
FN:131,_RNvMs_NtNtCs1YuMAXYbbDa_10vectorizer3cli6configNtB4_13ConfigManager12save_to_file
FN:113,_RNvMs_NtNtCs1YuMAXYbbDa_10vectorizer3cli6configNtB4_13ConfigManager14load_from_file
FN:153,_RNvMs_NtNtCs1YuMAXYbbDa_10vectorizer3cli6configNtB4_13ConfigManager15validate_config
FN:220,_RNvMs_NtNtCs1YuMAXYbbDa_10vectorizer3cli6configNtB4_13ConfigManager21convert_to_cli_config
FN:142,_RNvMs_NtNtCs1YuMAXYbbDa_10vectorizer3cli6configNtB4_13ConfigManager21generate_default_file
FN:251,_RNvMs_NtNtCs1YuMAXYbbDa_10vectorizer3cli6configNtB4_13ConfigManager22convert_to_config_file
FN:78,_RNvXNtNtCs1YuMAXYbbDa_10vectorizer3cli6configNtB2_10ConfigFileNtNtCs9Kp62OsN3pY_4core7default7Default7default
FN:134,_RNCNvMs_NtNtCs1YuMAXYbbDa_10vectorizer3cli6configNtB6_13ConfigManager12save_to_file0Ba_
FN:136,_RNCNvMs_NtNtCs1YuMAXYbbDa_10vectorizer3cli6configNtB6_13ConfigManager12save_to_files_0Ba_
FN:121,_RNCNvMs_NtNtCs1YuMAXYbbDa_10vectorizer3cli6configNtB6_13ConfigManager14load_from_file0Ba_
FN:124,_RNCNvMs_NtNtCs1YuMAXYbbDa_10vectorizer3cli6configNtB6_13ConfigManager14load_from_files_0Ba_
FN:145,_RNCNvMs_NtNtCs1YuMAXYbbDa_10vectorizer3cli6configNtB6_13ConfigManager21generate_default_file0Ba_
FN:147,_RNCNvMs_NtNtCs1YuMAXYbbDa_10vectorizer3cli6configNtB6_13ConfigManager21generate_default_files_0Ba_
FN:283,_RNCNvMs_NtNtCs1YuMAXYbbDa_10vectorizer3cli6configNtB6_13ConfigManager22convert_to_config_file0Ba_
FN:131,_RNvMs_NtNtCs4Tkd3OJeaSh_10vectorizer3cli6configNtB4_13ConfigManager12save_to_file
FN:113,_RNvMs_NtNtCs4Tkd3OJeaSh_10vectorizer3cli6configNtB4_13ConfigManager14load_from_file
FN:153,_RNvMs_NtNtCs4Tkd3OJeaSh_10vectorizer3cli6configNtB4_13ConfigManager15validate_config
FN:220,_RNvMs_NtNtCs4Tkd3OJeaSh_10vectorizer3cli6configNtB4_13ConfigManager21convert_to_cli_config
FN:142,_RNvMs_NtNtCs4Tkd3OJeaSh_10vectorizer3cli6configNtB4_13ConfigManager21generate_default_file
FN:251,_RNvMs_NtNtCs4Tkd3OJeaSh_10vectorizer3cli6configNtB4_13ConfigManager22convert_to_config_file
FN:78,_RNvXNtNtCs4Tkd3OJeaSh_10vectorizer3cli6configNtB2_10ConfigFileNtNtCs9Kp62OsN3pY_4core7default7Default7default
FN:134,_RNCNvMs_NtNtCs4Tkd3OJeaSh_10vectorizer3cli6configNtB6_13ConfigManager12save_to_file0Ba_
FN:136,_RNCNvMs_NtNtCs4Tkd3OJeaSh_10vectorizer3cli6configNtB6_13ConfigManager12save_to_files_0Ba_
FN:121,_RNCNvMs_NtNtCs4Tkd3OJeaSh_10vectorizer3cli6configNtB6_13ConfigManager14load_from_file0Ba_
FN:124,_RNCNvMs_NtNtCs4Tkd3OJeaSh_10vectorizer3cli6configNtB6_13ConfigManager14load_from_files_0Ba_
FN:145,_RNCNvMs_NtNtCs4Tkd3OJeaSh_10vectorizer3cli6configNtB6_13ConfigManager21generate_default_file0Ba_
FN:147,_RNCNvMs_NtNtCs4Tkd3OJeaSh_10vectorizer3cli6configNtB6_13ConfigManager21generate_default_files_0Ba_
FN:283,_RNCNvMs_NtNtCs4Tkd3OJeaSh_10vectorizer3cli6configNtB6_13ConfigManager22convert_to_config_file0Ba_
FN:331,_RNvNtNtNtCs4Tkd3OJeaSh_10vectorizer3cli6config5testss_22test_config_conversion
FN:305,_RNvNtNtNtCs4Tkd3OJeaSh_10vectorizer3cli6config5testss_22test_config_validation
FN:296,_RNvNtNtNtCs4Tkd3OJeaSh_10vectorizer3cli6config5testss_24test_config_file_default
FN:345,_RNvNtNtNtCs4Tkd3OJeaSh_10vectorizer3cli6config5testss_27test_config_file_operations
FNDA:0,_RNvMs_NtNtCs1YuMAXYbbDa_10vectorizer3cli6configNtB4_13ConfigManager12save_to_file
FNDA:0,_RNvMs_NtNtCs1YuMAXYbbDa_10vectorizer3cli6configNtB4_13ConfigManager14load_from_file
FNDA:0,_RNvMs_NtNtCs1YuMAXYbbDa_10vectorizer3cli6configNtB4_13ConfigManager15validate_config
FNDA:0,_RNvMs_NtNtCs1YuMAXYbbDa_10vectorizer3cli6configNtB4_13ConfigManager21convert_to_cli_config
FNDA:0,_RNvMs_NtNtCs1YuMAXYbbDa_10vectorizer3cli6configNtB4_13ConfigManager21generate_default_file
FNDA:0,_RNvMs_NtNtCs1YuMAXYbbDa_10vectorizer3cli6configNtB4_13ConfigManager22convert_to_config_file
FNDA:0,_RNvXNtNtCs1YuMAXYbbDa_10vectorizer3cli6configNtB2_10ConfigFileNtNtCs9Kp62OsN3pY_4core7default7Default7default
FNDA:0,_RNCNvMs_NtNtCs1YuMAXYbbDa_10vectorizer3cli6configNtB6_13ConfigManager12save_to_file0Ba_
FNDA:0,_RNCNvMs_NtNtCs1YuMAXYbbDa_10vectorizer3cli6configNtB6_13ConfigManager12save_to_files_0Ba_
FNDA:0,_RNCNvMs_NtNtCs1YuMAXYbbDa_10vectorizer3cli6configNtB6_13ConfigManager14load_from_file0Ba_
FNDA:0,_RNCNvMs_NtNtCs1YuMAXYbbDa_10vectorizer3cli6configNtB6_13ConfigManager14load_from_files_0Ba_
FNDA:0,_RNCNvMs_NtNtCs1YuMAXYbbDa_10vectorizer3cli6configNtB6_13ConfigManager21generate_default_file0Ba_
FNDA:0,_RNCNvMs_NtNtCs1YuMAXYbbDa_10vectorizer3cli6configNtB6_13ConfigManager21generate_default_files_0Ba_
FNDA:0,_RNCNvMs_NtNtCs1YuMAXYbbDa_10vectorizer3cli6configNtB6_13ConfigManager22convert_to_config_file0Ba_
FNDA:1,_RNvMs_NtNtCs4Tkd3OJeaSh_10vectorizer3cli6configNtB4_13ConfigManager12save_to_file
FNDA:2,_RNvMs_NtNtCs4Tkd3OJeaSh_10vectorizer3cli6configNtB4_13ConfigManager14load_from_file
FNDA:6,_RNvMs_NtNtCs4Tkd3OJeaSh_10vectorizer3cli6configNtB4_13ConfigManager15validate_config
FNDA:3,_RNvMs_NtNtCs4Tkd3OJeaSh_10vectorizer3cli6configNtB4_13ConfigManager21convert_to_cli_config
FNDA:1,_RNvMs_NtNtCs4Tkd3OJeaSh_10vectorizer3cli6configNtB4_13ConfigManager21generate_default_file
FNDA:1,_RNvMs_NtNtCs4Tkd3OJeaSh_10vectorizer3cli6configNtB4_13ConfigManager22convert_to_config_file
FNDA:4,_RNvXNtNtCs4Tkd3OJeaSh_10vectorizer3cli6configNtB2_10ConfigFileNtNtCs9Kp62OsN3pY_4core7default7Default7default
FNDA:0,_RNCNvMs_NtNtCs4Tkd3OJeaSh_10vectorizer3cli6configNtB6_13ConfigManager12save_to_file0Ba_
FNDA:0,_RNCNvMs_NtNtCs4Tkd3OJeaSh_10vectorizer3cli6configNtB6_13ConfigManager12save_to_files_0Ba_
FNDA:0,_RNCNvMs_NtNtCs4Tkd3OJeaSh_10vectorizer3cli6configNtB6_13ConfigManager14load_from_file0Ba_
FNDA:0,_RNCNvMs_NtNtCs4Tkd3OJeaSh_10vectorizer3cli6configNtB6_13ConfigManager14load_from_files_0Ba_
FNDA:0,_RNCNvMs_NtNtCs4Tkd3OJeaSh_10vectorizer3cli6configNtB6_13ConfigManager21generate_default_file0Ba_
FNDA:0,_RNCNvMs_NtNtCs4Tkd3OJeaSh_10vectorizer3cli6configNtB6_13ConfigManager21generate_default_files_0Ba_
FNDA:0,_RNCNvMs_NtNtCs4Tkd3OJeaSh_10vectorizer3cli6configNtB6_13ConfigManager22convert_to_config_file0Ba_
FNDA:1,_RNvNtNtNtCs4Tkd3OJeaSh_10vectorizer3cli6config5testss_22test_config_conversion
FNDA:1,_RNvNtNtNtCs4Tkd3OJeaSh_10vectorizer3cli6config5testss_22test_config_validation
FNDA:1,_RNvNtNtNtCs4Tkd3OJeaSh_10vectorizer3cli6config5testss_24test_config_file_default
FNDA:1,_RNvNtNtNtCs4Tkd3OJeaSh_10vectorizer3cli6config5testss_27test_config_file_operations
FNF:18
FNH:11
DA:78,4
DA:79,4
DA:80,4
DA:81,4
DA:82,4
DA:83,4
DA:84,4
DA:85,4
DA:86,4
DA:87,4
DA:88,4
DA:89,4
DA:90,4
DA:91,4
DA:92,4
DA:93,4
DA:94,4
DA:95,4
DA:96,4
DA:97,4
DA:98,4
DA:99,4
DA:100,4
DA:101,4
DA:102,4
DA:103,4
DA:104,4
DA:105,4
DA:113,2
DA:114,2
DA:115,0
DA:116,0
DA:117,0
DA:118,0
DA:119,2
DA:121,2
DA:123,2
DA:124,2
DA:126,2
DA:127,2
DA:128,2
DA:131,1
DA:132,1
DA:133,1
DA:134,1
DA:136,1
DA:138,1
DA:139,1
DA:142,1
DA:143,1
DA:144,1
DA:145,1
DA:147,1
DA:149,1
DA:150,1
DA:153,6
DA:155,6
DA:156,1
DA:157,1
DA:158,1
DA:159,5
DA:161,5
DA:162,0
DA:163,0
DA:164,0
DA:165,5
DA:168,5
DA:169,1
DA:170,1
DA:171,1
DA:172,4
DA:174,4
DA:175,0
DA:176,0
DA:177,0
DA:178,4
DA:180,4
DA:181,0
DA:182,0
DA:183,0
DA:184,4
DA:186,4
DA:187,0
DA:188,0
DA:189,0
DA:190,4
DA:192,4
DA:193,0
DA:194,0
DA:195,0
DA:196,4
DA:199,4
DA:200,0
DA:201,0
DA:202,0
DA:203,4
DA:206,4
DA:207,4
DA:208,1
DA:209,1
DA:210,1
DA:211,1
DA:212,1
DA:213,1
DA:214,3
DA:216,3
DA:217,6
DA:220,3
DA:221,3
DA:222,3
DA:223,3
DA:224,3
DA:225,3
DA:226,3
DA:227,3
DA:228,3
DA:229,3
DA:230,3
DA:231,3
DA:232,3
DA:233,3
DA:234,3
DA:235,3
DA:236,3
DA:237,3
DA:238,3
DA:239,3
DA:240,3
DA:241,3
DA:242,3
DA:243,3
DA:244,3
DA:245,3
DA:246,3
DA:247,3
DA:248,3
DA:251,1
DA:253,1
DA:254,1
DA:255,1
DA:256,1
DA:257,1
DA:258,1
DA:259,1
DA:260,1
DA:261,1
DA:262,1
DA:263,1
DA:264,1
DA:265,1
DA:266,1
DA:267,1
DA:268,1
DA:269,1
DA:270,1
DA:271,1
DA:272,1
DA:273,1
DA:274,1
DA:275,1
DA:277,1
DA:278,1
DA:279,1
DA:280,1
DA:281,1
DA:282,1
DA:283,1
DA:286,1
DA:296,1
DA:297,1
DA:298,1
DA:299,1
DA:300,1
DA:301,1
DA:302,1
DA:305,1
DA:306,1
DA:309,1
DA:312,1
DA:313,1
DA:316,1
DA:319,1
DA:320,1
DA:323,1
DA:326,1
DA:327,1
DA:328,1
DA:331,1
DA:332,1
DA:333,1
DA:335,1
DA:336,1
DA:337,1
DA:338,1
DA:342,1
DA:345,1
DA:346,1
DA:347,1
DA:350,1
DA:351,1
DA:354,1
DA:355,1
DA:356,1
DA:359,1
DA:360,1
DA:361,1
DA:364,1
DA:365,1
DA:366,1
BRF:0
BRH:0
LF:216
LH:187
end_of_record
SF:/mnt/f/Node/hivellm/vectorizer/src/cli/mod.rs
FN:499,_RNvNtCs1YuMAXYbbDa_10vectorizer3cli11load_config
FN:488,_RNvNtCs1YuMAXYbbDa_10vectorizer3cli12init_logging
FN:444,_RNvNtCs1YuMAXYbbDa_10vectorizer3cli3run
FN:419,_RNvXNtCs1YuMAXYbbDa_10vectorizer3cliNtB2_9CliConfigNtNtCs9Kp62OsN3pY_4core7default7Default7default
FN:444,_RNCNvNtCs1YuMAXYbbDa_10vectorizer3cli3run0B5_
FN:444,_RNvNtCs4Tkd3OJeaSh_10vectorizer3cli3run
FN:444,_RNCNvNtCs4Tkd3OJeaSh_10vectorizer3cli3run0B5_
FN:499,_RNvNtCs4Tkd3OJeaSh_10vectorizer3cli11load_config
FN:488,_RNvNtCs4Tkd3OJeaSh_10vectorizer3cli12init_logging
FN:419,_RNvXNtCs4Tkd3OJeaSh_10vectorizer3cliNtB2_9CliConfigNtNtCs9Kp62OsN3pY_4core7default7Default7default
FN:521,_RNvNtNtCs4Tkd3OJeaSh_10vectorizer3cli5testss_16test_cli_parsing
FN:546,_RNvNtNtCs4Tkd3OJeaSh_10vectorizer3cli5testss_23test_cli_config_default
FNDA:0,_RNvNtCs1YuMAXYbbDa_10vectorizer3cli11load_config
FNDA:0,_RNvNtCs1YuMAXYbbDa_10vectorizer3cli12init_logging
FNDA:0,_RNvNtCs1YuMAXYbbDa_10vectorizer3cli3run
FNDA:0,_RNvXNtCs1YuMAXYbbDa_10vectorizer3cliNtB2_9CliConfigNtNtCs9Kp62OsN3pY_4core7default7Default7default
FNDA:0,_RNCNvNtCs1YuMAXYbbDa_10vectorizer3cli3run0B5_
FNDA:0,_RNvNtCs4Tkd3OJeaSh_10vectorizer3cli3run
FNDA:0,_RNCNvNtCs4Tkd3OJeaSh_10vectorizer3cli3run0B5_
FNDA:0,_RNvNtCs4Tkd3OJeaSh_10vectorizer3cli11load_config
FNDA:0,_RNvNtCs4Tkd3OJeaSh_10vectorizer3cli12init_logging
FNDA:1,_RNvXNtCs4Tkd3OJeaSh_10vectorizer3cliNtB2_9CliConfigNtNtCs9Kp62OsN3pY_4core7default7Default7default
FNDA:1,_RNvNtNtCs4Tkd3OJeaSh_10vectorizer3cli5testss_16test_cli_parsing
FNDA:1,_RNvNtNtCs4Tkd3OJeaSh_10vectorizer3cli5testss_23test_cli_config_default
FNF:7
FNH:3
DA:419,1
DA:420,1
DA:421,1
DA:422,1
DA:423,1
DA:424,1
DA:425,1
DA:426,1
DA:427,1
DA:428,1
DA:429,1
DA:430,1
DA:431,1
DA:432,1
DA:433,1
DA:434,1
DA:435,1
DA:436,1
DA:437,1
DA:438,1
DA:439,1
DA:440,1
DA:444,0
DA:445,0
DA:448,0
DA:451,0
DA:454,0
DA:455,0
DA:456,0
DA:458,0
DA:459,0
DA:461,0
DA:462,0
DA:464,0
DA:465,0
DA:467,0
DA:468,0
DA:470,0
DA:471,0
DA:473,0
DA:474,0
DA:476,0
DA:477,0
DA:479,0
DA:480,0
DA:484,0
DA:485,0
DA:488,0
DA:489,0
DA:491,0
DA:492,0
DA:493,0
DA:495,0
DA:496,0
DA:499,0
DA:500,0
DA:501,0
DA:503,0
DA:504,0
DA:505,0
DA:506,0
DA:507,0
DA:512,0
DA:514,0
DA:521,1
DA:522,1
DA:524,1
DA:525,1
DA:526,1
DA:527,1
DA:528,1
DA:529,1
DA:531,1
DA:533,1
DA:534,1
DA:535,1
DA:536,1
DA:537,1
DA:539,0
DA:541,0
DA:543,1
DA:546,1
DA:547,1
DA:548,1
DA:549,1
DA:550,1
DA:551,1
BRF:0
BRH:0
LF:88
LH:43
end_of_record
SF:/mnt/f/Node/hivellm/vectorizer/src/cli/utils.rs
FN:115,_RNCNvMNtNtCs1YuMAXYbbDa_10vectorizer3cli5utilsNtB4_8CliUtils14confirm_action0B8_
FN:120,_RNCNvMNtNtCs1YuMAXYbbDa_10vectorizer3cli5utilsNtB4_8CliUtils14confirm_actions_0B8_
FN:248,_RNCNvMNtNtCs1YuMAXYbbDa_10vectorizer3cli5utilsNtB4_8CliUtils15get_current_dir0B8_
FN:140,_RNCNvMNtNtCs1YuMAXYbbDa_10vectorizer3cli5utilsNtB4_8CliUtils15get_system_info0B8_
FN:253,_RNCNvMNtNtCs1YuMAXYbbDa_10vectorizer3cli5utilsNtB4_8CliUtils15set_current_dir0B8_
FN:19,_RNCNvMNtNtCs1YuMAXYbbDa_10vectorizer3cli5utilsNtB4_8CliUtils16ensure_directory0B8_
FN:44,_RNCNvMNtNtCs1YuMAXYbbDa_10vectorizer3cli5utilsNtB4_8CliUtils19check_file_readable0B8_
FN:62,_RNCNvMNtNtCs1YuMAXYbbDa_10vectorizer3cli5utilsNtB4_8CliUtils19check_file_writable0B8_
FN:219,_RNCNvMNtNtCs1YuMAXYbbDa_10vectorizer3cli5utilsNtB4_8CliUtils22generate_secure_string0B8_
FN:229,_RNvMNtNtCs1YuMAXYbbDa_10vectorizer3cli5utilsNtB2_8CliUtils11is_elevated
FN:74,_RNvMNtNtCs1YuMAXYbbDa_10vectorizer3cli5utilsNtB2_8CliUtils12format_bytes
FN:195,_RNvMNtNtCs1YuMAXYbbDa_10vectorizer3cli5utilsNtB2_8CliUtils13validate_host
FN:177,_RNvMNtNtCs1YuMAXYbbDa_10vectorizer3cli5utilsNtB2_8CliUtils13validate_port
FN:111,_RNvMNtNtCs1YuMAXYbbDa_10vectorizer3cli5utilsNtB2_8CliUtils14confirm_action
FN:98,_RNvMNtNtCs1YuMAXYbbDa_10vectorizer3cli5utilsNtB2_8CliUtils15format_duration
FN:247,_RNvMNtNtCs1YuMAXYbbDa_10vectorizer3cli5utilsNtB2_8CliUtils15get_current_dir
FN:136,_RNvMNtNtCs1YuMAXYbbDa_10vectorizer3cli5utilsNtB2_8CliUtils15get_system_info
FN:252,_RNvMNtNtCs1YuMAXYbbDa_10vectorizer3cli5utilsNtB2_8CliUtils15set_current_dir
FN:16,_RNvMNtNtCs1YuMAXYbbDa_10vectorizer3cli5utilsNtB2_8CliUtils16ensure_directory
FN:29,_RNvMNtNtCs1YuMAXYbbDa_10vectorizer3cli5utilsNtB2_8CliUtils19check_file_readable
FN:50,_RNvMNtNtCs1YuMAXYbbDa_10vectorizer3cli5utilsNtB2_8CliUtils19check_file_writable
FN:213,_RNvMNtNtCs1YuMAXYbbDa_10vectorizer3cli5utilsNtB2_8CliUtils22generate_secure_string
FN:146,_RNvMNtNtCs1YuMAXYbbDa_10vectorizer3cli5utilsNtB2_8CliUtils25check_system_requirements
FN:275,_RNvMs_NtNtCs1YuMAXYbbDa_10vectorizer3cli5utilsNtB4_11ProgressBar3new
FN:323,_RNvMs_NtNtCs1YuMAXYbbDa_10vectorizer3cli5utilsNtB4_11ProgressBar6finish
FN:284,_RNvMs_NtNtCs1YuMAXYbbDa_10vectorizer3cli5utilsNtB4_11ProgressBar6update
FN:296,_RNvMs_NtNtCs1YuMAXYbbDa_10vectorizer3cli5utilsNtB4_11ProgressBar7display
FN:290,_RNvMs_NtNtCs1YuMAXYbbDa_10vectorizer3cli5utilsNtB4_11ProgressBar9increment
FN:115,_RNCNvMNtNtCs4Tkd3OJeaSh_10vectorizer3cli5utilsNtB4_8CliUtils14confirm_action0B8_
FN:120,_RNCNvMNtNtCs4Tkd3OJeaSh_10vectorizer3cli5utilsNtB4_8CliUtils14confirm_actions_0B8_
FN:111,_RNvMNtNtCs4Tkd3OJeaSh_10vectorizer3cli5utilsNtB2_8CliUtils14confirm_action
FN:248,_RNCNvMNtNtCs4Tkd3OJeaSh_10vectorizer3cli5utilsNtB4_8CliUtils15get_current_dir0B8_
FN:140,_RNCNvMNtNtCs4Tkd3OJeaSh_10vectorizer3cli5utilsNtB4_8CliUtils15get_system_info0B8_
FN:253,_RNCNvMNtNtCs4Tkd3OJeaSh_10vectorizer3cli5utilsNtB4_8CliUtils15set_current_dir0B8_
FN:19,_RNCNvMNtNtCs4Tkd3OJeaSh_10vectorizer3cli5utilsNtB4_8CliUtils16ensure_directory0B8_
FN:44,_RNCNvMNtNtCs4Tkd3OJeaSh_10vectorizer3cli5utilsNtB4_8CliUtils19check_file_readable0B8_
FN:62,_RNCNvMNtNtCs4Tkd3OJeaSh_10vectorizer3cli5utilsNtB4_8CliUtils19check_file_writable0B8_
FN:219,_RNCNvMNtNtCs4Tkd3OJeaSh_10vectorizer3cli5utilsNtB4_8CliUtils22generate_secure_string0B8_
FN:497,_RNvNtNtNtCs4Tkd3OJeaSh_10vectorizer3cli5utils5testss_16test_is_elevated
FN:336,_RNvNtNtNtCs4Tkd3OJeaSh_10vectorizer3cli5utils5testss_17test_format_bytes
FN:395,_RNvNtNtNtCs4Tkd3OJeaSh_10vectorizer3cli5utils5testss_17test_progress_bar
FN:376,_RNvNtNtNtCs4Tkd3OJeaSh_10vectorizer3cli5utils5testss_18test_validate_host
FN:369,_RNvNtNtNtCs4Tkd3OJeaSh_10vectorizer3cli5utils5testss_18test_validate_port
FN:344,_RNvNtNtNtCs4Tkd3OJeaSh_10vectorizer3cli5utils5testss_20test_format_duration
FN:452,_RNvNtNtNtCs4Tkd3OJeaSh_10vectorizer3cli5utils5testss_20test_get_current_dir
FN:436,_RNvNtNtNtCs4Tkd3OJeaSh_10vectorizer3cli5utils5testss_20test_get_system_info
FN:461,_RNvNtNtNtCs4Tkd3OJeaSh_10vectorizer3cli5utils5testss_20test_set_current_dir
FN:352,_RNvNtNtNtCs4Tkd3OJeaSh_10vectorizer3cli5utils5testss_21test_ensure_directory
FN:408,_RNvNtNtNtCs4Tkd3OJeaSh_10vectorizer3cli5utils5testss_24test_check_file_readable
FN:504,_RNvNtNtNtCs4Tkd3OJeaSh_10vectorizer3cli5utils5testss_25test_progress_bar_updates
FN:384,_RNvNtNtNtCs4Tkd3OJeaSh_10vectorizer3cli5utils5testss_27test_generate_secure_string
FN:520,_RNvNtNtNtCs4Tkd3OJeaSh_10vectorizer3cli5utils5testss_29test_validate_port_edge_cases
FN:445,_RNvNtNtNtCs4Tkd3OJeaSh_10vectorizer3cli5utils5testss_30test_check_system_requirements
FN:427,_RNvNtNtNtCs4Tkd3OJeaSh_10vectorizer3cli5utils5testss_33test_check_file_writable_new_file
FN:532,_RNvNtNtNtCs4Tkd3OJeaSh_10vectorizer3cli5utils5testss_34test_ensure_directory_invalid_path
FN:488,_RNvNtNtNtCs4Tkd3OJeaSh_10vectorizer3cli5utils5testss_38test_generate_secure_string_uniqueness
FN:474,_RNvNtNtNtCs4Tkd3OJeaSh_10vectorizer3cli5utils5testss_45test_generate_secure_string_different_lengths
FN:229,_RNvMNtNtCs4Tkd3OJeaSh_10vectorizer3cli5utilsNtB2_8CliUtils11is_elevated
FN:74,_RNvMNtNtCs4Tkd3OJeaSh_10vectorizer3cli5utilsNtB2_8CliUtils12format_bytes
FN:195,_RNvMNtNtCs4Tkd3OJeaSh_10vectorizer3cli5utilsNtB2_8CliUtils13validate_host
FN:177,_RNvMNtNtCs4Tkd3OJeaSh_10vectorizer3cli5utilsNtB2_8CliUtils13validate_port
FN:98,_RNvMNtNtCs4Tkd3OJeaSh_10vectorizer3cli5utilsNtB2_8CliUtils15format_duration
FN:247,_RNvMNtNtCs4Tkd3OJeaSh_10vectorizer3cli5utilsNtB2_8CliUtils15get_current_dir
FN:136,_RNvMNtNtCs4Tkd3OJeaSh_10vectorizer3cli5utilsNtB2_8CliUtils15get_system_info
FN:252,_RNvMNtNtCs4Tkd3OJeaSh_10vectorizer3cli5utilsNtB2_8CliUtils15set_current_dir
FN:16,_RNvMNtNtCs4Tkd3OJeaSh_10vectorizer3cli5utilsNtB2_8CliUtils16ensure_directory
FN:29,_RNvMNtNtCs4Tkd3OJeaSh_10vectorizer3cli5utilsNtB2_8CliUtils19check_file_readable
FN:50,_RNvMNtNtCs4Tkd3OJeaSh_10vectorizer3cli5utilsNtB2_8CliUtils19check_file_writable
FN:213,_RNvMNtNtCs4Tkd3OJeaSh_10vectorizer3cli5utilsNtB2_8CliUtils22generate_secure_string
FN:146,_RNvMNtNtCs4Tkd3OJeaSh_10vectorizer3cli5utilsNtB2_8CliUtils25check_system_requirements
FN:275,_RNvMs_NtNtCs4Tkd3OJeaSh_10vectorizer3cli5utilsNtB4_11ProgressBar3new
FN:323,_RNvMs_NtNtCs4Tkd3OJeaSh_10vectorizer3cli5utilsNtB4_11ProgressBar6finish
FN:284,_RNvMs_NtNtCs4Tkd3OJeaSh_10vectorizer3cli5utilsNtB4_11ProgressBar6update
FN:296,_RNvMs_NtNtCs4Tkd3OJeaSh_10vectorizer3cli5utilsNtB4_11ProgressBar7display
FN:290,_RNvMs_NtNtCs4Tkd3OJeaSh_10vectorizer3cli5utilsNtB4_11ProgressBar9increment
FNDA:0,_RNCNvMNtNtCs1YuMAXYbbDa_10vectorizer3cli5utilsNtB4_8CliUtils14confirm_action0B8_
FNDA:0,_RNCNvMNtNtCs1YuMAXYbbDa_10vectorizer3cli5utilsNtB4_8CliUtils14confirm_actions_0B8_
FNDA:0,_RNCNvMNtNtCs1YuMAXYbbDa_10vectorizer3cli5utilsNtB4_8CliUtils15get_current_dir0B8_
FNDA:0,_RNCNvMNtNtCs1YuMAXYbbDa_10vectorizer3cli5utilsNtB4_8CliUtils15get_system_info0B8_
FNDA:0,_RNCNvMNtNtCs1YuMAXYbbDa_10vectorizer3cli5utilsNtB4_8CliUtils15set_current_dir0B8_
FNDA:0,_RNCNvMNtNtCs1YuMAXYbbDa_10vectorizer3cli5utilsNtB4_8CliUtils16ensure_directory0B8_
FNDA:0,_RNCNvMNtNtCs1YuMAXYbbDa_10vectorizer3cli5utilsNtB4_8CliUtils19check_file_readable0B8_
FNDA:0,_RNCNvMNtNtCs1YuMAXYbbDa_10vectorizer3cli5utilsNtB4_8CliUtils19check_file_writable0B8_
FNDA:0,_RNCNvMNtNtCs1YuMAXYbbDa_10vectorizer3cli5utilsNtB4_8CliUtils22generate_secure_string0B8_
FNDA:0,_RNvMNtNtCs1YuMAXYbbDa_10vectorizer3cli5utilsNtB2_8CliUtils11is_elevated
FNDA:0,_RNvMNtNtCs1YuMAXYbbDa_10vectorizer3cli5utilsNtB2_8CliUtils12format_bytes
FNDA:0,_RNvMNtNtCs1YuMAXYbbDa_10vectorizer3cli5utilsNtB2_8CliUtils13validate_host
FNDA:0,_RNvMNtNtCs1YuMAXYbbDa_10vectorizer3cli5utilsNtB2_8CliUtils13validate_port
FNDA:0,_RNvMNtNtCs1YuMAXYbbDa_10vectorizer3cli5utilsNtB2_8CliUtils14confirm_action
FNDA:0,_RNvMNtNtCs1YuMAXYbbDa_10vectorizer3cli5utilsNtB2_8CliUtils15format_duration
FNDA:0,_RNvMNtNtCs1YuMAXYbbDa_10vectorizer3cli5utilsNtB2_8CliUtils15get_current_dir
FNDA:0,_RNvMNtNtCs1YuMAXYbbDa_10vectorizer3cli5utilsNtB2_8CliUtils15get_system_info
FNDA:0,_RNvMNtNtCs1YuMAXYbbDa_10vectorizer3cli5utilsNtB2_8CliUtils15set_current_dir
FNDA:0,_RNvMNtNtCs1YuMAXYbbDa_10vectorizer3cli5utilsNtB2_8CliUtils16ensure_directory
FNDA:0,_RNvMNtNtCs1YuMAXYbbDa_10vectorizer3cli5utilsNtB2_8CliUtils19check_file_readable
FNDA:0,_RNvMNtNtCs1YuMAXYbbDa_10vectorizer3cli5utilsNtB2_8CliUtils19check_file_writable
FNDA:0,_RNvMNtNtCs1YuMAXYbbDa_10vectorizer3cli5utilsNtB2_8CliUtils22generate_secure_string
FNDA:0,_RNvMNtNtCs1YuMAXYbbDa_10vectorizer3cli5utilsNtB2_8CliUtils25check_system_requirements
FNDA:0,_RNvMs_NtNtCs1YuMAXYbbDa_10vectorizer3cli5utilsNtB4_11ProgressBar3new
FNDA:0,_RNvMs_NtNtCs1YuMAXYbbDa_10vectorizer3cli5utilsNtB4_11ProgressBar6finish
FNDA:0,_RNvMs_NtNtCs1YuMAXYbbDa_10vectorizer3cli5utilsNtB4_11ProgressBar6update
FNDA:0,_RNvMs_NtNtCs1YuMAXYbbDa_10vectorizer3cli5utilsNtB4_11ProgressBar7display
FNDA:0,_RNvMs_NtNtCs1YuMAXYbbDa_10vectorizer3cli5utilsNtB4_11ProgressBar9increment
FNDA:0,_RNCNvMNtNtCs4Tkd3OJeaSh_10vectorizer3cli5utilsNtB4_8CliUtils14confirm_action0B8_
FNDA:0,_RNCNvMNtNtCs4Tkd3OJeaSh_10vectorizer3cli5utilsNtB4_8CliUtils14confirm_actions_0B8_
FNDA:0,_RNvMNtNtCs4Tkd3OJeaSh_10vectorizer3cli5utilsNtB2_8CliUtils14confirm_action
FNDA:0,_RNCNvMNtNtCs4Tkd3OJeaSh_10vectorizer3cli5utilsNtB4_8CliUtils15get_current_dir0B8_
FNDA:2,_RNCNvMNtNtCs4Tkd3OJeaSh_10vectorizer3cli5utilsNtB4_8CliUtils15get_system_info0B8_
FNDA:0,_RNCNvMNtNtCs4Tkd3OJeaSh_10vectorizer3cli5utilsNtB4_8CliUtils15set_current_dir0B8_
FNDA:0,_RNCNvMNtNtCs4Tkd3OJeaSh_10vectorizer3cli5utilsNtB4_8CliUtils16ensure_directory0B8_
FNDA:0,_RNCNvMNtNtCs4Tkd3OJeaSh_10vectorizer3cli5utilsNtB4_8CliUtils19check_file_readable0B8_
FNDA:0,_RNCNvMNtNtCs4Tkd3OJeaSh_10vectorizer3cli5utilsNtB4_8CliUtils19check_file_writable0B8_
FNDA:184,_RNCNvMNtNtCs4Tkd3OJeaSh_10vectorizer3cli5utilsNtB4_8CliUtils22generate_secure_string0B8_
FNDA:1,_RNvNtNtNtCs4Tkd3OJeaSh_10vectorizer3cli5utils5testss_16test_is_elevated
FNDA:1,_RNvNtNtNtCs4Tkd3OJeaSh_10vectorizer3cli5utils5testss_17test_format_bytes
FNDA:1,_RNvNtNtNtCs4Tkd3OJeaSh_10vectorizer3cli5utils5testss_17test_progress_bar
FNDA:1,_RNvNtNtNtCs4Tkd3OJeaSh_10vectorizer3cli5utils5testss_18test_validate_host
FNDA:1,_RNvNtNtNtCs4Tkd3OJeaSh_10vectorizer3cli5utils5testss_18test_validate_port
FNDA:1,_RNvNtNtNtCs4Tkd3OJeaSh_10vectorizer3cli5utils5testss_20test_format_duration
FNDA:1,_RNvNtNtNtCs4Tkd3OJeaSh_10vectorizer3cli5utils5testss_20test_get_current_dir
FNDA:1,_RNvNtNtNtCs4Tkd3OJeaSh_10vectorizer3cli5utils5testss_20test_get_system_info
FNDA:1,_RNvNtNtNtCs4Tkd3OJeaSh_10vectorizer3cli5utils5testss_20test_set_current_dir
FNDA:1,_RNvNtNtNtCs4Tkd3OJeaSh_10vectorizer3cli5utils5testss_21test_ensure_directory
FNDA:1,_RNvNtNtNtCs4Tkd3OJeaSh_10vectorizer3cli5utils5testss_24test_check_file_readable
FNDA:1,_RNvNtNtNtCs4Tkd3OJeaSh_10vectorizer3cli5utils5testss_25test_progress_bar_updates
FNDA:1,_RNvNtNtNtCs4Tkd3OJeaSh_10vectorizer3cli5utils5testss_27test_generate_secure_string
FNDA:1,_RNvNtNtNtCs4Tkd3OJeaSh_10vectorizer3cli5utils5testss_29test_validate_port_edge_cases
FNDA:1,_RNvNtNtNtCs4Tkd3OJeaSh_10vectorizer3cli5utils5testss_30test_check_system_requirements
FNDA:1,_RNvNtNtNtCs4Tkd3OJeaSh_10vectorizer3cli5utils5testss_33test_check_file_writable_new_file
FNDA:1,_RNvNtNtNtCs4Tkd3OJeaSh_10vectorizer3cli5utils5testss_34test_ensure_directory_invalid_path
FNDA:1,_RNvNtNtNtCs4Tkd3OJeaSh_10vectorizer3cli5utils5testss_38test_generate_secure_string_uniqueness
FNDA:1,_RNvNtNtNtCs4Tkd3OJeaSh_10vectorizer3cli5utils5testss_45test_generate_secure_string_different_lengths
FNDA:1,_RNvMNtNtCs4Tkd3OJeaSh_10vectorizer3cli5utilsNtB2_8CliUtils11is_elevated
FNDA:4,_RNvMNtNtCs4Tkd3OJeaSh_10vectorizer3cli5utilsNtB2_8CliUtils12format_bytes
FNDA:4,_RNvMNtNtCs4Tkd3OJeaSh_10vectorizer3cli5utilsNtB2_8CliUtils13validate_host
FNDA:8,_RNvMNtNtCs4Tkd3OJeaSh_10vectorizer3cli5utilsNtB2_8CliUtils13validate_port
FNDA:4,_RNvMNtNtCs4Tkd3OJeaSh_10vectorizer3cli5utilsNtB2_8CliUtils15format_duration
FNDA:2,_RNvMNtNtCs4Tkd3OJeaSh_10vectorizer3cli5utilsNtB2_8CliUtils15get_current_dir
FNDA:2,_RNvMNtNtCs4Tkd3OJeaSh_10vectorizer3cli5utilsNtB2_8CliUtils15get_system_info
FNDA:2,_RNvMNtNtCs4Tkd3OJeaSh_10vectorizer3cli5utilsNtB2_8CliUtils15set_current_dir
FNDA:4,_RNvMNtNtCs4Tkd3OJeaSh_10vectorizer3cli5utilsNtB2_8CliUtils16ensure_directory
FNDA:2,_RNvMNtNtCs4Tkd3OJeaSh_10vectorizer3cli5utilsNtB2_8CliUtils19check_file_readable
FNDA:1,_RNvMNtNtCs4Tkd3OJeaSh_10vectorizer3cli5utilsNtB2_8CliUtils19check_file_writable
FNDA:6,_RNvMNtNtCs4Tkd3OJeaSh_10vectorizer3cli5utilsNtB2_8CliUtils22generate_secure_string
FNDA:1,_RNvMNtNtCs4Tkd3OJeaSh_10vectorizer3cli5utilsNtB2_8CliUtils25check_system_requirements
FNDA:2,_RNvMs_NtNtCs4Tkd3OJeaSh_10vectorizer3cli5utilsNtB4_11ProgressBar3new
FNDA:1,_RNvMs_NtNtCs4Tkd3OJeaSh_10vectorizer3cli5utilsNtB4_11ProgressBar6finish
FNDA:2,_RNvMs_NtNtCs4Tkd3OJeaSh_10vectorizer3cli5utilsNtB4_11ProgressBar6update
FNDA:6,_RNvMs_NtNtCs4Tkd3OJeaSh_10vectorizer3cli5utilsNtB4_11ProgressBar7display
FNDA:3,_RNvMs_NtNtCs4Tkd3OJeaSh_10vectorizer3cli5utilsNtB4_11ProgressBar9increment
FNF:47
FNH:39
DA:16,4
DA:17,4
DA:18,1
DA:19,1
DA:20,3
DA:21,1
DA:22,1
DA:23,1
DA:24,2
DA:25,3
DA:26,4
DA:29,2
DA:30,2
DA:31,1
DA:32,1
DA:33,1
DA:34,1
DA:35,1
DA:37,1
DA:38,0
DA:39,0
DA:40,0
DA:41,1
DA:44,1
DA:46,1
DA:47,2
DA:50,1
DA:51,1
DA:52,0
DA:53,0
DA:54,0
DA:55,0
DA:56,0
DA:59,0
DA:60,0
DA:61,0
DA:62,0
DA:65,1
DA:66,1
DA:67,0
DA:70,1
DA:71,1
DA:74,4
DA:78,4
DA:79,1
DA:80,3
DA:82,3
DA:83,3
DA:85,9
DA:86,6
DA:87,6
DA:88,6
DA:90,3
DA:91,0
DA:93,3
DA:95,4
DA:98,4
DA:99,4
DA:100,1
DA:101,3
DA:102,1
DA:103,2
DA:104,1
DA:106,1
DA:108,4
DA:111,0
DA:112,0
DA:113,0
DA:115,0
DA:117,0
DA:118,0
DA:119,0
DA:120,0
DA:122,0
DA:124,0
DA:125,0
DA:126,0
DA:127,0
DA:129,0
DA:130,0
DA:133,0
DA:136,2
DA:138,2
DA:139,2
DA:140,2
DA:141,2
DA:143,2
DA:146,1
DA:147,1
DA:149,1
DA:150,1
DA:151,1
DA:152,1
DA:153,1
DA:156,1
DA:157,1
DA:158,1
DA:159,1
DA:160,0
DA:161,1
DA:162,0
DA:165,1
DA:166,1
DA:167,1
DA:168,1
DA:169,0
DA:170,1
DA:171,0
DA:173,1
DA:174,1
DA:177,8
DA:178,8
DA:179,2
DA:180,2
DA:181,2
DA:182,6
DA:184,6
DA:185,3
DA:186,0
DA:189,3
DA:191,6
DA:192,8
DA:195,4
DA:196,4
DA:197,1
DA:198,1
DA:199,1
DA:200,3
DA:203,3
DA:204,1
DA:205,0
DA:207,2
DA:209,3
DA:210,4
DA:213,6
DA:217,6
DA:218,6
DA:219,184
DA:220,184
DA:221,184
DA:222,184
DA:223,6
DA:225,6
DA:226,6
DA:229,1
DA:233,1
DA:244,1
DA:247,2
DA:248,2
DA:249,2
DA:252,2
DA:253,2
DA:254,2
DA:275,2
DA:276,2
DA:277,2
DA:278,2
DA:279,2
DA:280,2
DA:281,2
DA:284,2
DA:285,2
DA:286,2
DA:287,2
DA:290,3
DA:291,3
DA:292,3
DA:293,3
DA:296,6
DA:297,6
DA:298,6
DA:300,0
DA:303,6
DA:304,6
DA:306,6
DA:307,175
DA:308,175
DA:309,175
DA:310,125
DA:311,125
DA:312,125
DA:313,6
DA:315,6
DA:316,1
DA:317,5
DA:318,5
DA:319,5
DA:320,6
DA:323,1
DA:324,1
DA:325,1
DA:326,1
DA:336,1
DA:337,1
DA:338,1
DA:339,1
DA:340,1
DA:341,1
DA:344,1
DA:345,1
DA:346,1
DA:347,1
DA:348,1
DA:349,1
DA:352,1
DA:353,1
DA:354,1
DA:357,1
DA:360,1
DA:361,1
DA:362,1
DA:365,1
DA:366,1
DA:369,1
DA:370,1
DA:371,1
DA:372,1
DA:373,1
DA:376,1
DA:377,1
DA:378,1
DA:379,1
DA:380,1
DA:381,1
DA:384,1
DA:385,1
DA:386,1
DA:389,32
DA:390,32
DA:392,1
DA:395,1
DA:396,1
DA:398,1
DA:399,1
DA:400,1
DA:403,1
DA:404,1
DA:405,1
DA:408,1
DA:412,1
DA:413,1
DA:414,1
DA:416,1
DA:417,1
DA:418,1
DA:421,1
DA:422,1
DA:423,1
DA:424,1
DA:427,1
DA:428,1
DA:429,1
DA:431,1
DA:432,1
DA:433,1
DA:436,1
DA:437,1
DA:439,1
DA:440,1
DA:441,1
DA:442,1
DA:445,1
DA:446,1
DA:448,1
DA:449,1
DA:452,1
DA:453,1
DA:454,1
DA:456,1
DA:457,1
DA:458,1
DA:461,1
DA:462,1
DA:463,1
DA:466,1
DA:467,1
DA:470,1
DA:471,1
DA:474,1
DA:475,1
DA:476,1
DA:477,1
DA:479,1
DA:480,1
DA:481,1
DA:484,1
DA:485,1
DA:488,1
DA:489,1
DA:490,1
DA:493,1
DA:494,1
DA:497,1
DA:499,1
DA:500,1
DA:501,1
DA:504,1
DA:505,1
DA:507,1
DA:509,1
DA:510,1
DA:512,1
DA:513,1
DA:515,1
DA:516,1
DA:517,1
DA:520,1
DA:522,1
DA:523,1
DA:524,1
DA:525,1
DA:528,1
DA:529,1
DA:532,1
DA:536,1
DA:537,1
DA:538,1
DA:540,1
DA:541,1
DA:544,1
DA:545,1
BRF:0
BRH:0
LF:330
LH:286
end_of_record
SF:/mnt/f/Node/hivellm/vectorizer/src/config/enhanced_config.rs
FN:213,_RINvMNtNtCs1YuMAXYbbDa_10vectorizer6config15enhanced_configNtB3_21EnhancedConfigManager13update_configpEB7_
FN:578,_RNCNCNvMNtNtCs1YuMAXYbbDa_10vectorizer6config15enhanced_configNtB6_21EnhancedConfigManager13export_config00Ba_
FN:159,_RNCNvMNtNtCs1YuMAXYbbDa_10vectorizer6config15enhanced_configNtB4_21EnhancedConfigManager11load_config0B8_
FN:194,_RNCNvMNtNtCs1YuMAXYbbDa_10vectorizer6config15enhanced_configNtB4_21EnhancedConfigManager11save_config0B8_
FN:558,_RNCNvMNtNtCs1YuMAXYbbDa_10vectorizer6config15enhanced_configNtB4_21EnhancedConfigManager13export_config0B8_
FN:399,_RNCNvMNtNtCs1YuMAXYbbDa_10vectorizer6config15enhanced_configNtB4_21EnhancedConfigManager20create_from_template0B8_
FN:208,_RNvMNtNtCs1YuMAXYbbDa_10vectorizer6config15enhanced_configNtB2_21EnhancedConfigManager10get_config
FN:159,_RNvMNtNtCs1YuMAXYbbDa_10vectorizer6config15enhanced_configNtB2_21EnhancedConfigManager11load_config
FN:194,_RNvMNtNtCs1YuMAXYbbDa_10vectorizer6config15enhanced_configNtB2_21EnhancedConfigManager11save_config
FN:558,_RNvMNtNtCs1YuMAXYbbDa_10vectorizer6config15enhanced_configNtB2_21EnhancedConfigManager13export_config
FN:249,_RNvMNtNtCs1YuMAXYbbDa_10vectorizer6config15enhanced_configNtB2_21EnhancedConfigManager15validate_config
FN:300,_RNvMNtNtCs1YuMAXYbbDa_10vectorizer6config15enhanced_configNtB2_21EnhancedConfigManager18enable_auto_reload
FN:224,_RNvMNtNtCs1YuMAXYbbDa_10vectorizer6config15enhanced_configNtB2_21EnhancedConfigManager19substitute_env_vars
FN:395,_RNvMNtNtCs1YuMAXYbbDa_10vectorizer6config15enhanced_configNtB2_21EnhancedConfigManager20create_from_template
FN:497,_RNvMNtNtCs1YuMAXYbbDa_10vectorizer6config15enhanced_configNtB2_21EnhancedConfigManager22get_config_as_env_vars
FN:378,_RNvMNtNtCs1YuMAXYbbDa_10vectorizer6config15enhanced_configNtB2_21EnhancedConfigManager22validate_config_static
FN:288,_RNvMNtNtCs1YuMAXYbbDa_10vectorizer6config15enhanced_configNtB2_21EnhancedConfigManager25validate_field_constraint
FN:355,_RNvMNtNtCs1YuMAXYbbDa_10vectorizer6config15enhanced_configNtB2_21EnhancedConfigManager26substitute_env_vars_static
FN:426,_RNvMNtNtCs1YuMAXYbbDa_10vectorizer6config15enhanced_configNtB2_21EnhancedConfigManager26validate_template_variable
FN:147,_RNvMNtNtCs1YuMAXYbbDa_10vectorizer6config15enhanced_configNtB2_21EnhancedConfigManager3new
FN:281,_RNvMNtNtCs1YuMAXYbbDa_10vectorizer6config15enhanced_configNtB2_21EnhancedConfigManager9has_field
FN:612,_RNvXs0_NtNtCs1YuMAXYbbDa_10vectorizer6config15enhanced_configNtB5_14ConfigTemplateNtNtCs9Kp62OsN3pY_4core7default7Default7default
FN:599,_RNvXs_NtNtCs1YuMAXYbbDa_10vectorizer6config15enhanced_configNtB4_15ValidationRulesNtNtCs9Kp62OsN3pY_4core7default7Default7default
FN:307,_RNCNvMNtNtCs1YuMAXYbbDa_10vectorizer6config15enhanced_configNtB4_21EnhancedConfigManager18enable_auto_reload0B8_
FN:232,_RNCNvMNtNtCs1YuMAXYbbDa_10vectorizer6config15enhanced_configNtB4_21EnhancedConfigManager19substitute_env_vars0B8_
FN:234,_RNCNvMNtNtCs1YuMAXYbbDa_10vectorizer6config15enhanced_configNtB4_21EnhancedConfigManager19substitute_env_varss_0B8_
FN:361,_RNCNvMNtNtCs1YuMAXYbbDa_10vectorizer6config15enhanced_configNtB4_21EnhancedConfigManager26substitute_env_vars_static0B8_
FN:363,_RNCNvMNtNtCs1YuMAXYbbDa_10vectorizer6config15enhanced_configNtB4_21EnhancedConfigManager26substitute_env_vars_statics_0B8_
FN:454,_RNCNvMNtNtCs1YuMAXYbbDa_10vectorizer6config15enhanced_configNtB4_21EnhancedConfigManager26validate_template_variable0B8_
FN:459,_RNCNvMNtNtCs1YuMAXYbbDa_10vectorizer6config15enhanced_configNtB4_21EnhancedConfigManager26validate_template_variables_0B8_
FN:213,_RINvMNtNtCs4Tkd3OJeaSh_10vectorizer6config15enhanced_configNtB3_21EnhancedConfigManager13update_configpEB7_
FN:578,_RNCNCNvMNtNtCs4Tkd3OJeaSh_10vectorizer6config15enhanced_configNtB6_21EnhancedConfigManager13export_config00Ba_
FN:194,_RNCNvMNtNtCs4Tkd3OJeaSh_10vectorizer6config15enhanced_configNtB4_21EnhancedConfigManager11save_config0B8_
FN:558,_RNCNvMNtNtCs4Tkd3OJeaSh_10vectorizer6config15enhanced_configNtB4_21EnhancedConfigManager13export_config0B8_
FN:307,_RNCNvMNtNtCs4Tkd3OJeaSh_10vectorizer6config15enhanced_configNtB4_21EnhancedConfigManager18enable_auto_reload0B8_
FN:399,_RNCNvMNtNtCs4Tkd3OJeaSh_10vectorizer6config15enhanced_configNtB4_21EnhancedConfigManager20create_from_template0B8_
FN:361,_RNCNvMNtNtCs4Tkd3OJeaSh_10vectorizer6config15enhanced_configNtB4_21EnhancedConfigManager26substitute_env_vars_static0B8_
FN:363,_RNCNvMNtNtCs4Tkd3OJeaSh_10vectorizer6config15enhanced_configNtB4_21EnhancedConfigManager26substitute_env_vars_statics_0B8_
FN:454,_RNCNvMNtNtCs4Tkd3OJeaSh_10vectorizer6config15enhanced_configNtB4_21EnhancedConfigManager26validate_template_variable0B8_
FN:459,_RNCNvMNtNtCs4Tkd3OJeaSh_10vectorizer6config15enhanced_configNtB4_21EnhancedConfigManager26validate_template_variables_0B8_
FN:194,_RNvMNtNtCs4Tkd3OJeaSh_10vectorizer6config15enhanced_configNtB2_21EnhancedConfigManager11save_config
FN:558,_RNvMNtNtCs4Tkd3OJeaSh_10vectorizer6config15enhanced_configNtB2_21EnhancedConfigManager13export_config
FN:300,_RNvMNtNtCs4Tkd3OJeaSh_10vectorizer6config15enhanced_configNtB2_21EnhancedConfigManager18enable_auto_reload
FN:395,_RNvMNtNtCs4Tkd3OJeaSh_10vectorizer6config15enhanced_configNtB2_21EnhancedConfigManager20create_from_template
FN:378,_RNvMNtNtCs4Tkd3OJeaSh_10vectorizer6config15enhanced_configNtB2_21EnhancedConfigManager22validate_config_static
FN:355,_RNvMNtNtCs4Tkd3OJeaSh_10vectorizer6config15enhanced_configNtB2_21EnhancedConfigManager26substitute_env_vars_static
FN:426,_RNvMNtNtCs4Tkd3OJeaSh_10vectorizer6config15enhanced_configNtB2_21EnhancedConfigManager26validate_template_variable
FN:612,_RNvXs0_NtNtCs4Tkd3OJeaSh_10vectorizer6config15enhanced_configNtB5_14ConfigTemplateNtNtCs9Kp62OsN3pY_4core7default7Default7default
FN:159,_RNCNvMNtNtCs4Tkd3OJeaSh_10vectorizer6config15enhanced_configNtB4_21EnhancedConfigManager11load_config0B8_
FN:232,_RNCNvMNtNtCs4Tkd3OJeaSh_10vectorizer6config15enhanced_configNtB4_21EnhancedConfigManager19substitute_env_vars0B8_
FN:234,_RNCNvMNtNtCs4Tkd3OJeaSh_10vectorizer6config15enhanced_configNtB4_21EnhancedConfigManager19substitute_env_varss_0B8_
FN:629,_RNCNvNtNtNtCs4Tkd3OJeaSh_10vectorizer6config15enhanced_config5testss_19test_config_loading0B9_
FN:722,_RNCNvNtNtNtCs4Tkd3OJeaSh_10vectorizer6config15enhanced_config5testss_30test_env_variable_substitution0B9_
FN:629,_RNvNtNtNtCs4Tkd3OJeaSh_10vectorizer6config15enhanced_config5testss_19test_config_loading
FN:820,_RNvNtNtNtCs4Tkd3OJeaSh_10vectorizer6config15enhanced_config5testss_27test_config_export_env_vars
FN:722,_RNvNtNtNtCs4Tkd3OJeaSh_10vectorizer6config15enhanced_config5testss_30test_env_variable_substitution
FN:208,_RNvMNtNtCs4Tkd3OJeaSh_10vectorizer6config15enhanced_configNtB2_21EnhancedConfigManager10get_config
FN:159,_RNvMNtNtCs4Tkd3OJeaSh_10vectorizer6config15enhanced_configNtB2_21EnhancedConfigManager11load_config
FN:249,_RNvMNtNtCs4Tkd3OJeaSh_10vectorizer6config15enhanced_configNtB2_21EnhancedConfigManager15validate_config
FN:224,_RNvMNtNtCs4Tkd3OJeaSh_10vectorizer6config15enhanced_configNtB2_21EnhancedConfigManager19substitute_env_vars
FN:497,_RNvMNtNtCs4Tkd3OJeaSh_10vectorizer6config15enhanced_configNtB2_21EnhancedConfigManager22get_config_as_env_vars
FN:288,_RNvMNtNtCs4Tkd3OJeaSh_10vectorizer6config15enhanced_configNtB2_21EnhancedConfigManager25validate_field_constraint
FN:147,_RNvMNtNtCs4Tkd3OJeaSh_10vectorizer6config15enhanced_configNtB2_21EnhancedConfigManager3new
FN:281,_RNvMNtNtCs4Tkd3OJeaSh_10vectorizer6config15enhanced_configNtB2_21EnhancedConfigManager9has_field
FN:599,_RNvXs_NtNtCs4Tkd3OJeaSh_10vectorizer6config15enhanced_configNtB4_15ValidationRulesNtNtCs9Kp62OsN3pY_4core7default7Default7default
FNDA:0,_RINvMNtNtCs1YuMAXYbbDa_10vectorizer6config15enhanced_configNtB3_21EnhancedConfigManager13update_configpEB7_
FNDA:0,_RNCNCNvMNtNtCs1YuMAXYbbDa_10vectorizer6config15enhanced_configNtB6_21EnhancedConfigManager13export_config00Ba_
FNDA:0,_RNCNvMNtNtCs1YuMAXYbbDa_10vectorizer6config15enhanced_configNtB4_21EnhancedConfigManager11load_config0B8_
FNDA:0,_RNCNvMNtNtCs1YuMAXYbbDa_10vectorizer6config15enhanced_configNtB4_21EnhancedConfigManager11save_config0B8_
FNDA:0,_RNCNvMNtNtCs1YuMAXYbbDa_10vectorizer6config15enhanced_configNtB4_21EnhancedConfigManager13export_config0B8_
FNDA:0,_RNCNvMNtNtCs1YuMAXYbbDa_10vectorizer6config15enhanced_configNtB4_21EnhancedConfigManager20create_from_template0B8_
FNDA:0,_RNvMNtNtCs1YuMAXYbbDa_10vectorizer6config15enhanced_configNtB2_21EnhancedConfigManager10get_config
FNDA:0,_RNvMNtNtCs1YuMAXYbbDa_10vectorizer6config15enhanced_configNtB2_21EnhancedConfigManager11load_config
FNDA:0,_RNvMNtNtCs1YuMAXYbbDa_10vectorizer6config15enhanced_configNtB2_21EnhancedConfigManager11save_config
FNDA:0,_RNvMNtNtCs1YuMAXYbbDa_10vectorizer6config15enhanced_configNtB2_21EnhancedConfigManager13export_config
FNDA:0,_RNvMNtNtCs1YuMAXYbbDa_10vectorizer6config15enhanced_configNtB2_21EnhancedConfigManager15validate_config
FNDA:0,_RNvMNtNtCs1YuMAXYbbDa_10vectorizer6config15enhanced_configNtB2_21EnhancedConfigManager18enable_auto_reload
FNDA:0,_RNvMNtNtCs1YuMAXYbbDa_10vectorizer6config15enhanced_configNtB2_21EnhancedConfigManager19substitute_env_vars
FNDA:0,_RNvMNtNtCs1YuMAXYbbDa_10vectorizer6config15enhanced_configNtB2_21EnhancedConfigManager20create_from_template
FNDA:0,_RNvMNtNtCs1YuMAXYbbDa_10vectorizer6config15enhanced_configNtB2_21EnhancedConfigManager22get_config_as_env_vars
FNDA:0,_RNvMNtNtCs1YuMAXYbbDa_10vectorizer6config15enhanced_configNtB2_21EnhancedConfigManager22validate_config_static
FNDA:0,_RNvMNtNtCs1YuMAXYbbDa_10vectorizer6config15enhanced_configNtB2_21EnhancedConfigManager25validate_field_constraint
FNDA:0,_RNvMNtNtCs1YuMAXYbbDa_10vectorizer6config15enhanced_configNtB2_21EnhancedConfigManager26substitute_env_vars_static
FNDA:0,_RNvMNtNtCs1YuMAXYbbDa_10vectorizer6config15enhanced_configNtB2_21EnhancedConfigManager26validate_template_variable
FNDA:0,_RNvMNtNtCs1YuMAXYbbDa_10vectorizer6config15enhanced_configNtB2_21EnhancedConfigManager3new
FNDA:0,_RNvMNtNtCs1YuMAXYbbDa_10vectorizer6config15enhanced_configNtB2_21EnhancedConfigManager9has_field
FNDA:0,_RNvXs0_NtNtCs1YuMAXYbbDa_10vectorizer6config15enhanced_configNtB5_14ConfigTemplateNtNtCs9Kp62OsN3pY_4core7default7Default7default
FNDA:0,_RNvXs_NtNtCs1YuMAXYbbDa_10vectorizer6config15enhanced_configNtB4_15ValidationRulesNtNtCs9Kp62OsN3pY_4core7default7Default7default
FNDA:0,_RNCNvMNtNtCs1YuMAXYbbDa_10vectorizer6config15enhanced_configNtB4_21EnhancedConfigManager18enable_auto_reload0B8_
FNDA:0,_RNCNvMNtNtCs1YuMAXYbbDa_10vectorizer6config15enhanced_configNtB4_21EnhancedConfigManager19substitute_env_vars0B8_
FNDA:0,_RNCNvMNtNtCs1YuMAXYbbDa_10vectorizer6config15enhanced_configNtB4_21EnhancedConfigManager19substitute_env_varss_0B8_
FNDA:0,_RNCNvMNtNtCs1YuMAXYbbDa_10vectorizer6config15enhanced_configNtB4_21EnhancedConfigManager26substitute_env_vars_static0B8_
FNDA:0,_RNCNvMNtNtCs1YuMAXYbbDa_10vectorizer6config15enhanced_configNtB4_21EnhancedConfigManager26substitute_env_vars_statics_0B8_
FNDA:0,_RNCNvMNtNtCs1YuMAXYbbDa_10vectorizer6config15enhanced_configNtB4_21EnhancedConfigManager26validate_template_variable0B8_
FNDA:0,_RNCNvMNtNtCs1YuMAXYbbDa_10vectorizer6config15enhanced_configNtB4_21EnhancedConfigManager26validate_template_variables_0B8_
FNDA:0,_RINvMNtNtCs4Tkd3OJeaSh_10vectorizer6config15enhanced_configNtB3_21EnhancedConfigManager13update_configpEB7_
FNDA:0,_RNCNCNvMNtNtCs4Tkd3OJeaSh_10vectorizer6config15enhanced_configNtB6_21EnhancedConfigManager13export_config00Ba_
FNDA:0,_RNCNvMNtNtCs4Tkd3OJeaSh_10vectorizer6config15enhanced_configNtB4_21EnhancedConfigManager11save_config0B8_
FNDA:0,_RNCNvMNtNtCs4Tkd3OJeaSh_10vectorizer6config15enhanced_configNtB4_21EnhancedConfigManager13export_config0B8_
FNDA:0,_RNCNvMNtNtCs4Tkd3OJeaSh_10vectorizer6config15enhanced_configNtB4_21EnhancedConfigManager18enable_auto_reload0B8_
FNDA:0,_RNCNvMNtNtCs4Tkd3OJeaSh_10vectorizer6config15enhanced_configNtB4_21EnhancedConfigManager20create_from_template0B8_
FNDA:0,_RNCNvMNtNtCs4Tkd3OJeaSh_10vectorizer6config15enhanced_configNtB4_21EnhancedConfigManager26substitute_env_vars_static0B8_
FNDA:0,_RNCNvMNtNtCs4Tkd3OJeaSh_10vectorizer6config15enhanced_configNtB4_21EnhancedConfigManager26substitute_env_vars_statics_0B8_
FNDA:0,_RNCNvMNtNtCs4Tkd3OJeaSh_10vectorizer6config15enhanced_configNtB4_21EnhancedConfigManager26validate_template_variable0B8_
FNDA:0,_RNCNvMNtNtCs4Tkd3OJeaSh_10vectorizer6config15enhanced_configNtB4_21EnhancedConfigManager26validate_template_variables_0B8_
FNDA:0,_RNvMNtNtCs4Tkd3OJeaSh_10vectorizer6config15enhanced_configNtB2_21EnhancedConfigManager11save_config
FNDA:0,_RNvMNtNtCs4Tkd3OJeaSh_10vectorizer6config15enhanced_configNtB2_21EnhancedConfigManager13export_config
FNDA:0,_RNvMNtNtCs4Tkd3OJeaSh_10vectorizer6config15enhanced_configNtB2_21EnhancedConfigManager18enable_auto_reload
FNDA:0,_RNvMNtNtCs4Tkd3OJeaSh_10vectorizer6config15enhanced_configNtB2_21EnhancedConfigManager20create_from_template
FNDA:0,_RNvMNtNtCs4Tkd3OJeaSh_10vectorizer6config15enhanced_configNtB2_21EnhancedConfigManager22validate_config_static
FNDA:0,_RNvMNtNtCs4Tkd3OJeaSh_10vectorizer6config15enhanced_configNtB2_21EnhancedConfigManager26substitute_env_vars_static
FNDA:0,_RNvMNtNtCs4Tkd3OJeaSh_10vectorizer6config15enhanced_configNtB2_21EnhancedConfigManager26validate_template_variable
FNDA:0,_RNvXs0_NtNtCs4Tkd3OJeaSh_10vectorizer6config15enhanced_configNtB5_14ConfigTemplateNtNtCs9Kp62OsN3pY_4core7default7Default7default
FNDA:2,_RNCNvMNtNtCs4Tkd3OJeaSh_10vectorizer6config15enhanced_configNtB4_21EnhancedConfigManager11load_config0B8_
FNDA:0,_RNCNvMNtNtCs4Tkd3OJeaSh_10vectorizer6config15enhanced_configNtB4_21EnhancedConfigManager19substitute_env_vars0B8_
FNDA:0,_RNCNvMNtNtCs4Tkd3OJeaSh_10vectorizer6config15enhanced_configNtB4_21EnhancedConfigManager19substitute_env_varss_0B8_
FNDA:1,_RNCNvNtNtNtCs4Tkd3OJeaSh_10vectorizer6config15enhanced_config5testss_19test_config_loading0B9_
FNDA:1,_RNCNvNtNtNtCs4Tkd3OJeaSh_10vectorizer6config15enhanced_config5testss_30test_env_variable_substitution0B9_
FNDA:1,_RNvNtNtNtCs4Tkd3OJeaSh_10vectorizer6config15enhanced_config5testss_19test_config_loading
FNDA:1,_RNvNtNtNtCs4Tkd3OJeaSh_10vectorizer6config15enhanced_config5testss_27test_config_export_env_vars
FNDA:1,_RNvNtNtNtCs4Tkd3OJeaSh_10vectorizer6config15enhanced_config5testss_30test_env_variable_substitution
FNDA:2,_RNvMNtNtCs4Tkd3OJeaSh_10vectorizer6config15enhanced_configNtB2_21EnhancedConfigManager10get_config
FNDA:2,_RNvMNtNtCs4Tkd3OJeaSh_10vectorizer6config15enhanced_configNtB2_21EnhancedConfigManager11load_config
FNDA:2,_RNvMNtNtCs4Tkd3OJeaSh_10vectorizer6config15enhanced_configNtB2_21EnhancedConfigManager15validate_config
FNDA:2,_RNvMNtNtCs4Tkd3OJeaSh_10vectorizer6config15enhanced_configNtB2_21EnhancedConfigManager19substitute_env_vars
FNDA:1,_RNvMNtNtCs4Tkd3OJeaSh_10vectorizer6config15enhanced_configNtB2_21EnhancedConfigManager22get_config_as_env_vars
FNDA:0,_RNvMNtNtCs4Tkd3OJeaSh_10vectorizer6config15enhanced_configNtB2_21EnhancedConfigManager25validate_field_constraint
FNDA:3,_RNvMNtNtCs4Tkd3OJeaSh_10vectorizer6config15enhanced_configNtB2_21EnhancedConfigManager3new
FNDA:4,_RNvMNtNtCs4Tkd3OJeaSh_10vectorizer6config15enhanced_configNtB2_21EnhancedConfigManager9has_field
FNDA:3,_RNvXs_NtNtCs4Tkd3OJeaSh_10vectorizer6config15enhanced_configNtB4_15ValidationRulesNtNtCs9Kp62OsN3pY_4core7default7Default7default
FNF:35
FNH:14
DA:147,3
DA:148,3
DA:149,3
DA:150,3
DA:151,3
DA:152,3
DA:153,3
DA:154,3
DA:155,3
DA:156,3
DA:159,2
DA:160,2
DA:161,2
DA:162,2
DA:165,2
DA:168,2
DA:169,2
DA:172,2
DA:175,2
DA:176,2
DA:177,2
DA:178,2
DA:181,2
DA:182,2
DA:183,2
DA:184,2
DA:186,2
DA:187,0
DA:190,2
DA:191,2
DA:194,0
DA:195,0
DA:196,0
DA:197,0
DA:199,0
DA:200,0
DA:201,0
DA:203,0
DA:204,0
DA:205,0
DA:208,2
DA:209,2
DA:210,2
DA:213,0
DA:214,0
DA:215,0
DA:217,0
DA:218,0
DA:219,0
DA:220,0
DA:221,0
DA:224,2
DA:225,2
DA:228,2
DA:230,2
DA:231,2
DA:232,2
DA:234,2
DA:235,0
DA:236,0
DA:238,0
DA:240,0
DA:242,2
DA:245,2
DA:246,2
DA:249,2
DA:251,6
DA:252,4
DA:253,0
DA:254,0
DA:255,0
DA:256,0
DA:257,0
DA:258,4
DA:262,2
DA:263,0
DA:267,2
DA:268,0
DA:269,0
DA:270,0
DA:271,0
DA:272,0
DA:273,0
DA:274,0
DA:277,2
DA:278,2
DA:281,4
DA:284,4
DA:285,4
DA:288,0
DA:289,0
DA:290,0
DA:291,0
DA:292,0
DA:293,0
DA:296,0
DA:297,0
DA:300,0
DA:301,0
DA:302,0
DA:303,0
DA:304,0
DA:305,0
DA:307,0
DA:308,0
DA:310,0
DA:313,0
DA:314,0
DA:315,0
DA:316,0
DA:318,0
DA:319,0
DA:321,0
DA:322,0
DA:324,0
DA:325,0
DA:326,0
DA:327,0
DA:328,0
DA:330,0
DA:331,0
DA:332,0
DA:333,0
DA:334,0
DA:335,0
DA:336,0
DA:337,0
DA:338,0
DA:339,0
DA:340,0
DA:343,0
DA:344,0
DA:345,0
DA:346,0
DA:347,0
DA:348,0
DA:349,0
DA:352,0
DA:355,0
DA:356,0
DA:357,0
DA:359,0
DA:360,0
DA:361,0
DA:363,0
DA:364,0
DA:365,0
DA:367,0
DA:369,0
DA:371,0
DA:374,0
DA:375,0
DA:378,0
DA:380,0
DA:381,0
DA:382,0
DA:385,0
DA:386,0
DA:387,0
DA:388,0
DA:391,0
DA:392,0
DA:395,0
DA:396,0
DA:397,0
DA:398,0
DA:399,0
DA:400,0
DA:403,0
DA:404,0
DA:406,0
DA:410,0
DA:414,0
DA:417,0
DA:418,0
DA:419,0
DA:420,0
DA:422,0
DA:423,0
DA:426,0
DA:427,0
DA:428,0
DA:429,0
DA:430,0
DA:431,0
DA:432,0
DA:434,0
DA:435,0
DA:436,0
DA:437,0
DA:438,0
DA:439,0
DA:440,0
DA:441,0
DA:442,0
DA:443,0
DA:444,0
DA:445,0
DA:446,0
DA:447,0
DA:448,0
DA:449,0
DA:450,0
DA:451,0
DA:454,0
DA:455,0
DA:456,0
DA:459,0
DA:460,0
DA:461,0
DA:464,0
DA:465,0
DA:466,0
DA:468,0
DA:469,0
DA:470,0
DA:471,0
DA:472,0
DA:476,0
DA:477,0
DA:478,0
DA:479,0
DA:480,0
DA:481,0
DA:484,0
DA:485,0
DA:486,0
DA:487,0
DA:488,0
DA:489,0
DA:493,0
DA:494,0
DA:497,1
DA:498,1
DA:499,1
DA:502,1
DA:503,1
DA:504,1
DA:505,1
DA:507,1
DA:508,1
DA:509,1
DA:513,1
DA:514,1
DA:515,1
DA:517,1
DA:518,1
DA:519,1
DA:521,1
DA:522,1
DA:523,1
DA:527,1
DA:528,1
DA:529,1
DA:531,1
DA:532,1
DA:533,1
DA:535,1
DA:536,1
DA:537,1
DA:541,1
DA:542,1
DA:543,1
DA:545,1
DA:546,1
DA:547,1
DA:549,1
DA:550,1
DA:551,1
DA:554,1
DA:555,1
DA:558,0
DA:559,0
DA:561,0
DA:563,0
DA:564,0
DA:567,0
DA:568,0
DA:571,0
DA:572,0
DA:575,0
DA:576,0
DA:577,0
DA:578,0
DA:579,0
DA:580,0
DA:581,0
DA:585,0
DA:586,0
DA:599,3
DA:600,3
DA:601,3
DA:602,3
DA:603,3
DA:604,3
DA:605,3
DA:606,3
DA:607,3
DA:608,3
DA:612,0
DA:613,0
DA:614,0
DA:615,0
DA:616,0
DA:617,0
DA:618,0
DA:619,0
DA:629,1
DA:630,1
DA:631,1
DA:633,1
DA:634,1
DA:635,1
DA:636,1
DA:637,1
DA:638,1
DA:639,1
DA:640,1
DA:641,1
DA:642,1
DA:643,1
DA:644,1
DA:645,1
DA:646,1
DA:647,1
DA:648,1
DA:649,1
DA:650,1
DA:651,1
DA:652,1
DA:653,1
DA:654,1
DA:655,1
DA:656,1
DA:657,1
DA:658,1
DA:659,1
DA:660,1
DA:661,1
DA:662,1
DA:663,1
DA:664,1
DA:665,1
DA:666,1
DA:667,1
DA:668,1
DA:669,1
DA:670,1
DA:671,1
DA:672,1
DA:673,1
DA:674,1
DA:675,1
DA:676,1
DA:677,1
DA:678,1
DA:679,1
DA:680,1
DA:681,1
DA:682,1
DA:683,1
DA:684,1
DA:685,1
DA:686,1
DA:687,1
DA:688,1
DA:689,1
DA:690,1
DA:691,1
DA:692,1
DA:693,1
DA:694,1
DA:695,1
DA:696,1
DA:697,1
DA:698,1
DA:699,1
DA:700,1
DA:701,1
DA:702,1
DA:703,1
DA:704,1
DA:705,1
DA:706,1
DA:707,1
DA:708,1
DA:709,1
DA:711,1
DA:713,1
DA:714,1
DA:716,1
DA:717,1
DA:718,1
DA:719,1
DA:722,1
DA:723,1
DA:724,1
DA:725,1
DA:726,1
DA:728,1
DA:729,1
DA:731,1
DA:732,1
DA:733,1
DA:734,1
DA:735,1
DA:736,1
DA:737,1
DA:738,1
DA:739,1
DA:740,1
DA:741,1
DA:742,1
DA:743,1
DA:744,1
DA:745,1
DA:746,1
DA:747,1
DA:748,1
DA:749,1
DA:750,1
DA:751,1
DA:752,1
DA:753,1
DA:754,1
DA:755,1
DA:756,1
DA:757,1
DA:758,1
DA:759,1
DA:760,1
DA:761,1
DA:762,1
DA:763,1
DA:764,1
DA:765,1
DA:766,1
DA:767,1
DA:768,1
DA:769,1
DA:770,1
DA:771,1
DA:772,1
DA:773,1
DA:774,1
DA:775,1
DA:776,1
DA:777,1
DA:778,1
DA:779,1
DA:780,1
DA:781,1
DA:782,1
DA:783,1
DA:784,1
DA:785,1
DA:786,1
DA:787,1
DA:788,1
DA:789,1
DA:790,1
DA:791,1
DA:792,1
DA:793,1
DA:794,1
DA:795,1
DA:796,1
DA:797,1
DA:798,1
DA:799,1
DA:800,1
DA:801,1
DA:802,1
DA:803,1
DA:804,1
DA:805,1
DA:806,1
DA:807,1
DA:809,1
DA:811,1
DA:812,1
DA:814,1
DA:815,1
DA:816,1
DA:817,1
DA:820,1
DA:821,1
DA:822,1
DA:824,1
DA:825,1
DA:826,1
DA:827,1
DA:828,1
BRF:0
BRH:0
LF:511
LH:293
end_of_record
SF:/mnt/f/Node/hivellm/vectorizer/src/config/file_watcher.rs
FN:65,_RNCNCNvMs_NtNtCs1YuMAXYbbDa_10vectorizer6config12file_watcherNtB8_21FileWatcherYamlConfig22to_file_watcher_config00Bc_
FN:65,_RNCNvMs_NtNtCs1YuMAXYbbDa_10vectorizer6config12file_watcherNtB6_21FileWatcherYamlConfig22to_file_watcher_config0Ba_
FN:79,_RNCNvMs_NtNtCs1YuMAXYbbDa_10vectorizer6config12file_watcherNtB6_21FileWatcherYamlConfig22to_file_watcher_configs0_0Ba_
FN:104,_RNCNvMs_NtNtCs1YuMAXYbbDa_10vectorizer6config12file_watcherNtB6_21FileWatcherYamlConfig22to_file_watcher_configs1_0Ba_
FN:66,_RNCNvMs_NtNtCs1YuMAXYbbDa_10vectorizer6config12file_watcherNtB6_21FileWatcherYamlConfig22to_file_watcher_configs_0Ba_
FN:60,_RNvMs_NtNtCs1YuMAXYbbDa_10vectorizer6config12file_watcherNtB4_21FileWatcherYamlConfig22to_file_watcher_config
FN:33,_RNvXNtNtCs1YuMAXYbbDa_10vectorizer6config12file_watcherNtB2_21FileWatcherYamlConfigNtNtCs9Kp62OsN3pY_4core7default7Default7default
FN:65,_RNCNCNvMs_NtNtCs4Tkd3OJeaSh_10vectorizer6config12file_watcherNtB8_21FileWatcherYamlConfig22to_file_watcher_config00Bc_
FN:65,_RNCNvMs_NtNtCs4Tkd3OJeaSh_10vectorizer6config12file_watcherNtB6_21FileWatcherYamlConfig22to_file_watcher_config0Ba_
FN:79,_RNCNvMs_NtNtCs4Tkd3OJeaSh_10vectorizer6config12file_watcherNtB6_21FileWatcherYamlConfig22to_file_watcher_configs0_0Ba_
FN:104,_RNCNvMs_NtNtCs4Tkd3OJeaSh_10vectorizer6config12file_watcherNtB6_21FileWatcherYamlConfig22to_file_watcher_configs1_0Ba_
FN:66,_RNCNvMs_NtNtCs4Tkd3OJeaSh_10vectorizer6config12file_watcherNtB6_21FileWatcherYamlConfig22to_file_watcher_configs_0Ba_
FN:60,_RNvMs_NtNtCs4Tkd3OJeaSh_10vectorizer6config12file_watcherNtB4_21FileWatcherYamlConfig22to_file_watcher_config
FN:33,_RNvXNtNtCs4Tkd3OJeaSh_10vectorizer6config12file_watcherNtB2_21FileWatcherYamlConfigNtNtCs9Kp62OsN3pY_4core7default7Default7default
FNDA:0,_RNCNCNvMs_NtNtCs1YuMAXYbbDa_10vectorizer6config12file_watcherNtB8_21FileWatcherYamlConfig22to_file_watcher_config00Bc_
FNDA:0,_RNCNvMs_NtNtCs1YuMAXYbbDa_10vectorizer6config12file_watcherNtB6_21FileWatcherYamlConfig22to_file_watcher_config0Ba_
FNDA:0,_RNCNvMs_NtNtCs1YuMAXYbbDa_10vectorizer6config12file_watcherNtB6_21FileWatcherYamlConfig22to_file_watcher_configs0_0Ba_
FNDA:0,_RNCNvMs_NtNtCs1YuMAXYbbDa_10vectorizer6config12file_watcherNtB6_21FileWatcherYamlConfig22to_file_watcher_configs1_0Ba_
FNDA:0,_RNCNvMs_NtNtCs1YuMAXYbbDa_10vectorizer6config12file_watcherNtB6_21FileWatcherYamlConfig22to_file_watcher_configs_0Ba_
FNDA:0,_RNvMs_NtNtCs1YuMAXYbbDa_10vectorizer6config12file_watcherNtB4_21FileWatcherYamlConfig22to_file_watcher_config
FNDA:0,_RNvXNtNtCs1YuMAXYbbDa_10vectorizer6config12file_watcherNtB2_21FileWatcherYamlConfigNtNtCs9Kp62OsN3pY_4core7default7Default7default
FNDA:0,_RNCNCNvMs_NtNtCs4Tkd3OJeaSh_10vectorizer6config12file_watcherNtB8_21FileWatcherYamlConfig22to_file_watcher_config00Bc_
FNDA:0,_RNCNvMs_NtNtCs4Tkd3OJeaSh_10vectorizer6config12file_watcherNtB6_21FileWatcherYamlConfig22to_file_watcher_config0Ba_
FNDA:0,_RNCNvMs_NtNtCs4Tkd3OJeaSh_10vectorizer6config12file_watcherNtB6_21FileWatcherYamlConfig22to_file_watcher_configs0_0Ba_
FNDA:0,_RNCNvMs_NtNtCs4Tkd3OJeaSh_10vectorizer6config12file_watcherNtB6_21FileWatcherYamlConfig22to_file_watcher_configs1_0Ba_
FNDA:0,_RNCNvMs_NtNtCs4Tkd3OJeaSh_10vectorizer6config12file_watcherNtB6_21FileWatcherYamlConfig22to_file_watcher_configs_0Ba_
FNDA:0,_RNvMs_NtNtCs4Tkd3OJeaSh_10vectorizer6config12file_watcherNtB4_21FileWatcherYamlConfig22to_file_watcher_config
FNDA:1,_RNvXNtNtCs4Tkd3OJeaSh_10vectorizer6config12file_watcherNtB2_21FileWatcherYamlConfigNtNtCs9Kp62OsN3pY_4core7default7Default7default
FNF:7
FNH:1
DA:33,1
DA:34,1
DA:35,1
DA:36,1
DA:37,1
DA:38,1
DA:39,1
DA:40,1
DA:41,1
DA:42,1
DA:43,1
DA:44,1
DA:45,1
DA:46,1
DA:47,1
DA:48,1
DA:49,1
DA:50,1
DA:51,1
DA:52,1
DA:53,1
DA:54,1
DA:55,1
DA:60,0
DA:62,0
DA:63,0
DA:64,0
DA:65,0
DA:66,0
DA:67,0
DA:68,0
DA:69,0
DA:70,0
DA:71,0
DA:72,0
DA:73,0
DA:74,0
DA:75,0
DA:76,0
DA:78,0
DA:79,0
DA:80,0
DA:81,0
DA:82,0
DA:83,0
DA:84,0
DA:85,0
DA:86,0
DA:87,0
DA:88,0
DA:89,0
DA:90,0
DA:91,0
DA:92,0
DA:93,0
DA:94,0
DA:95,0
DA:97,0
DA:98,0
DA:99,0
DA:100,0
DA:101,0
DA:102,0
DA:103,0
DA:104,0
DA:105,0
DA:110,0
DA:115,0
BRF:0
BRH:0
LF:73
LH:23
end_of_record
SF:/mnt/f/Node/hivellm/vectorizer/src/config/vectorizer.rs
FN:170,_RNvMs2_NtNtCs1YuMAXYbbDa_10vectorizer6config10vectorizerNtB5_16VectorizerConfig12to_yaml_file
FN:163,_RNvMs2_NtNtCs1YuMAXYbbDa_10vectorizer6config10vectorizerNtB5_16VectorizerConfig14from_yaml_file
FN:177,_RNvMs2_NtNtCs1YuMAXYbbDa_10vectorizer6config10vectorizerNtB5_16VectorizerConfig8from_env
FN:128,_RNvNtNtCs1YuMAXYbbDa_10vectorizer6config10vectorizer24default_max_file_size_mb
FN:124,_RNvNtNtCs1YuMAXYbbDa_10vectorizer6config10vectorizer29default_transmutation_enabled
FN:132,_RNvNtNtCs1YuMAXYbbDa_10vectorizer6config10vectorizer31default_conversion_timeout_secs
FN:44,_RNvXNtNtCs1YuMAXYbbDa_10vectorizer6config10vectorizerNtB2_12ServerConfigNtNtCs9Kp62OsN3pY_4core7default7Default7default
FN:137,_RNvXs0_NtNtCs1YuMAXYbbDa_10vectorizer6config10vectorizerNtB5_19TransmutationConfigNtNtCs9Kp62OsN3pY_4core7default7Default7default
FN:148,_RNvXs1_NtNtCs1YuMAXYbbDa_10vectorizer6config10vectorizerNtB5_16VectorizerConfigNtNtCs9Kp62OsN3pY_4core7default7Default7default
FN:67,_RNvXs_NtNtCs1YuMAXYbbDa_10vectorizer6config10vectorizerNtB4_13LoggingConfigNtNtCs9Kp62OsN3pY_4core7default7Default7default
FN:170,_RNvMs2_NtNtCs4Tkd3OJeaSh_10vectorizer6config10vectorizerNtB5_16VectorizerConfig12to_yaml_file
FN:163,_RNvMs2_NtNtCs4Tkd3OJeaSh_10vectorizer6config10vectorizerNtB5_16VectorizerConfig14from_yaml_file
FN:177,_RNvMs2_NtNtCs4Tkd3OJeaSh_10vectorizer6config10vectorizerNtB5_16VectorizerConfig8from_env
FN:128,_RNvNtNtCs4Tkd3OJeaSh_10vectorizer6config10vectorizer24default_max_file_size_mb
FN:124,_RNvNtNtCs4Tkd3OJeaSh_10vectorizer6config10vectorizer29default_transmutation_enabled
FN:132,_RNvNtNtCs4Tkd3OJeaSh_10vectorizer6config10vectorizer31default_conversion_timeout_secs
FN:44,_RNvXNtNtCs4Tkd3OJeaSh_10vectorizer6config10vectorizerNtB2_12ServerConfigNtNtCs9Kp62OsN3pY_4core7default7Default7default
FN:137,_RNvXs0_NtNtCs4Tkd3OJeaSh_10vectorizer6config10vectorizerNtB5_19TransmutationConfigNtNtCs9Kp62OsN3pY_4core7default7Default7default
FN:148,_RNvXs1_NtNtCs4Tkd3OJeaSh_10vectorizer6config10vectorizerNtB5_16VectorizerConfigNtNtCs9Kp62OsN3pY_4core7default7Default7default
FN:67,_RNvXs_NtNtCs4Tkd3OJeaSh_10vectorizer6config10vectorizerNtB4_13LoggingConfigNtNtCs9Kp62OsN3pY_4core7default7Default7default
FN:236,_RNvNtNtNtCs4Tkd3OJeaSh_10vectorizer6config10vectorizer12config_testss_32test_transmutation_config_custom
FN:214,_RNvNtNtNtCs4Tkd3OJeaSh_10vectorizer6config10vectorizer12config_testss_33test_transmutation_config_default
FN:300,_RNvNtNtNtCs4Tkd3OJeaSh_10vectorizer6config10vectorizer12config_testss_36test_transmutation_config_boundaries
FN:323,_RNvNtNtNtCs4Tkd3OJeaSh_10vectorizer6config10vectorizer12config_testss_37test_transmutation_config_yaml_format
FN:251,_RNvNtNtNtCs4Tkd3OJeaSh_10vectorizer6config10vectorizer12config_testss_39test_transmutation_config_serialization
FN:268,_RNvNtNtNtCs4Tkd3OJeaSh_10vectorizer6config10vectorizer12config_testss_41test_transmutation_config_deserialization
FN:284,_RNvNtNtNtCs4Tkd3OJeaSh_10vectorizer6config10vectorizer12config_testss_46test_transmutation_config_in_vectorizer_config
FNDA:0,_RNvMs2_NtNtCs1YuMAXYbbDa_10vectorizer6config10vectorizerNtB5_16VectorizerConfig12to_yaml_file
FNDA:0,_RNvMs2_NtNtCs1YuMAXYbbDa_10vectorizer6config10vectorizerNtB5_16VectorizerConfig14from_yaml_file
FNDA:0,_RNvMs2_NtNtCs1YuMAXYbbDa_10vectorizer6config10vectorizerNtB5_16VectorizerConfig8from_env
FNDA:0,_RNvNtNtCs1YuMAXYbbDa_10vectorizer6config10vectorizer24default_max_file_size_mb
FNDA:0,_RNvNtNtCs1YuMAXYbbDa_10vectorizer6config10vectorizer29default_transmutation_enabled
FNDA:0,_RNvNtNtCs1YuMAXYbbDa_10vectorizer6config10vectorizer31default_conversion_timeout_secs
FNDA:0,_RNvXNtNtCs1YuMAXYbbDa_10vectorizer6config10vectorizerNtB2_12ServerConfigNtNtCs9Kp62OsN3pY_4core7default7Default7default
FNDA:0,_RNvXs0_NtNtCs1YuMAXYbbDa_10vectorizer6config10vectorizerNtB5_19TransmutationConfigNtNtCs9Kp62OsN3pY_4core7default7Default7default
FNDA:0,_RNvXs1_NtNtCs1YuMAXYbbDa_10vectorizer6config10vectorizerNtB5_16VectorizerConfigNtNtCs9Kp62OsN3pY_4core7default7Default7default
FNDA:0,_RNvXs_NtNtCs1YuMAXYbbDa_10vectorizer6config10vectorizerNtB4_13LoggingConfigNtNtCs9Kp62OsN3pY_4core7default7Default7default
FNDA:0,_RNvMs2_NtNtCs4Tkd3OJeaSh_10vectorizer6config10vectorizerNtB5_16VectorizerConfig12to_yaml_file
FNDA:0,_RNvMs2_NtNtCs4Tkd3OJeaSh_10vectorizer6config10vectorizerNtB5_16VectorizerConfig14from_yaml_file
FNDA:0,_RNvMs2_NtNtCs4Tkd3OJeaSh_10vectorizer6config10vectorizerNtB5_16VectorizerConfig8from_env
FNDA:2,_RNvNtNtCs4Tkd3OJeaSh_10vectorizer6config10vectorizer24default_max_file_size_mb
FNDA:2,_RNvNtNtCs4Tkd3OJeaSh_10vectorizer6config10vectorizer29default_transmutation_enabled
FNDA:2,_RNvNtNtCs4Tkd3OJeaSh_10vectorizer6config10vectorizer31default_conversion_timeout_secs
FNDA:1,_RNvXNtNtCs4Tkd3OJeaSh_10vectorizer6config10vectorizerNtB2_12ServerConfigNtNtCs9Kp62OsN3pY_4core7default7Default7default
FNDA:2,_RNvXs0_NtNtCs4Tkd3OJeaSh_10vectorizer6config10vectorizerNtB5_19TransmutationConfigNtNtCs9Kp62OsN3pY_4core7default7Default7default
FNDA:1,_RNvXs1_NtNtCs4Tkd3OJeaSh_10vectorizer6config10vectorizerNtB5_16VectorizerConfigNtNtCs9Kp62OsN3pY_4core7default7Default7default
FNDA:1,_RNvXs_NtNtCs4Tkd3OJeaSh_10vectorizer6config10vectorizerNtB4_13LoggingConfigNtNtCs9Kp62OsN3pY_4core7default7Default7default
FNDA:1,_RNvNtNtNtCs4Tkd3OJeaSh_10vectorizer6config10vectorizer12config_testss_32test_transmutation_config_custom
FNDA:1,_RNvNtNtNtCs4Tkd3OJeaSh_10vectorizer6config10vectorizer12config_testss_33test_transmutation_config_default
FNDA:1,_RNvNtNtNtCs4Tkd3OJeaSh_10vectorizer6config10vectorizer12config_testss_36test_transmutation_config_boundaries
FNDA:1,_RNvNtNtNtCs4Tkd3OJeaSh_10vectorizer6config10vectorizer12config_testss_37test_transmutation_config_yaml_format
FNDA:1,_RNvNtNtNtCs4Tkd3OJeaSh_10vectorizer6config10vectorizer12config_testss_39test_transmutation_config_serialization
FNDA:1,_RNvNtNtNtCs4Tkd3OJeaSh_10vectorizer6config10vectorizer12config_testss_41test_transmutation_config_deserialization
FNDA:1,_RNvNtNtNtCs4Tkd3OJeaSh_10vectorizer6config10vectorizer12config_testss_46test_transmutation_config_in_vectorizer_config
FNF:17
FNH:14
DA:44,1
DA:45,1
DA:46,1
DA:47,1
DA:48,1
DA:49,1
DA:50,1
DA:67,1
DA:68,1
DA:69,1
DA:70,1
DA:71,1
DA:72,1
DA:73,1
DA:74,1
DA:124,2
DA:125,2
DA:126,2
DA:128,2
DA:129,2
DA:130,2
DA:132,2
DA:133,2
DA:134,2
DA:137,2
DA:138,2
DA:139,2
DA:140,2
DA:141,2
DA:142,2
DA:143,2
DA:144,2
DA:148,1
DA:149,1
DA:150,1
DA:151,1
DA:152,1
DA:153,1
DA:154,1
DA:155,1
DA:156,1
DA:157,1
DA:158,1
DA:163,0
DA:164,0
DA:165,0
DA:166,0
DA:167,0
DA:170,0
DA:171,0
DA:172,0
DA:173,0
DA:174,0
DA:177,0
DA:178,0
DA:181,0
DA:182,0
DA:183,0
DA:185,0
DA:186,0
DA:187,0
DA:188,0
DA:189,0
DA:191,0
DA:192,0
DA:193,0
DA:194,0
DA:195,0
DA:197,0
DA:198,0
DA:199,0
DA:201,0
DA:202,0
DA:214,1
DA:215,1
DA:224,1
DA:225,1
DA:226,0
DA:230,1
DA:231,1
DA:232,1
DA:233,1
DA:236,1
DA:237,1
DA:238,1
DA:239,1
DA:240,1
DA:241,1
DA:242,1
DA:244,1
DA:245,1
DA:246,1
DA:247,1
DA:248,1
DA:251,1
DA:252,1
DA:253,1
DA:254,1
DA:255,1
DA:256,1
DA:257,1
DA:260,1
DA:261,1
DA:262,1
DA:263,1
DA:264,1
DA:265,1
DA:268,1
DA:269,1
DA:270,1
DA:271,1
DA:272,1
DA:273,1
DA:274,1
DA:276,1
DA:277,1
DA:278,1
DA:279,1
DA:280,1
DA:281,1
DA:284,1
DA:285,1
DA:295,1
DA:297,1
DA:300,1
DA:302,1
DA:303,1
DA:304,1
DA:305,1
DA:306,1
DA:307,1
DA:308,1
DA:309,1
DA:312,1
DA:313,1
DA:314,1
DA:315,1
DA:316,1
DA:317,1
DA:318,1
DA:319,1
DA:320,1
DA:323,1
DA:324,1
DA:325,1
DA:326,1
DA:327,1
DA:328,1
DA:329,1
DA:332,1
DA:333,1
DA:334,1
DA:337,1
DA:338,1
DA:339,1
DA:340,1
BRF:0
BRH:0
LF:156
LH:125
end_of_record
SF:/mnt/f/Node/hivellm/vectorizer/src/db/auto_save.rs
FN:181,_RNCNvMNtNtCs1YuMAXYbbDa_10vectorizer2db9auto_saveNtB4_15AutoSaveManager10force_save0B8_
FN:215,_RNCNvMNtNtCs1YuMAXYbbDa_10vectorizer2db9auto_saveNtB4_15AutoSaveManager20time_since_last_save0B8_
FN:93,_RNCNvMNtNtCs1YuMAXYbbDa_10vectorizer2db9auto_saveNtB4_15AutoSaveManager5start0B8_
FN:181,_RNvMNtNtCs1YuMAXYbbDa_10vectorizer2db9auto_saveNtB2_15AutoSaveManager10force_save
FN:176,_RNvMNtNtCs1YuMAXYbbDa_10vectorizer2db9auto_saveNtB2_15AutoSaveManager12mark_changed
FN:221,_RNvMNtNtCs1YuMAXYbbDa_10vectorizer2db9auto_saveNtB2_15AutoSaveManager19has_pending_changes
FN:215,_RNvMNtNtCs1YuMAXYbbDa_10vectorizer2db9auto_saveNtB2_15AutoSaveManager20time_since_last_save
FN:53,_RNvMNtNtCs1YuMAXYbbDa_10vectorizer2db9auto_saveNtB2_15AutoSaveManager3new
FN:75,_RNvMNtNtCs1YuMAXYbbDa_10vectorizer2db9auto_saveNtB2_15AutoSaveManager5start
FN:209,_RNvMNtNtCs1YuMAXYbbDa_10vectorizer2db9auto_saveNtB2_15AutoSaveManager8shutdown
FN:227,_RNvXs_NtNtCs1YuMAXYbbDa_10vectorizer2db9auto_saveNtB4_15AutoSaveManagerNtNtNtCs9Kp62OsN3pY_4core3ops4drop4Drop4drop
FN:181,_RNCNvMNtNtCs4Tkd3OJeaSh_10vectorizer2db9auto_saveNtB4_15AutoSaveManager10force_save0B8_
FN:93,_RNCNvMNtNtCs4Tkd3OJeaSh_10vectorizer2db9auto_saveNtB4_15AutoSaveManager5start0B8_
FN:181,_RNvMNtNtCs4Tkd3OJeaSh_10vectorizer2db9auto_saveNtB2_15AutoSaveManager10force_save
FN:75,_RNvMNtNtCs4Tkd3OJeaSh_10vectorizer2db9auto_saveNtB2_15AutoSaveManager5start
FN:176,_RNvMNtNtCs4Tkd3OJeaSh_10vectorizer2db9auto_saveNtB2_15AutoSaveManager12mark_changed
FN:221,_RNvMNtNtCs4Tkd3OJeaSh_10vectorizer2db9auto_saveNtB2_15AutoSaveManager19has_pending_changes
FN:215,_RNvMNtNtCs4Tkd3OJeaSh_10vectorizer2db9auto_saveNtB2_15AutoSaveManager20time_since_last_save
FN:53,_RNvMNtNtCs4Tkd3OJeaSh_10vectorizer2db9auto_saveNtB2_15AutoSaveManager3new
FN:209,_RNvMNtNtCs4Tkd3OJeaSh_10vectorizer2db9auto_saveNtB2_15AutoSaveManager8shutdown
FN:215,_RNCNvMNtNtCs4Tkd3OJeaSh_10vectorizer2db9auto_saveNtB4_15AutoSaveManager20time_since_last_save0B8_
FN:251,_RNvNtNtNtCs4Tkd3OJeaSh_10vectorizer2db9auto_save5testss_17test_mark_changed
FN:262,_RNvNtNtNtCs4Tkd3OJeaSh_10vectorizer2db9auto_save5testss_25test_time_since_last_save
FN:241,_RNvNtNtNtCs4Tkd3OJeaSh_10vectorizer2db9auto_save5testss_31test_auto_save_manager_creation
FN:227,_RNvXs_NtNtCs4Tkd3OJeaSh_10vectorizer2db9auto_saveNtB4_15AutoSaveManagerNtNtNtCs9Kp62OsN3pY_4core3ops4drop4Drop4drop
FN:251,_RNCNvNtNtNtCs4Tkd3OJeaSh_10vectorizer2db9auto_save5testss_17test_mark_changed0B9_
FN:262,_RNCNvNtNtNtCs4Tkd3OJeaSh_10vectorizer2db9auto_save5testss_25test_time_since_last_save0B9_
FN:241,_RNCNvNtNtNtCs4Tkd3OJeaSh_10vectorizer2db9auto_save5testss_31test_auto_save_manager_creation0B9_
FN:181,_RNCNvMNtNtCs1YuMAXYbbDa_10vectorizer2db9auto_saveNtB4_15AutoSaveManager10force_save0Cs6aCSoG4ikjA_10vectorizer
FNDA:0,_RNCNvMNtNtCs1YuMAXYbbDa_10vectorizer2db9auto_saveNtB4_15AutoSaveManager10force_save0B8_
FNDA:0,_RNCNvMNtNtCs1YuMAXYbbDa_10vectorizer2db9auto_saveNtB4_15AutoSaveManager20time_since_last_save0B8_
FNDA:0,_RNCNvMNtNtCs1YuMAXYbbDa_10vectorizer2db9auto_saveNtB4_15AutoSaveManager5start0B8_
FNDA:0,_RNvMNtNtCs1YuMAXYbbDa_10vectorizer2db9auto_saveNtB2_15AutoSaveManager10force_save
FNDA:0,_RNvMNtNtCs1YuMAXYbbDa_10vectorizer2db9auto_saveNtB2_15AutoSaveManager12mark_changed
FNDA:0,_RNvMNtNtCs1YuMAXYbbDa_10vectorizer2db9auto_saveNtB2_15AutoSaveManager19has_pending_changes
FNDA:0,_RNvMNtNtCs1YuMAXYbbDa_10vectorizer2db9auto_saveNtB2_15AutoSaveManager20time_since_last_save
FNDA:0,_RNvMNtNtCs1YuMAXYbbDa_10vectorizer2db9auto_saveNtB2_15AutoSaveManager3new
FNDA:0,_RNvMNtNtCs1YuMAXYbbDa_10vectorizer2db9auto_saveNtB2_15AutoSaveManager5start
FNDA:0,_RNvMNtNtCs1YuMAXYbbDa_10vectorizer2db9auto_saveNtB2_15AutoSaveManager8shutdown
FNDA:0,_RNvXs_NtNtCs1YuMAXYbbDa_10vectorizer2db9auto_saveNtB4_15AutoSaveManagerNtNtNtCs9Kp62OsN3pY_4core3ops4drop4Drop4drop
FNDA:0,_RNCNvMNtNtCs4Tkd3OJeaSh_10vectorizer2db9auto_saveNtB4_15AutoSaveManager10force_save0B8_
FNDA:0,_RNCNvMNtNtCs4Tkd3OJeaSh_10vectorizer2db9auto_saveNtB4_15AutoSaveManager5start0B8_
FNDA:0,_RNvMNtNtCs4Tkd3OJeaSh_10vectorizer2db9auto_saveNtB2_15AutoSaveManager10force_save
FNDA:0,_RNvMNtNtCs4Tkd3OJeaSh_10vectorizer2db9auto_saveNtB2_15AutoSaveManager5start
FNDA:1,_RNvMNtNtCs4Tkd3OJeaSh_10vectorizer2db9auto_saveNtB2_15AutoSaveManager12mark_changed
FNDA:3,_RNvMNtNtCs4Tkd3OJeaSh_10vectorizer2db9auto_saveNtB2_15AutoSaveManager19has_pending_changes
FNDA:1,_RNvMNtNtCs4Tkd3OJeaSh_10vectorizer2db9auto_saveNtB2_15AutoSaveManager20time_since_last_save
FNDA:3,_RNvMNtNtCs4Tkd3OJeaSh_10vectorizer2db9auto_saveNtB2_15AutoSaveManager3new
FNDA:3,_RNvMNtNtCs4Tkd3OJeaSh_10vectorizer2db9auto_saveNtB2_15AutoSaveManager8shutdown
FNDA:1,_RNCNvMNtNtCs4Tkd3OJeaSh_10vectorizer2db9auto_saveNtB4_15AutoSaveManager20time_since_last_save0B8_
FNDA:1,_RNvNtNtNtCs4Tkd3OJeaSh_10vectorizer2db9auto_save5testss_17test_mark_changed
FNDA:1,_RNvNtNtNtCs4Tkd3OJeaSh_10vectorizer2db9auto_save5testss_25test_time_since_last_save
FNDA:1,_RNvNtNtNtCs4Tkd3OJeaSh_10vectorizer2db9auto_save5testss_31test_auto_save_manager_creation
FNDA:3,_RNvXs_NtNtCs4Tkd3OJeaSh_10vectorizer2db9auto_saveNtB4_15AutoSaveManagerNtNtNtCs9Kp62OsN3pY_4core3ops4drop4Drop4drop
FNDA:1,_RNCNvNtNtNtCs4Tkd3OJeaSh_10vectorizer2db9auto_save5testss_17test_mark_changed0B9_
FNDA:1,_RNCNvNtNtNtCs4Tkd3OJeaSh_10vectorizer2db9auto_save5testss_25test_time_since_last_save0B9_
FNDA:1,_RNCNvNtNtNtCs4Tkd3OJeaSh_10vectorizer2db9auto_save5testss_31test_auto_save_manager_creation0B9_
FNDA:0,_RNCNvMNtNtCs1YuMAXYbbDa_10vectorizer2db9auto_saveNtB4_15AutoSaveManager10force_save0Cs6aCSoG4ikjA_10vectorizer
FNF:17
FNH:13
DA:53,3
DA:54,3
DA:55,3
DA:58,3
DA:59,3
DA:61,3
DA:62,3
DA:63,3
DA:64,3
DA:65,3
DA:66,3
DA:67,3
DA:68,3
DA:69,3
DA:70,3
DA:71,3
DA:72,3
DA:75,0
DA:76,0
DA:77,0
DA:78,0
DA:79,0
DA:80,0
DA:81,0
DA:82,0
DA:83,0
DA:84,0
DA:86,0
DA:87,0
DA:88,0
DA:89,0
DA:90,0
DA:93,0
DA:96,0
DA:97,0
DA:98,0
DA:99,0
DA:102,0
DA:105,0
DA:106,0
DA:107,0
DA:110,0
DA:111,0
DA:112,0
DA:113,0
DA:117,0
DA:118,0
DA:119,0
DA:120,0
DA:121,0
DA:122,0
DA:125,0
DA:126,0
DA:129,0
DA:131,0
DA:132,0
DA:133,0
DA:136,0
DA:139,0
DA:140,0
DA:141,0
DA:144,0
DA:145,0
DA:146,0
DA:147,0
DA:150,0
DA:151,0
DA:152,0
DA:153,0
DA:154,0
DA:155,0
DA:157,0
DA:161,0
DA:162,0
DA:164,0
DA:165,0
DA:168,0
DA:171,0
DA:172,0
DA:173,0
DA:176,1
DA:177,1
DA:178,1
DA:181,0
DA:182,0
DA:184,0
DA:185,0
DA:187,0
DA:188,0
DA:189,0
DA:190,0
DA:193,0
DA:194,0
DA:197,0
DA:199,0
DA:201,0
DA:202,0
DA:203,0
DA:206,0
DA:209,3
DA:210,3
DA:211,3
DA:212,3
DA:215,1
DA:216,1
DA:217,1
DA:218,1
DA:221,3
DA:222,3
DA:223,3
DA:227,3
DA:228,3
DA:229,3
DA:241,1
DA:242,1
DA:243,1
DA:245,1
DA:246,1
DA:247,1
DA:248,1
DA:251,1
DA:252,1
DA:253,1
DA:255,1
DA:257,1
DA:258,1
DA:259,1
DA:262,1
DA:263,1
DA:264,1
DA:266,1
DA:268,1
DA:269,1
DA:270,1
BRF:0
BRH:0
LF:143
LH:62
end_of_record
SF:/mnt/f/Node/hivellm/vectorizer/src/db/collection.rs
FN:784,_RINvMNtNtCs1YuMAXYbbDa_10vectorizer2db10collectionNtB3_10Collection15dump_hnsw_indexpEB7_
FN:910,_RINvMNtNtCs1YuMAXYbbDa_10vectorizer2db10collectionNtB3_10Collection25dump_hnsw_index_for_cachepEB7_
FN:917,_RNCINvMNtNtCs1YuMAXYbbDa_10vectorizer2db10collectionNtB5_10Collection25dump_hnsw_index_for_cachepE0B9_
FN:433,_RNvMNtNtCs1YuMAXYbbDa_10vectorizer2db10collectionNtB2_10Collection15quantize_vector
FN:449,_RNvMNtNtCs1YuMAXYbbDa_10vectorizer2db10collectionNtB2_10Collection17dequantize_vector
FN:791,_RINvMNtNtCs1YuMAXYbbDa_10vectorizer2db10collectionNtB3_10Collection25load_hnsw_index_from_dumpRNtNtCslLCvXJZBaqX_3std4path4PathEB7_
FN:771,_RNCNCNvMNtNtCs1YuMAXYbbDa_10vectorizer2db10collectionNtB6_10Collection15get_all_vectors00Ba_
FN:287,_RNCNvMNtNtCs1YuMAXYbbDa_10vectorizer2db10collectionNtB4_10Collection10get_vector0B8_
FN:307,_RNCNvMNtNtCs1YuMAXYbbDa_10vectorizer2db10collectionNtB4_10Collection10get_vectors_0B8_
FN:892,_RNCNvMNtNtCs1YuMAXYbbDa_10vectorizer2db10collectionNtB4_10Collection13get_size_info0B8_
FN:771,_RNCNvMNtNtCs1YuMAXYbbDa_10vectorizer2db10collectionNtB4_10Collection15get_all_vectors0B8_
FN:778,_RNCNvMNtNtCs1YuMAXYbbDa_10vectorizer2db10collectionNtB4_10Collection15get_all_vectorss_0B8_
FN:407,_RNCNvMNtNtCs1YuMAXYbbDa_10vectorizer2db10collectionNtB4_10Collection27requantize_existing_vectors0B8_
FN:259,_RNCNvMNtNtCs1YuMAXYbbDa_10vectorizer2db10collectionNtB4_10Collection6delete0B8_
FN:364,_RNCNvMNtNtCs1YuMAXYbbDa_10vectorizer2db10collectionNtB4_10Collection6search0B8_
FN:275,_RNvMNtNtCs1YuMAXYbbDa_10vectorizer2db10collectionNtB2_10Collection10get_vector
FN:120,_RNvMNtNtCs1YuMAXYbbDa_10vectorizer2db10collectionNtB2_10Collection12insert_batch
FN:378,_RNvMNtNtCs1YuMAXYbbDa_10vectorizer2db10collectionNtB2_10Collection12vector_count
FN:889,_RNvMNtNtCs1YuMAXYbbDa_10vectorizer2db10collectionNtB2_10Collection13get_size_info
FN:760,_RNvMNtNtCs1YuMAXYbbDa_10vectorizer2db10collectionNtB2_10Collection15get_all_vectors
FN:528,_RNvMNtNtCs1YuMAXYbbDa_10vectorizer2db10collectionNtB2_10Collection15load_from_cache
FN:684,_RNvMNtNtCs1YuMAXYbbDa_10vectorizer2db10collectionNtB2_10Collection17fast_load_vectors
FN:110,_RNvMNtNtCs1YuMAXYbbDa_10vectorizer2db10collectionNtB2_10Collection18get_embedding_type
FN:115,_RNvMNtNtCs1YuMAXYbbDa_10vectorizer2db10collectionNtB2_10Collection18set_embedding_type
FN:800,_RNvMNtNtCs1YuMAXYbbDa_10vectorizer2db10collectionNtB2_10Collection22calculate_memory_usage
FN:464,_RNvMNtNtCs1YuMAXYbbDa_10vectorizer2db10collectionNtB2_10Collection22estimated_memory_usage
FN:61,_RNvMNtNtCs1YuMAXYbbDa_10vectorizer2db10collectionNtB2_10Collection23new_with_embedding_type
FN:646,_RNvMNtNtCs1YuMAXYbbDa_10vectorizer2db10collectionNtB2_10Collection24load_vectors_into_memory
FN:385,_RNvMNtNtCs1YuMAXYbbDa_10vectorizer2db10collectionNtB2_10Collection27requantize_existing_vectors
FN:571,_RNvMNtNtCs1YuMAXYbbDa_10vectorizer2db10collectionNtB2_10Collection30load_from_cache_with_hnsw_dump
FN:56,_RNvMNtNtCs1YuMAXYbbDa_10vectorizer2db10collectionNtB2_10Collection3new
FN:46,_RNvMNtNtCs1YuMAXYbbDa_10vectorizer2db10collectionNtB2_10Collection4name
FN:51,_RNvMNtNtCs1YuMAXYbbDa_10vectorizer2db10collectionNtB2_10Collection6config
FN:238,_RNvMNtNtCs1YuMAXYbbDa_10vectorizer2db10collectionNtB2_10Collection6delete
FN:196,_RNvMNtNtCs1YuMAXYbbDa_10vectorizer2db10collectionNtB2_10Collection6insert
FN:319,_RNvMNtNtCs1YuMAXYbbDa_10vectorizer2db10collectionNtB2_10Collection6search
FN:201,_RNvMNtNtCs1YuMAXYbbDa_10vectorizer2db10collectionNtB2_10Collection6update
FN:98,_RNvMNtNtCs1YuMAXYbbDa_10vectorizer2db10collectionNtB2_10Collection8metadata
FN:784,_RINvMNtNtCs4Tkd3OJeaSh_10vectorizer2db10collectionNtB3_10Collection15dump_hnsw_indexpEB7_
FN:910,_RINvMNtNtCs4Tkd3OJeaSh_10vectorizer2db10collectionNtB3_10Collection25dump_hnsw_index_for_cachepEB7_
FN:791,_RINvMNtNtCs4Tkd3OJeaSh_10vectorizer2db10collectionNtB3_10Collection25load_hnsw_index_from_dumppEB7_
FN:917,_RNCINvMNtNtCs4Tkd3OJeaSh_10vectorizer2db10collectionNtB5_10Collection25dump_hnsw_index_for_cachepE0B9_
FN:433,_RNvMNtNtCs4Tkd3OJeaSh_10vectorizer2db10collectionNtB2_10Collection15quantize_vector
FN:449,_RNvMNtNtCs4Tkd3OJeaSh_10vectorizer2db10collectionNtB2_10Collection17dequantize_vector
FN:115,_RNvMNtNtCs4Tkd3OJeaSh_10vectorizer2db10collectionNtB2_10Collection18set_embedding_type
FN:571,_RNvMNtNtCs4Tkd3OJeaSh_10vectorizer2db10collectionNtB2_10Collection30load_from_cache_with_hnsw_dump
FN:275,_RNvMNtNtCs4Tkd3OJeaSh_10vectorizer2db10collectionNtB2_10Collection10get_vector
FN:120,_RNvMNtNtCs4Tkd3OJeaSh_10vectorizer2db10collectionNtB2_10Collection12insert_batch
FN:378,_RNvMNtNtCs4Tkd3OJeaSh_10vectorizer2db10collectionNtB2_10Collection12vector_count
FN:889,_RNvMNtNtCs4Tkd3OJeaSh_10vectorizer2db10collectionNtB2_10Collection13get_size_info
FN:760,_RNvMNtNtCs4Tkd3OJeaSh_10vectorizer2db10collectionNtB2_10Collection15get_all_vectors
FN:528,_RNvMNtNtCs4Tkd3OJeaSh_10vectorizer2db10collectionNtB2_10Collection15load_from_cache
FN:684,_RNvMNtNtCs4Tkd3OJeaSh_10vectorizer2db10collectionNtB2_10Collection17fast_load_vectors
FN:110,_RNvMNtNtCs4Tkd3OJeaSh_10vectorizer2db10collectionNtB2_10Collection18get_embedding_type
FN:800,_RNvMNtNtCs4Tkd3OJeaSh_10vectorizer2db10collectionNtB2_10Collection22calculate_memory_usage
FN:464,_RNvMNtNtCs4Tkd3OJeaSh_10vectorizer2db10collectionNtB2_10Collection22estimated_memory_usage
FN:61,_RNvMNtNtCs4Tkd3OJeaSh_10vectorizer2db10collectionNtB2_10Collection23new_with_embedding_type
FN:646,_RNvMNtNtCs4Tkd3OJeaSh_10vectorizer2db10collectionNtB2_10Collection24load_vectors_into_memory
FN:385,_RNvMNtNtCs4Tkd3OJeaSh_10vectorizer2db10collectionNtB2_10Collection27requantize_existing_vectors
FN:56,_RNvMNtNtCs4Tkd3OJeaSh_10vectorizer2db10collectionNtB2_10Collection3new
FN:46,_RNvMNtNtCs4Tkd3OJeaSh_10vectorizer2db10collectionNtB2_10Collection4name
FN:51,_RNvMNtNtCs4Tkd3OJeaSh_10vectorizer2db10collectionNtB2_10Collection6config
FN:238,_RNvMNtNtCs4Tkd3OJeaSh_10vectorizer2db10collectionNtB2_10Collection6delete
FN:196,_RNvMNtNtCs4Tkd3OJeaSh_10vectorizer2db10collectionNtB2_10Collection6insert
FN:319,_RNvMNtNtCs4Tkd3OJeaSh_10vectorizer2db10collectionNtB2_10Collection6search
FN:201,_RNvMNtNtCs4Tkd3OJeaSh_10vectorizer2db10collectionNtB2_10Collection6update
FN:98,_RNvMNtNtCs4Tkd3OJeaSh_10vectorizer2db10collectionNtB2_10Collection8metadata
FN:954,_RNvNtNtNtCs4Tkd3OJeaSh_10vectorizer2db10collection5tests22create_test_collection
FN:1013,_RNvNtNtNtCs4Tkd3OJeaSh_10vectorizer2db10collection5testss_18test_delete_vector
FN:996,_RNvNtNtNtCs4Tkd3OJeaSh_10vectorizer2db10collection5testss_18test_update_vector
FN:1223,_RNvNtNtNtCs4Tkd3OJeaSh_10vectorizer2db10collection5testss_22test_collection_delete
FN:1280,_RNvNtNtNtCs4Tkd3OJeaSh_10vectorizer2db10collection5testss_22test_collection_search
FN:1253,_RNvNtNtNtCs4Tkd3OJeaSh_10vectorizer2db10collection5testss_22test_collection_update
FN:1122,_RNvNtNtNtCs4Tkd3OJeaSh_10vectorizer2db10collection5testss_24test_collection_creation
FN:1334,_RNvNtNtNtCs4Tkd3OJeaSh_10vectorizer2db10collection5testss_24test_collection_metadata
FN:979,_RNvNtNtNtCs4Tkd3OJeaSh_10vectorizer2db10collection5testss_25test_dimension_validation
FN:1182,_RNvNtNtNtCs4Tkd3OJeaSh_10vectorizer2db10collection5testss_26test_collection_get_vector
FN:967,_RNvNtNtNtCs4Tkd3OJeaSh_10vectorizer2db10collection5testss_26test_insert_and_get_vector
FN:1159,_RNvNtNtNtCs4Tkd3OJeaSh_10vectorizer2db10collection5testss_28test_collection_insert_batch
FN:1310,_RNvNtNtNtCs4Tkd3OJeaSh_10vectorizer2db10collection5testss_28test_collection_memory_usage
FN:1518,_RNvNtNtNtCs4Tkd3OJeaSh_10vectorizer2db10collection5testss_28test_collection_search_empty
FN:1140,_RNvNtNtNtCs4Tkd3OJeaSh_10vectorizer2db10collection5testss_29test_collection_insert_single
FN:1501,_RNvNtNtNtCs4Tkd3OJeaSh_10vectorizer2db10collection5testss_30test_collection_embedding_type
FN:1605,_RNvNtNtNtCs4Tkd3OJeaSh_10vectorizer2db10collection5testss_31test_collection_get_all_vectors
FN:1206,_RNvNtNtNtCs4Tkd3OJeaSh_10vectorizer2db10collection5testss_31test_collection_get_nonexistent
FN:1628,_RNvNtNtNtCs4Tkd3OJeaSh_10vectorizer2db10collection5testss_32test_collection_metadata_updates
FN:1353,_RNvNtNtNtCs4Tkd3OJeaSh_10vectorizer2db10collection5testss_33test_collection_different_metrics
FN:1577,_RNvNtNtNtCs4Tkd3OJeaSh_10vectorizer2db10collection5testss_33test_collection_search_with_limit
FN:1539,_RNvNtNtNtCs4Tkd3OJeaSh_10vectorizer2db10collection5testss_34test_collection_concurrent_inserts
FN:1437,_RNvNtNtNtCs4Tkd3OJeaSh_10vectorizer2db10collection5testss_34test_collection_delete_nonexistent
FN:1419,_RNvNtNtNtCs4Tkd3OJeaSh_10vectorizer2db10collection5testss_34test_collection_update_nonexistent
FN:1474,_RNvNtNtNtCs4Tkd3OJeaSh_10vectorizer2db10collection5testss_35test_collection_get_all_vectors_ids
FN:1030,_RNvNtNtNtCs4Tkd3OJeaSh_10vectorizer2db10collection5testss_35test_vector_count_with_quantization
FN:1454,_RNvNtNtNtCs4Tkd3OJeaSh_10vectorizer2db10collection5testss_36test_collection_dimension_validation
FN:1392,_RNvNtNtNtCs4Tkd3OJeaSh_10vectorizer2db10collection5testss_36test_collection_with_quantization_sq
FN:1066,_RNvNtNtNtCs4Tkd3OJeaSh_10vectorizer2db10collection5testss_49test_vector_count_consistency_quantized_vs_normal
FN:771,_RNCNCNvMNtNtCs4Tkd3OJeaSh_10vectorizer2db10collectionNtB6_10Collection15get_all_vectors00Ba_
FN:287,_RNCNvMNtNtCs4Tkd3OJeaSh_10vectorizer2db10collectionNtB4_10Collection10get_vector0B8_
FN:307,_RNCNvMNtNtCs4Tkd3OJeaSh_10vectorizer2db10collectionNtB4_10Collection10get_vectors_0B8_
FN:892,_RNCNvMNtNtCs4Tkd3OJeaSh_10vectorizer2db10collectionNtB4_10Collection13get_size_info0B8_
FN:771,_RNCNvMNtNtCs4Tkd3OJeaSh_10vectorizer2db10collectionNtB4_10Collection15get_all_vectors0B8_
FN:778,_RNCNvMNtNtCs4Tkd3OJeaSh_10vectorizer2db10collectionNtB4_10Collection15get_all_vectorss_0B8_
FN:407,_RNCNvMNtNtCs4Tkd3OJeaSh_10vectorizer2db10collectionNtB4_10Collection27requantize_existing_vectors0B8_
FN:259,_RNCNvMNtNtCs4Tkd3OJeaSh_10vectorizer2db10collectionNtB4_10Collection6delete0B8_
FN:364,_RNCNvMNtNtCs4Tkd3OJeaSh_10vectorizer2db10collectionNtB4_10Collection6search0B8_
FN:1557,_RNCNvNtNtNtCs4Tkd3OJeaSh_10vectorizer2db10collection5testss_34test_collection_concurrent_inserts0B9_
FN:1495,_RNCNvNtNtNtCs4Tkd3OJeaSh_10vectorizer2db10collection5testss_35test_collection_get_all_vectors_ids0B9_
FNDA:0,_RINvMNtNtCs1YuMAXYbbDa_10vectorizer2db10collectionNtB3_10Collection15dump_hnsw_indexpEB7_
FNDA:0,_RINvMNtNtCs1YuMAXYbbDa_10vectorizer2db10collectionNtB3_10Collection25dump_hnsw_index_for_cachepEB7_
FNDA:0,_RNCINvMNtNtCs1YuMAXYbbDa_10vectorizer2db10collectionNtB5_10Collection25dump_hnsw_index_for_cachepE0B9_
FNDA:0,_RNvMNtNtCs1YuMAXYbbDa_10vectorizer2db10collectionNtB2_10Collection15quantize_vector
FNDA:0,_RNvMNtNtCs1YuMAXYbbDa_10vectorizer2db10collectionNtB2_10Collection17dequantize_vector
FNDA:0,_RINvMNtNtCs1YuMAXYbbDa_10vectorizer2db10collectionNtB3_10Collection25load_hnsw_index_from_dumpRNtNtCslLCvXJZBaqX_3std4path4PathEB7_
FNDA:0,_RNCNCNvMNtNtCs1YuMAXYbbDa_10vectorizer2db10collectionNtB6_10Collection15get_all_vectors00Ba_
FNDA:0,_RNCNvMNtNtCs1YuMAXYbbDa_10vectorizer2db10collectionNtB4_10Collection10get_vector0B8_
FNDA:0,_RNCNvMNtNtCs1YuMAXYbbDa_10vectorizer2db10collectionNtB4_10Collection10get_vectors_0B8_
FNDA:0,_RNCNvMNtNtCs1YuMAXYbbDa_10vectorizer2db10collectionNtB4_10Collection13get_size_info0B8_
FNDA:0,_RNCNvMNtNtCs1YuMAXYbbDa_10vectorizer2db10collectionNtB4_10Collection15get_all_vectors0B8_
FNDA:0,_RNCNvMNtNtCs1YuMAXYbbDa_10vectorizer2db10collectionNtB4_10Collection15get_all_vectorss_0B8_
FNDA:0,_RNCNvMNtNtCs1YuMAXYbbDa_10vectorizer2db10collectionNtB4_10Collection27requantize_existing_vectors0B8_
FNDA:0,_RNCNvMNtNtCs1YuMAXYbbDa_10vectorizer2db10collectionNtB4_10Collection6delete0B8_
FNDA:0,_RNCNvMNtNtCs1YuMAXYbbDa_10vectorizer2db10collectionNtB4_10Collection6search0B8_
FNDA:0,_RNvMNtNtCs1YuMAXYbbDa_10vectorizer2db10collectionNtB2_10Collection10get_vector
FNDA:0,_RNvMNtNtCs1YuMAXYbbDa_10vectorizer2db10collectionNtB2_10Collection12insert_batch
FNDA:1,_RNvMNtNtCs1YuMAXYbbDa_10vectorizer2db10collectionNtB2_10Collection12vector_count
FNDA:0,_RNvMNtNtCs1YuMAXYbbDa_10vectorizer2db10collectionNtB2_10Collection13get_size_info
FNDA:0,_RNvMNtNtCs1YuMAXYbbDa_10vectorizer2db10collectionNtB2_10Collection15get_all_vectors
FNDA:0,_RNvMNtNtCs1YuMAXYbbDa_10vectorizer2db10collectionNtB2_10Collection15load_from_cache
FNDA:0,_RNvMNtNtCs1YuMAXYbbDa_10vectorizer2db10collectionNtB2_10Collection17fast_load_vectors
FNDA:0,_RNvMNtNtCs1YuMAXYbbDa_10vectorizer2db10collectionNtB2_10Collection18get_embedding_type
FNDA:0,_RNvMNtNtCs1YuMAXYbbDa_10vectorizer2db10collectionNtB2_10Collection18set_embedding_type
FNDA:0,_RNvMNtNtCs1YuMAXYbbDa_10vectorizer2db10collectionNtB2_10Collection22calculate_memory_usage
FNDA:0,_RNvMNtNtCs1YuMAXYbbDa_10vectorizer2db10collectionNtB2_10Collection22estimated_memory_usage
FNDA:1,_RNvMNtNtCs1YuMAXYbbDa_10vectorizer2db10collectionNtB2_10Collection23new_with_embedding_type
FNDA:0,_RNvMNtNtCs1YuMAXYbbDa_10vectorizer2db10collectionNtB2_10Collection24load_vectors_into_memory
FNDA:0,_RNvMNtNtCs1YuMAXYbbDa_10vectorizer2db10collectionNtB2_10Collection27requantize_existing_vectors
FNDA:0,_RNvMNtNtCs1YuMAXYbbDa_10vectorizer2db10collectionNtB2_10Collection30load_from_cache_with_hnsw_dump
FNDA:1,_RNvMNtNtCs1YuMAXYbbDa_10vectorizer2db10collectionNtB2_10Collection3new
FNDA:0,_RNvMNtNtCs1YuMAXYbbDa_10vectorizer2db10collectionNtB2_10Collection4name
FNDA:1,_RNvMNtNtCs1YuMAXYbbDa_10vectorizer2db10collectionNtB2_10Collection6config
FNDA:0,_RNvMNtNtCs1YuMAXYbbDa_10vectorizer2db10collectionNtB2_10Collection6delete
FNDA:0,_RNvMNtNtCs1YuMAXYbbDa_10vectorizer2db10collectionNtB2_10Collection6insert
FNDA:0,_RNvMNtNtCs1YuMAXYbbDa_10vectorizer2db10collectionNtB2_10Collection6search
FNDA:0,_RNvMNtNtCs1YuMAXYbbDa_10vectorizer2db10collectionNtB2_10Collection6update
FNDA:1,_RNvMNtNtCs1YuMAXYbbDa_10vectorizer2db10collectionNtB2_10Collection8metadata
FNDA:0,_RINvMNtNtCs4Tkd3OJeaSh_10vectorizer2db10collectionNtB3_10Collection15dump_hnsw_indexpEB7_
FNDA:0,_RINvMNtNtCs4Tkd3OJeaSh_10vectorizer2db10collectionNtB3_10Collection25dump_hnsw_index_for_cachepEB7_
FNDA:0,_RINvMNtNtCs4Tkd3OJeaSh_10vectorizer2db10collectionNtB3_10Collection25load_hnsw_index_from_dumppEB7_
FNDA:0,_RNCINvMNtNtCs4Tkd3OJeaSh_10vectorizer2db10collectionNtB5_10Collection25dump_hnsw_index_for_cachepE0B9_
FNDA:0,_RNvMNtNtCs4Tkd3OJeaSh_10vectorizer2db10collectionNtB2_10Collection15quantize_vector
FNDA:0,_RNvMNtNtCs4Tkd3OJeaSh_10vectorizer2db10collectionNtB2_10Collection17dequantize_vector
FNDA:0,_RNvMNtNtCs4Tkd3OJeaSh_10vectorizer2db10collectionNtB2_10Collection18set_embedding_type
FNDA:0,_RNvMNtNtCs4Tkd3OJeaSh_10vectorizer2db10collectionNtB2_10Collection30load_from_cache_with_hnsw_dump
FNDA:47,_RNvMNtNtCs4Tkd3OJeaSh_10vectorizer2db10collectionNtB2_10Collection10get_vector
FNDA:479,_RNvMNtNtCs4Tkd3OJeaSh_10vectorizer2db10collectionNtB2_10Collection12insert_batch
FNDA:22,_RNvMNtNtCs4Tkd3OJeaSh_10vectorizer2db10collectionNtB2_10Collection12vector_count
FNDA:0,_RNvMNtNtCs4Tkd3OJeaSh_10vectorizer2db10collectionNtB2_10Collection13get_size_info
FNDA:6,_RNvMNtNtCs4Tkd3OJeaSh_10vectorizer2db10collectionNtB2_10Collection15get_all_vectors
FNDA:0,_RNvMNtNtCs4Tkd3OJeaSh_10vectorizer2db10collectionNtB2_10Collection15load_from_cache
FNDA:0,_RNvMNtNtCs4Tkd3OJeaSh_10vectorizer2db10collectionNtB2_10Collection17fast_load_vectors
FNDA:1,_RNvMNtNtCs4Tkd3OJeaSh_10vectorizer2db10collectionNtB2_10Collection18get_embedding_type
FNDA:1,_RNvMNtNtCs4Tkd3OJeaSh_10vectorizer2db10collectionNtB2_10Collection22calculate_memory_usage
FNDA:2,_RNvMNtNtCs4Tkd3OJeaSh_10vectorizer2db10collectionNtB2_10Collection22estimated_memory_usage
FNDA:72,_RNvMNtNtCs4Tkd3OJeaSh_10vectorizer2db10collectionNtB2_10Collection23new_with_embedding_type
FNDA:0,_RNvMNtNtCs4Tkd3OJeaSh_10vectorizer2db10collectionNtB2_10Collection24load_vectors_into_memory
FNDA:0,_RNvMNtNtCs4Tkd3OJeaSh_10vectorizer2db10collectionNtB2_10Collection27requantize_existing_vectors
FNDA:71,_RNvMNtNtCs4Tkd3OJeaSh_10vectorizer2db10collectionNtB2_10Collection3new
FNDA:3,_RNvMNtNtCs4Tkd3OJeaSh_10vectorizer2db10collectionNtB2_10Collection4name
FNDA:10,_RNvMNtNtCs4Tkd3OJeaSh_10vectorizer2db10collectionNtB2_10Collection6config
FNDA:5,_RNvMNtNtCs4Tkd3OJeaSh_10vectorizer2db10collectionNtB2_10Collection6delete
FNDA:475,_RNvMNtNtCs4Tkd3OJeaSh_10vectorizer2db10collectionNtB2_10Collection6insert
FNDA:13,_RNvMNtNtCs4Tkd3OJeaSh_10vectorizer2db10collectionNtB2_10Collection6search
FNDA:4,_RNvMNtNtCs4Tkd3OJeaSh_10vectorizer2db10collectionNtB2_10Collection6update
FNDA:11,_RNvMNtNtCs4Tkd3OJeaSh_10vectorizer2db10collectionNtB2_10Collection8metadata
FNDA:4,_RNvNtNtNtCs4Tkd3OJeaSh_10vectorizer2db10collection5tests22create_test_collection
FNDA:1,_RNvNtNtNtCs4Tkd3OJeaSh_10vectorizer2db10collection5testss_18test_delete_vector
FNDA:1,_RNvNtNtNtCs4Tkd3OJeaSh_10vectorizer2db10collection5testss_18test_update_vector
FNDA:1,_RNvNtNtNtCs4Tkd3OJeaSh_10vectorizer2db10collection5testss_22test_collection_delete
FNDA:1,_RNvNtNtNtCs4Tkd3OJeaSh_10vectorizer2db10collection5testss_22test_collection_search
FNDA:1,_RNvNtNtNtCs4Tkd3OJeaSh_10vectorizer2db10collection5testss_22test_collection_update
FNDA:1,_RNvNtNtNtCs4Tkd3OJeaSh_10vectorizer2db10collection5testss_24test_collection_creation
FNDA:1,_RNvNtNtNtCs4Tkd3OJeaSh_10vectorizer2db10collection5testss_24test_collection_metadata
FNDA:1,_RNvNtNtNtCs4Tkd3OJeaSh_10vectorizer2db10collection5testss_25test_dimension_validation
FNDA:1,_RNvNtNtNtCs4Tkd3OJeaSh_10vectorizer2db10collection5testss_26test_collection_get_vector
FNDA:1,_RNvNtNtNtCs4Tkd3OJeaSh_10vectorizer2db10collection5testss_26test_insert_and_get_vector
FNDA:1,_RNvNtNtNtCs4Tkd3OJeaSh_10vectorizer2db10collection5testss_28test_collection_insert_batch
FNDA:1,_RNvNtNtNtCs4Tkd3OJeaSh_10vectorizer2db10collection5testss_28test_collection_memory_usage
FNDA:1,_RNvNtNtNtCs4Tkd3OJeaSh_10vectorizer2db10collection5testss_28test_collection_search_empty
FNDA:1,_RNvNtNtNtCs4Tkd3OJeaSh_10vectorizer2db10collection5testss_29test_collection_insert_single
FNDA:1,_RNvNtNtNtCs4Tkd3OJeaSh_10vectorizer2db10collection5testss_30test_collection_embedding_type
FNDA:1,_RNvNtNtNtCs4Tkd3OJeaSh_10vectorizer2db10collection5testss_31test_collection_get_all_vectors
FNDA:1,_RNvNtNtNtCs4Tkd3OJeaSh_10vectorizer2db10collection5testss_31test_collection_get_nonexistent
FNDA:1,_RNvNtNtNtCs4Tkd3OJeaSh_10vectorizer2db10collection5testss_32test_collection_metadata_updates
FNDA:1,_RNvNtNtNtCs4Tkd3OJeaSh_10vectorizer2db10collection5testss_33test_collection_different_metrics
FNDA:1,_RNvNtNtNtCs4Tkd3OJeaSh_10vectorizer2db10collection5testss_33test_collection_search_with_limit
FNDA:1,_RNvNtNtNtCs4Tkd3OJeaSh_10vectorizer2db10collection5testss_34test_collection_concurrent_inserts
FNDA:1,_RNvNtNtNtCs4Tkd3OJeaSh_10vectorizer2db10collection5testss_34test_collection_delete_nonexistent
FNDA:1,_RNvNtNtNtCs4Tkd3OJeaSh_10vectorizer2db10collection5testss_34test_collection_update_nonexistent
FNDA:1,_RNvNtNtNtCs4Tkd3OJeaSh_10vectorizer2db10collection5testss_35test_collection_get_all_vectors_ids
FNDA:1,_RNvNtNtNtCs4Tkd3OJeaSh_10vectorizer2db10collection5testss_35test_vector_count_with_quantization
FNDA:1,_RNvNtNtNtCs4Tkd3OJeaSh_10vectorizer2db10collection5testss_36test_collection_dimension_validation
FNDA:1,_RNvNtNtNtCs4Tkd3OJeaSh_10vectorizer2db10collection5testss_36test_collection_with_quantization_sq
FNDA:1,_RNvNtNtNtCs4Tkd3OJeaSh_10vectorizer2db10collection5testss_49test_vector_count_consistency_quantized_vs_normal
FNDA:0,_RNCNCNvMNtNtCs4Tkd3OJeaSh_10vectorizer2db10collectionNtB6_10Collection15get_all_vectors00Ba_
FNDA:0,_RNCNvMNtNtCs4Tkd3OJeaSh_10vectorizer2db10collectionNtB4_10Collection10get_vector0B8_
FNDA:3,_RNCNvMNtNtCs4Tkd3OJeaSh_10vectorizer2db10collectionNtB4_10Collection10get_vectors_0B8_
FNDA:0,_RNCNvMNtNtCs4Tkd3OJeaSh_10vectorizer2db10collectionNtB4_10Collection13get_size_info0B8_
FNDA:0,_RNCNvMNtNtCs4Tkd3OJeaSh_10vectorizer2db10collectionNtB4_10Collection15get_all_vectors0B8_
FNDA:24,_RNCNvMNtNtCs4Tkd3OJeaSh_10vectorizer2db10collectionNtB4_10Collection15get_all_vectorss_0B8_
FNDA:0,_RNCNvMNtNtCs4Tkd3OJeaSh_10vectorizer2db10collectionNtB4_10Collection27requantize_existing_vectors0B8_
FNDA:10,_RNCNvMNtNtCs4Tkd3OJeaSh_10vectorizer2db10collectionNtB4_10Collection6delete0B8_
FNDA:15,_RNCNvMNtNtCs4Tkd3OJeaSh_10vectorizer2db10collectionNtB4_10Collection6search0B8_
FNDA:10,_RNCNvNtNtNtCs4Tkd3OJeaSh_10vectorizer2db10collection5testss_34test_collection_concurrent_inserts0B9_
FNDA:5,_RNCNvNtNtNtCs4Tkd3OJeaSh_10vectorizer2db10collection5testss_35test_collection_get_all_vectors_ids0B9_
FNF:69
FNH:51
DA:46,3
DA:47,3
DA:48,3
DA:51,11
DA:52,11
DA:53,11
DA:56,72
DA:57,72
DA:58,72
DA:61,73
DA:62,73
DA:63,73
DA:64,73
DA:65,73
DA:67,73
DA:68,73
DA:69,73
DA:70,73
DA:71,73
DA:72,73
DA:73,73
DA:74,73
DA:75,73
DA:76,73
DA:78,73
DA:79,73
DA:80,73
DA:82,73
DA:83,73
DA:84,73
DA:85,73
DA:86,73
DA:87,73
DA:88,73
DA:89,73
DA:90,73
DA:91,73
DA:92,73
DA:93,73
DA:94,73
DA:95,73
DA:98,12
DA:99,12
DA:100,12
DA:101,12
DA:102,12
DA:103,12
DA:104,12
DA:105,12
DA:106,12
DA:107,12
DA:110,1
DA:111,1
DA:112,1
DA:115,0
DA:116,0
DA:117,0
DA:120,479
DA:122,968
DA:123,491
DA:124,2
DA:125,2
DA:126,2
DA:127,2
DA:128,489
DA:132,477
DA:133,477
DA:134,477
DA:135,966
DA:136,489
DA:137,489
DA:140,489
DA:141,428
DA:142,428
DA:143,428
DA:146,489
DA:147,40
DA:148,0
DA:149,0
DA:150,0
DA:151,40
DA:152,449
DA:155,270
DA:156,489
DA:160,219
DA:161,219
DA:162,0
DA:164,0
DA:165,0
DA:167,219
DA:168,219
DA:169,219
DA:170,219
DA:174,270
DA:175,270
DA:176,270
DA:177,270
DA:180,489
DA:183,489
DA:187,477
DA:190,477
DA:192,477
DA:193,479
DA:196,475
DA:197,475
DA:198,475
DA:201,4
DA:203,4
DA:204,0
DA:205,0
DA:206,0
DA:207,0
DA:208,4
DA:210,4
DA:211,4
DA:214,4
DA:215,2
DA:216,2
DA:219,2
DA:220,1
DA:221,1
DA:222,1
DA:225,2
DA:228,2
DA:229,2
DA:232,2
DA:234,2
DA:235,4
DA:238,5
DA:240,5
DA:241,5
DA:244,2
DA:245,2
DA:246,2
DA:247,2
DA:248,2
DA:250,3
DA:253,5
DA:254,1
DA:255,4
DA:258,4
DA:259,10
DA:262,4
DA:263,4
DA:266,4
DA:269,4
DA:271,4
DA:272,5
DA:275,47
DA:277,47
DA:278,47
DA:281,0
DA:282,0
DA:283,0
DA:284,0
DA:285,0
DA:286,0
DA:287,0
DA:290,0
DA:293,0
DA:294,0
DA:295,0
DA:297,0
DA:298,47
DA:301,47
DA:302,47
DA:303,47
DA:304,47
DA:305,47
DA:306,47
DA:307,47
DA:310,44
DA:311,44
DA:312,40
DA:313,40
DA:315,44
DA:316,47
DA:319,13
DA:321,13
DA:322,0
DA:323,0
DA:324,0
DA:325,0
DA:326,13
DA:329,13
DA:330,9
DA:332,4
DA:336,13
DA:337,13
DA:340,13
DA:341,13
DA:342,13
DA:346,69
DA:347,56
DA:349,22
DA:350,22
DA:352,0
DA:356,34
DA:357,34
DA:359,0
DA:364,56
DA:366,56
DA:367,56
DA:368,56
DA:369,56
DA:370,56
DA:371,56
DA:374,13
DA:375,13
DA:378,23
DA:380,23
DA:381,23
DA:385,0
DA:388,0
DA:389,0
DA:392,0
DA:393,0
DA:397,0
DA:398,0
DA:400,0
DA:401,0
DA:402,0
DA:405,0
DA:406,0
DA:407,0
DA:408,0
DA:409,0
DA:410,0
DA:411,0
DA:414,0
DA:415,0
DA:416,0
DA:417,0
DA:420,0
DA:421,0
DA:423,0
DA:424,0
DA:427,0
DA:429,0
DA:430,0
DA:433,0
DA:434,0
DA:435,0
DA:437,0
DA:438,0
DA:439,0
DA:440,0
DA:441,0
DA:442,0
DA:443,0
DA:445,0
DA:446,0
DA:449,0
DA:450,0
DA:451,0
DA:453,0
DA:454,0
DA:455,0
DA:456,0
DA:457,0
DA:458,0
DA:460,0
DA:461,0
DA:464,2
DA:465,2
DA:466,2
DA:469,2
DA:470,2
DA:474,2
DA:476,2
DA:477,2
DA:478,2
DA:480,2
DA:482,0
DA:485,0
DA:487,0
DA:488,0
DA:489,0
DA:490,0
DA:491,0
DA:492,0
DA:493,0
DA:494,0
DA:495,0
DA:498,0
DA:499,0
DA:500,0
DA:504,2
DA:505,0
DA:506,0
DA:507,0
DA:511,0
DA:514,2
DA:516,2
DA:519,0
DA:520,0
DA:521,0
DA:523,0
DA:525,2
DA:528,0
DA:529,0
DA:530,0
DA:531,0
DA:534,0
DA:535,0
DA:536,0
DA:541,0
DA:542,0
DA:543,0
DA:546,0
DA:549,0
DA:552,0
DA:553,0
DA:556,0
DA:557,0
DA:560,0
DA:561,0
DA:563,0
DA:564,0
DA:565,0
DA:568,0
DA:569,0
DA:571,0
DA:572,0
DA:573,0
DA:574,0
DA:575,0
DA:576,0
DA:579,0
DA:580,0
DA:581,0
DA:587,0
DA:588,0
DA:590,0
DA:591,0
DA:594,0
DA:596,0
DA:599,0
DA:603,0
DA:604,0
DA:605,0
DA:614,0
DA:615,0
DA:616,0
DA:619,0
DA:621,0
DA:622,0
DA:623,0
DA:625,0
DA:628,0
DA:629,0
DA:632,0
DA:633,0
DA:634,0
DA:636,0
DA:637,0
DA:639,0
DA:642,0
DA:643,0
DA:646,0
DA:647,0
DA:648,0
DA:650,0
DA:651,0
DA:654,0
DA:655,0
DA:656,0
DA:657,0
DA:658,0
DA:659,0
DA:660,0
DA:663,0
DA:666,0
DA:670,0
DA:673,0
DA:675,0
DA:676,0
DA:677,0
DA:680,0
DA:681,0
DA:684,0
DA:685,0
DA:686,0
DA:687,0
DA:691,0
DA:692,0
DA:695,0
DA:697,0
DA:698,0
DA:701,0
DA:702,0
DA:703,0
DA:704,0
DA:705,0
DA:706,0
DA:707,0
DA:713,0
DA:714,0
DA:718,0
DA:719,0
DA:720,0
DA:721,0
DA:722,0
DA:723,0
DA:726,0
DA:727,0
DA:728,0
DA:729,0
DA:730,0
DA:731,0
DA:732,0
DA:735,0
DA:738,0
DA:742,0
DA:745,0
DA:748,0
DA:750,0
DA:751,0
DA:752,0
DA:755,0
DA:756,0
DA:760,6
DA:761,6
DA:764,6
DA:765,6
DA:768,0
DA:769,0
DA:770,0
DA:771,0
DA:772,0
DA:775,6
DA:776,6
DA:777,6
DA:778,24
DA:779,6
DA:781,6
DA:784,0
DA:785,0
DA:786,0
DA:787,0
DA:788,0
DA:791,0
DA:792,0
DA:793,0
DA:794,0
DA:795,0
DA:796,0
DA:797,0
DA:800,1
DA:801,1
DA:802,1
DA:803,1
DA:806,1
DA:807,1
DA:811,1
DA:813,0
DA:814,0
DA:816,0
DA:818,0
DA:821,0
DA:824,0
DA:827,0
DA:828,0
DA:829,0
DA:830,0
DA:833,0
DA:837,0
DA:838,0
DA:840,0
DA:841,0
DA:842,0
DA:846,0
DA:847,0
DA:848,0
DA:851,1
DA:852,1
DA:854,10
DA:856,10
DA:859,10
DA:862,10
DA:863,0
DA:864,0
DA:865,0
DA:868,10
DA:872,10
DA:874,10
DA:875,10
DA:876,10
DA:880,1
DA:881,1
DA:882,1
DA:885,1
DA:886,1
DA:889,0
DA:890,0
DA:892,0
DA:893,0
DA:894,0
DA:895,0
DA:896,0
DA:898,0
DA:900,0
DA:902,0
DA:903,0
DA:904,0
DA:905,0
DA:906,0
DA:907,0
DA:910,0
DA:911,0
DA:912,0
DA:913,0
DA:917,0
DA:918,0
DA:920,0
DA:921,0
DA:922,0
DA:924,0
DA:927,0
DA:929,0
DA:930,0
DA:931,0
DA:934,0
DA:935,0
DA:936,0
DA:937,0
DA:938,0
DA:940,0
DA:941,0
DA:942,0
DA:945,0
DA:946,0
DA:954,4
DA:955,4
DA:956,4
DA:957,4
DA:958,4
DA:959,4
DA:960,4
DA:961,4
DA:962,4
DA:963,4
DA:964,4
DA:967,1
DA:968,1
DA:970,1
DA:971,1
DA:973,1
DA:974,1
DA:975,1
DA:976,1
DA:979,1
DA:980,1
DA:983,1
DA:984,1
DA:986,1
DA:987,1
DA:993,1
DA:996,1
DA:997,1
DA:1000,1
DA:1001,1
DA:1004,1
DA:1005,1
DA:1008,1
DA:1009,1
DA:1010,1
DA:1013,1
DA:1014,1
DA:1017,1
DA:1018,1
DA:1019,1
DA:1021,1
DA:1022,1
DA:1025,1
DA:1026,1
DA:1027,1
DA:1030,1
DA:1032,1
DA:1033,1
DA:1034,1
DA:1035,1
DA:1036,1
DA:1037,1
DA:1038,1
DA:1039,1
DA:1040,1
DA:1043,1
DA:1044,1
DA:1045,1
DA:1047,1
DA:1050,1
DA:1051,1
DA:1053,0
DA:1057,1
DA:1058,1
DA:1059,1
DA:1061,0
DA:1063,1
DA:1066,1
DA:1070,1
DA:1071,1
DA:1072,1
DA:1073,1
DA:1074,1
DA:1075,1
DA:1076,1
DA:1077,1
DA:1078,1
DA:1081,1
DA:1082,1
DA:1083,1
DA:1084,1
DA:1085,1
DA:1086,1
DA:1087,1
DA:1088,1
DA:1089,1
DA:1092,1
DA:1093,1
DA:1094,1
DA:1095,1
DA:1096,1
DA:1097,1
DA:1100,1
DA:1101,1
DA:1104,1
DA:1105,1
DA:1107,0
DA:1109,1
DA:1110,1
DA:1112,0
DA:1114,1
DA:1115,1
DA:1116,1
DA:1117,0
DA:1119,1
DA:1122,1
DA:1123,1
DA:1124,1
DA:1125,1
DA:1126,1
DA:1127,1
DA:1128,1
DA:1129,1
DA:1130,1
DA:1132,1
DA:1134,1
DA:1135,1
DA:1136,1
DA:1137,1
DA:1140,1
DA:1141,1
DA:1142,1
DA:1143,1
DA:1144,1
DA:1145,1
DA:1146,1
DA:1147,1
DA:1148,1
DA:1150,1
DA:1151,1
DA:1153,1
DA:1154,1
DA:1155,1
DA:1156,1
DA:1159,1
DA:1160,1
DA:1161,1
DA:1162,1
DA:1163,1
DA:1164,1
DA:1165,1
DA:1166,1
DA:1167,1
DA:1169,1
DA:1170,1
DA:1171,1
DA:1172,1
DA:1173,1
DA:1176,1
DA:1177,1
DA:1178,1
DA:1179,1
DA:1182,1
DA:1183,1
DA:1184,1
DA:1185,1
DA:1186,1
DA:1187,1
DA:1188,1
DA:1189,1
DA:1190,1
DA:1192,1
DA:1193,1
DA:1195,1
DA:1197,1
DA:1198,1
DA:1200,1
DA:1201,1
DA:1202,1
DA:1203,1
DA:1206,1
DA:1207,1
DA:1208,1
DA:1209,1
DA:1210,1
DA:1211,1
DA:1212,1
DA:1213,1
DA:1214,1
DA:1216,1
DA:1217,1
DA:1219,1
DA:1220,1
DA:1223,1
DA:1224,1
DA:1225,1
DA:1226,1
DA:1227,1
DA:1228,1
DA:1229,1
DA:1230,1
DA:1231,1
DA:1233,1
DA:1236,6
DA:1237,5
DA:1238,5
DA:1239,5
DA:1241,1
DA:1244,1
DA:1245,1
DA:1246,1
DA:1249,1
DA:1250,1
DA:1253,1
DA:1254,1
DA:1255,1
DA:1256,1
DA:1257,1
DA:1258,1
DA:1259,1
DA:1260,1
DA:1261,1
DA:1263,1
DA:1264,1
DA:1266,1
DA:1269,1
DA:1270,1
DA:1272,1
DA:1275,1
DA:1276,1
DA:1277,1
DA:1280,1
DA:1281,1
DA:1282,1
DA:1283,1
DA:1284,1
DA:1285,1
DA:1286,1
DA:1287,1
DA:1288,1
DA:1290,1
DA:1293,21
DA:1294,20
DA:1295,20
DA:1296,20
DA:1297,20
DA:1298,20
DA:1301,1
DA:1302,1
DA:1304,1
DA:1305,1
DA:1306,1
DA:1307,1
DA:1310,1
DA:1311,1
DA:1312,1
DA:1313,1
DA:1314,1
DA:1315,1
DA:1316,1
DA:1317,1
DA:1318,1
DA:1320,1
DA:1323,11
DA:1324,10
DA:1325,10
DA:1326,10
DA:1328,1
DA:1329,1
DA:1330,1
DA:1331,1
DA:1334,1
DA:1335,1
DA:1336,1
DA:1337,1
DA:1338,1
DA:1339,1
DA:1340,1
DA:1341,1
DA:1342,1
DA:1344,1
DA:1346,1
DA:1347,1
DA:1348,1
DA:1349,1
DA:1350,1
DA:1353,1
DA:1355,1
DA:1356,1
DA:1357,1
DA:1358,1
DA:1359,1
DA:1360,1
DA:1361,1
DA:1362,1
DA:1363,1
DA:1364,1
DA:1367,1
DA:1368,1
DA:1369,1
DA:1370,1
DA:1371,1
DA:1372,1
DA:1373,1
DA:1374,1
DA:1375,1
DA:1376,1
DA:1379,1
DA:1380,1
DA:1381,1
DA:1382,1
DA:1383,1
DA:1384,1
DA:1385,1
DA:1386,1
DA:1387,1
DA:1388,1
DA:1389,1
DA:1392,1
DA:1393,1
DA:1394,1
DA:1395,1
DA:1396,1
DA:1397,1
DA:1398,1
DA:1399,1
DA:1400,1
DA:1402,1
DA:1405,11
DA:1406,10
DA:1407,10
DA:1408,10
DA:1410,1
DA:1413,1
DA:1414,1
DA:1415,1
DA:1416,1
DA:1419,1
DA:1420,1
DA:1421,1
DA:1422,1
DA:1423,1
DA:1424,1
DA:1425,1
DA:1426,1
DA:1427,1
DA:1429,1
DA:1430,1
DA:1432,1
DA:1433,1
DA:1434,1
DA:1437,1
DA:1438,1
DA:1439,1
DA:1440,1
DA:1441,1
DA:1442,1
DA:1443,1
DA:1444,1
DA:1445,1
DA:1447,1
DA:1448,1
DA:1450,1
DA:1451,1
DA:1454,1
DA:1455,1
DA:1456,1
DA:1457,1
DA:1458,1
DA:1459,1
DA:1460,1
DA:1461,1
DA:1462,1
DA:1464,1
DA:1467,1
DA:1468,1
DA:1470,1
DA:1471,1
DA:1474,1
DA:1475,1
DA:1476,1
DA:1477,1
DA:1478,1
DA:1479,1
DA:1480,1
DA:1481,1
DA:1482,1
DA:1484,1
DA:1487,6
DA:1488,5
DA:1489,5
DA:1490,5
DA:1492,1
DA:1493,1
DA:1495,5
DA:1496,1
DA:1497,1
DA:1498,1
DA:1501,1
DA:1502,1
DA:1503,1
DA:1504,1
DA:1505,1
DA:1506,1
DA:1507,1
DA:1508,1
DA:1509,1
DA:1511,1
DA:1512,1
DA:1514,1
DA:1515,1
DA:1518,1
DA:1519,1
DA:1520,1
DA:1521,1
DA:1522,1
DA:1523,1
DA:1524,1
DA:1525,1
DA:1526,1
DA:1528,1
DA:1531,1
DA:1532,1
DA:1534,1
DA:1535,1
DA:1536,1
DA:1539,1
DA:1542,1
DA:1543,1
DA:1544,1
DA:1545,1
DA:1546,1
DA:1547,1
DA:1548,1
DA:1549,1
DA:1551,1
DA:1553,1
DA:1555,11
DA:1556,10
DA:1557,10
DA:1558,110
DA:1559,100
DA:1560,100
DA:1561,100
DA:1562,100
DA:1563,100
DA:1564,100
DA:1565,10
DA:1566,10
DA:1569,11
DA:1570,10
DA:1571,10
DA:1573,1
DA:1574,1
DA:1577,1
DA:1578,1
DA:1579,1
DA:1580,1
DA:1581,1
DA:1582,1
DA:1583,1
DA:1584,1
DA:1585,1
DA:1587,1
DA:1590,51
DA:1591,50
DA:1592,50
DA:1593,50
DA:1596,1
DA:1597,1
DA:1599,1
DA:1600,1
DA:1601,1
DA:1602,1
DA:1605,1
DA:1606,1
DA:1607,1
DA:1608,1
DA:1609,1
DA:1610,1
DA:1611,1
DA:1612,1
DA:1613,1
DA:1615,1
DA:1618,16
DA:1619,15
DA:1620,15
DA:1621,15
DA:1623,1
DA:1624,1
DA:1625,1
DA:1628,1
DA:1629,1
DA:1630,1
DA:1631,1
DA:1632,1
DA:1633,1
DA:1634,1
DA:1635,1
DA:1636,1
DA:1638,1
DA:1640,1
DA:1641,1
DA:1644,1
DA:1645,1
DA:1647,1
DA:1650,1
DA:1653,1
DA:1654,1
BRF:0
BRH:0
LF:1043
LH:728
end_of_record
SF:/mnt/f/Node/hivellm/vectorizer/src/db/collection_normalization.rs
FN:83,_RNCNCNvMNtNtCs1YuMAXYbbDa_10vectorizer2db24collection_normalizationNtB6_29CollectionNormalizationHelper12is_duplicate00Ba_
FN:55,_RNCNCNvMNtNtCs1YuMAXYbbDa_10vectorizer2db24collection_normalizationNtB6_29CollectionNormalizationHelper16process_document00Ba_
FN:78,_RNCNvMNtNtCs1YuMAXYbbDa_10vectorizer2db24collection_normalizationNtB4_29CollectionNormalizationHelper12is_duplicate0B8_
FN:50,_RNCNvMNtNtCs1YuMAXYbbDa_10vectorizer2db24collection_normalizationNtB4_29CollectionNormalizationHelper16process_document0B8_
FN:39,_RNvMNtNtCs1YuMAXYbbDa_10vectorizer2db24collection_normalizationNtB2_29CollectionNormalizationHelper10is_enabled
FN:129,_RNvMNtNtCs1YuMAXYbbDa_10vectorizer2db24collection_normalizationNtB2_29CollectionNormalizationHelper11cache_stats
FN:21,_RNvMNtNtCs1YuMAXYbbDa_10vectorizer2db24collection_normalizationNtB2_29CollectionNormalizationHelper11from_config
FN:78,_RNvMNtNtCs1YuMAXYbbDa_10vectorizer2db24collection_normalizationNtB2_29CollectionNormalizationHelper12is_duplicate
FN:69,_RNvMNtNtCs1YuMAXYbbDa_10vectorizer2db24collection_normalizationNtB2_29CollectionNormalizationHelper13process_query
FN:92,_RNvMNtNtCs1YuMAXYbbDa_10vectorizer2db24collection_normalizationNtB2_29CollectionNormalizationHelper14enrich_payload
FN:46,_RNvMNtNtCs1YuMAXYbbDa_10vectorizer2db24collection_normalizationNtB2_29CollectionNormalizationHelper16process_document
FN:111,_RNvMNtNtCs1YuMAXYbbDa_10vectorizer2db24collection_normalizationNtB2_29CollectionNormalizationHelper32create_vector_with_normalization
FN:130,_RNCNvMNtNtCs1YuMAXYbbDa_10vectorizer2db24collection_normalizationNtB4_29CollectionNormalizationHelper11cache_stats0B8_
FN:26,_RNCNvMNtNtCs1YuMAXYbbDa_10vectorizer2db24collection_normalizationNtB4_29CollectionNormalizationHelper11from_config0B8_
FN:83,_RNCNCNvMNtNtCs4Tkd3OJeaSh_10vectorizer2db24collection_normalizationNtB6_29CollectionNormalizationHelper12is_duplicate00Ba_
FN:130,_RNCNvMNtNtCs4Tkd3OJeaSh_10vectorizer2db24collection_normalizationNtB4_29CollectionNormalizationHelper11cache_stats0B8_
FN:78,_RNCNvMNtNtCs4Tkd3OJeaSh_10vectorizer2db24collection_normalizationNtB4_29CollectionNormalizationHelper12is_duplicate0B8_
FN:129,_RNvMNtNtCs4Tkd3OJeaSh_10vectorizer2db24collection_normalizationNtB2_29CollectionNormalizationHelper11cache_stats
FN:78,_RNvMNtNtCs4Tkd3OJeaSh_10vectorizer2db24collection_normalizationNtB2_29CollectionNormalizationHelper12is_duplicate
FN:111,_RNvMNtNtCs4Tkd3OJeaSh_10vectorizer2db24collection_normalizationNtB2_29CollectionNormalizationHelper32create_vector_with_normalization
FN:39,_RNvMNtNtCs4Tkd3OJeaSh_10vectorizer2db24collection_normalizationNtB2_29CollectionNormalizationHelper10is_enabled
FN:21,_RNvMNtNtCs4Tkd3OJeaSh_10vectorizer2db24collection_normalizationNtB2_29CollectionNormalizationHelper11from_config
FN:69,_RNvMNtNtCs4Tkd3OJeaSh_10vectorizer2db24collection_normalizationNtB2_29CollectionNormalizationHelper13process_query
FN:92,_RNvMNtNtCs4Tkd3OJeaSh_10vectorizer2db24collection_normalizationNtB2_29CollectionNormalizationHelper14enrich_payload
FN:46,_RNvMNtNtCs4Tkd3OJeaSh_10vectorizer2db24collection_normalizationNtB2_29CollectionNormalizationHelper16process_document
FN:55,_RNCNCNvMNtNtCs4Tkd3OJeaSh_10vectorizer2db24collection_normalizationNtB6_29CollectionNormalizationHelper16process_document00Ba_
FN:26,_RNCNvMNtNtCs4Tkd3OJeaSh_10vectorizer2db24collection_normalizationNtB4_29CollectionNormalizationHelper11from_config0B8_
FN:50,_RNCNvMNtNtCs4Tkd3OJeaSh_10vectorizer2db24collection_normalizationNtB4_29CollectionNormalizationHelper16process_document0B8_
FN:180,_RNCNvNtNtNtCs4Tkd3OJeaSh_10vectorizer2db24collection_normalization5testss_21test_query_processing0B9_
FN:142,_RNCNvNtNtNtCs4Tkd3OJeaSh_10vectorizer2db24collection_normalization5testss_28test_helper_no_normalization0B9_
FN:160,_RNCNvNtNtNtCs4Tkd3OJeaSh_10vectorizer2db24collection_normalization5testss_30test_helper_with_normalization0B9_
FN:180,_RNvNtNtNtCs4Tkd3OJeaSh_10vectorizer2db24collection_normalization5testss_21test_query_processing
FN:195,_RNvNtNtNtCs4Tkd3OJeaSh_10vectorizer2db24collection_normalization5testss_23test_payload_enrichment
FN:142,_RNvNtNtNtCs4Tkd3OJeaSh_10vectorizer2db24collection_normalization5testss_28test_helper_no_normalization
FN:160,_RNvNtNtNtCs4Tkd3OJeaSh_10vectorizer2db24collection_normalization5testss_30test_helper_with_normalization
FNDA:0,_RNCNCNvMNtNtCs1YuMAXYbbDa_10vectorizer2db24collection_normalizationNtB6_29CollectionNormalizationHelper12is_duplicate00Ba_
FNDA:0,_RNCNCNvMNtNtCs1YuMAXYbbDa_10vectorizer2db24collection_normalizationNtB6_29CollectionNormalizationHelper16process_document00Ba_
FNDA:0,_RNCNvMNtNtCs1YuMAXYbbDa_10vectorizer2db24collection_normalizationNtB4_29CollectionNormalizationHelper12is_duplicate0B8_
FNDA:0,_RNCNvMNtNtCs1YuMAXYbbDa_10vectorizer2db24collection_normalizationNtB4_29CollectionNormalizationHelper16process_document0B8_
FNDA:0,_RNvMNtNtCs1YuMAXYbbDa_10vectorizer2db24collection_normalizationNtB2_29CollectionNormalizationHelper10is_enabled
FNDA:0,_RNvMNtNtCs1YuMAXYbbDa_10vectorizer2db24collection_normalizationNtB2_29CollectionNormalizationHelper11cache_stats
FNDA:0,_RNvMNtNtCs1YuMAXYbbDa_10vectorizer2db24collection_normalizationNtB2_29CollectionNormalizationHelper11from_config
FNDA:0,_RNvMNtNtCs1YuMAXYbbDa_10vectorizer2db24collection_normalizationNtB2_29CollectionNormalizationHelper12is_duplicate
FNDA:0,_RNvMNtNtCs1YuMAXYbbDa_10vectorizer2db24collection_normalizationNtB2_29CollectionNormalizationHelper13process_query
FNDA:0,_RNvMNtNtCs1YuMAXYbbDa_10vectorizer2db24collection_normalizationNtB2_29CollectionNormalizationHelper14enrich_payload
FNDA:0,_RNvMNtNtCs1YuMAXYbbDa_10vectorizer2db24collection_normalizationNtB2_29CollectionNormalizationHelper16process_document
FNDA:0,_RNvMNtNtCs1YuMAXYbbDa_10vectorizer2db24collection_normalizationNtB2_29CollectionNormalizationHelper32create_vector_with_normalization
FNDA:0,_RNCNvMNtNtCs1YuMAXYbbDa_10vectorizer2db24collection_normalizationNtB4_29CollectionNormalizationHelper11cache_stats0B8_
FNDA:0,_RNCNvMNtNtCs1YuMAXYbbDa_10vectorizer2db24collection_normalizationNtB4_29CollectionNormalizationHelper11from_config0B8_
FNDA:0,_RNCNCNvMNtNtCs4Tkd3OJeaSh_10vectorizer2db24collection_normalizationNtB6_29CollectionNormalizationHelper12is_duplicate00Ba_
FNDA:0,_RNCNvMNtNtCs4Tkd3OJeaSh_10vectorizer2db24collection_normalizationNtB4_29CollectionNormalizationHelper11cache_stats0B8_
FNDA:0,_RNCNvMNtNtCs4Tkd3OJeaSh_10vectorizer2db24collection_normalizationNtB4_29CollectionNormalizationHelper12is_duplicate0B8_
FNDA:0,_RNvMNtNtCs4Tkd3OJeaSh_10vectorizer2db24collection_normalizationNtB2_29CollectionNormalizationHelper11cache_stats
FNDA:0,_RNvMNtNtCs4Tkd3OJeaSh_10vectorizer2db24collection_normalizationNtB2_29CollectionNormalizationHelper12is_duplicate
FNDA:0,_RNvMNtNtCs4Tkd3OJeaSh_10vectorizer2db24collection_normalizationNtB2_29CollectionNormalizationHelper32create_vector_with_normalization
FNDA:2,_RNvMNtNtCs4Tkd3OJeaSh_10vectorizer2db24collection_normalizationNtB2_29CollectionNormalizationHelper10is_enabled
FNDA:4,_RNvMNtNtCs4Tkd3OJeaSh_10vectorizer2db24collection_normalizationNtB2_29CollectionNormalizationHelper11from_config
FNDA:1,_RNvMNtNtCs4Tkd3OJeaSh_10vectorizer2db24collection_normalizationNtB2_29CollectionNormalizationHelper13process_query
FNDA:1,_RNvMNtNtCs4Tkd3OJeaSh_10vectorizer2db24collection_normalizationNtB2_29CollectionNormalizationHelper14enrich_payload
FNDA:2,_RNvMNtNtCs4Tkd3OJeaSh_10vectorizer2db24collection_normalizationNtB2_29CollectionNormalizationHelper16process_document
FNDA:0,_RNCNCNvMNtNtCs4Tkd3OJeaSh_10vectorizer2db24collection_normalizationNtB6_29CollectionNormalizationHelper16process_document00Ba_
FNDA:0,_RNCNvMNtNtCs4Tkd3OJeaSh_10vectorizer2db24collection_normalizationNtB4_29CollectionNormalizationHelper11from_config0B8_
FNDA:2,_RNCNvMNtNtCs4Tkd3OJeaSh_10vectorizer2db24collection_normalizationNtB4_29CollectionNormalizationHelper16process_document0B8_
FNDA:1,_RNCNvNtNtNtCs4Tkd3OJeaSh_10vectorizer2db24collection_normalization5testss_21test_query_processing0B9_
FNDA:1,_RNCNvNtNtNtCs4Tkd3OJeaSh_10vectorizer2db24collection_normalization5testss_28test_helper_no_normalization0B9_
FNDA:1,_RNCNvNtNtNtCs4Tkd3OJeaSh_10vectorizer2db24collection_normalization5testss_30test_helper_with_normalization0B9_
FNDA:1,_RNvNtNtNtCs4Tkd3OJeaSh_10vectorizer2db24collection_normalization5testss_21test_query_processing
FNDA:1,_RNvNtNtNtCs4Tkd3OJeaSh_10vectorizer2db24collection_normalization5testss_23test_payload_enrichment
FNDA:1,_RNvNtNtNtCs4Tkd3OJeaSh_10vectorizer2db24collection_normalization5testss_28test_helper_no_normalization
FNDA:1,_RNvNtNtNtCs4Tkd3OJeaSh_10vectorizer2db24collection_normalization5testss_30test_helper_with_normalization
FNF:21
FNH:13
DA:21,4
DA:22,4
DA:23,3
DA:25,3
DA:26,3
DA:29,0
DA:32,1
DA:35,4
DA:36,4
DA:39,2
DA:40,2
DA:41,2
DA:46,2
DA:47,2
DA:48,2
DA:49,2
DA:50,2
DA:51,2
DA:52,1
DA:53,1
DA:54,1
DA:55,1
DA:58,1
DA:59,1
DA:60,1
DA:61,1
DA:62,1
DA:63,1
DA:64,1
DA:66,2
DA:69,1
DA:70,1
DA:71,1
DA:73,0
DA:75,1
DA:78,0
DA:79,0
DA:80,0
DA:81,0
DA:82,0
DA:83,0
DA:85,0
DA:87,0
DA:92,1
DA:93,1
DA:95,1
DA:96,1
DA:97,1
DA:98,1
DA:99,1
DA:100,1
DA:101,0
DA:102,1
DA:103,1
DA:104,0
DA:105,1
DA:106,1
DA:111,0
DA:112,0
DA:113,0
DA:114,0
DA:115,0
DA:116,0
DA:117,0
DA:119,0
DA:121,0
DA:122,0
DA:123,0
DA:124,0
DA:125,0
DA:126,0
DA:129,0
DA:130,0
DA:131,0
DA:142,1
DA:143,1
DA:144,1
DA:145,1
DA:146,1
DA:147,1
DA:149,1
DA:150,1
DA:152,1
DA:154,1
DA:155,1
DA:156,1
DA:157,1
DA:160,1
DA:161,1
DA:162,1
DA:163,1
DA:164,1
DA:165,1
DA:167,1
DA:168,1
DA:170,1
DA:172,1
DA:173,1
DA:174,1
DA:175,1
DA:176,1
DA:177,1
DA:180,1
DA:181,1
DA:182,1
DA:183,1
DA:184,1
DA:185,1
DA:187,1
DA:188,1
DA:190,1
DA:191,1
DA:192,1
DA:195,1
DA:196,1
DA:197,1
DA:198,1
DA:199,1
DA:200,1
DA:202,1
DA:203,1
DA:205,1
DA:206,1
DA:207,1
DA:208,1
DA:209,1
DA:210,1
DA:211,1
DA:213,1
DA:214,1
DA:215,1
DA:216,1
DA:217,1
DA:219,1
DA:221,1
DA:222,1
DA:223,1
DA:224,1
DA:225,1
BRF:0
BRH:0
LF:151
LH:117
end_of_record
SF:/mnt/f/Node/hivellm/vectorizer/src/db/hive_gpu_collection.rs
FN:95,_RNvMNtNtCs1YuMAXYbbDa_10vectorizer2db19hive_gpu_collectionNtB2_17HiveGpuCollection10add_vector
FN:233,_RNvMNtNtCs1YuMAXYbbDa_10vectorizer2db19hive_gpu_collectionNtB2_17HiveGpuCollection10get_vector
FN:129,_RNvMNtNtCs1YuMAXYbbDa_10vectorizer2db19hive_gpu_collectionNtB2_17HiveGpuCollection11add_vectors
FN:90,_RNvMNtNtCs1YuMAXYbbDa_10vectorizer2db19hive_gpu_collectionNtB2_17HiveGpuCollection12vector_count
FN:251,_RNvMNtNtCs1YuMAXYbbDa_10vectorizer2db19hive_gpu_collectionNtB2_17HiveGpuCollection13remove_vector
FN:367,_RNvMNtNtCs1YuMAXYbbDa_10vectorizer2db19hive_gpu_collectionNtB2_17HiveGpuCollection15get_all_vectors
FN:294,_RNvMNtNtCs1YuMAXYbbDa_10vectorizer2db19hive_gpu_collectionNtB2_17HiveGpuCollection15load_from_cache
FN:217,_RNvMNtNtCs1YuMAXYbbDa_10vectorizer2db19hive_gpu_collectionNtB2_17HiveGpuCollection16get_vector_by_id
FN:391,_RNvMNtNtCs1YuMAXYbbDa_10vectorizer2db19hive_gpu_collectionNtB2_17HiveGpuCollection18get_embedding_type
FN:355,_RNvMNtNtCs1YuMAXYbbDa_10vectorizer2db19hive_gpu_collectionNtB2_17HiveGpuCollection22estimated_memory_usage
FN:396,_RNvMNtNtCs1YuMAXYbbDa_10vectorizer2db19hive_gpu_collectionNtB2_17HiveGpuCollection27requantize_existing_vectors
FN:325,_RNvMNtNtCs1YuMAXYbbDa_10vectorizer2db19hive_gpu_collectionNtB2_17HiveGpuCollection30load_from_cache_with_hnsw_dump
FN:35,_RNvMNtNtCs1YuMAXYbbDa_10vectorizer2db19hive_gpu_collectionNtB2_17HiveGpuCollection3new
FN:75,_RNvMNtNtCs1YuMAXYbbDa_10vectorizer2db19hive_gpu_collectionNtB2_17HiveGpuCollection4name
FN:402,_RNvMNtNtCs1YuMAXYbbDa_10vectorizer2db19hive_gpu_collectionNtB2_17HiveGpuCollection5clear
FN:80,_RNvMNtNtCs1YuMAXYbbDa_10vectorizer2db19hive_gpu_collectionNtB2_17HiveGpuCollection6config
FN:173,_RNvMNtNtCs1YuMAXYbbDa_10vectorizer2db19hive_gpu_collectionNtB2_17HiveGpuCollection6search
FN:273,_RNvMNtNtCs1YuMAXYbbDa_10vectorizer2db19hive_gpu_collectionNtB2_17HiveGpuCollection6update
FN:343,_RNvMNtNtCs1YuMAXYbbDa_10vectorizer2db19hive_gpu_collectionNtB2_17HiveGpuCollection8metadata
FN:85,_RNvMNtNtCs1YuMAXYbbDa_10vectorizer2db19hive_gpu_collectionNtB2_17HiveGpuCollection9dimension
FN:430,_RNvXs_NtNtCs1YuMAXYbbDa_10vectorizer2db19hive_gpu_collectionNtB4_17HiveGpuCollectionNtNtCs9Kp62OsN3pY_4core3fmt5Debug3fmt
FN:113,_RNCNvMNtNtCs1YuMAXYbbDa_10vectorizer2db19hive_gpu_collectionNtB4_17HiveGpuCollection10add_vector0B8_
FN:147,_RNCNvMNtNtCs1YuMAXYbbDa_10vectorizer2db19hive_gpu_collectionNtB4_17HiveGpuCollection11add_vectors0B8_
FN:156,_RNCNvMNtNtCs1YuMAXYbbDa_10vectorizer2db19hive_gpu_collectionNtB4_17HiveGpuCollection11add_vectorss_0B8_
FN:256,_RNCNvMNtNtCs1YuMAXYbbDa_10vectorizer2db19hive_gpu_collectionNtB4_17HiveGpuCollection13remove_vector0B8_
FN:48,_RNCNvMNtNtCs1YuMAXYbbDa_10vectorizer2db19hive_gpu_collectionNtB4_17HiveGpuCollection3new0B8_
FN:411,_RNCNvMNtNtCs1YuMAXYbbDa_10vectorizer2db19hive_gpu_collectionNtB4_17HiveGpuCollection5clear0B8_
FN:191,_RNCNvMNtNtCs1YuMAXYbbDa_10vectorizer2db19hive_gpu_collectionNtB4_17HiveGpuCollection6search0B8_
FN:200,_RNCNvMNtNtCs1YuMAXYbbDa_10vectorizer2db19hive_gpu_collectionNtB4_17HiveGpuCollection6searchs_0B8_
FN:48,_RNCNvMNtNtCs4Tkd3OJeaSh_10vectorizer2db19hive_gpu_collectionNtB4_17HiveGpuCollection3new0B8_
FN:411,_RNCNvMNtNtCs4Tkd3OJeaSh_10vectorizer2db19hive_gpu_collectionNtB4_17HiveGpuCollection5clear0B8_
FN:396,_RNvMNtNtCs4Tkd3OJeaSh_10vectorizer2db19hive_gpu_collectionNtB2_17HiveGpuCollection27requantize_existing_vectors
FN:325,_RNvMNtNtCs4Tkd3OJeaSh_10vectorizer2db19hive_gpu_collectionNtB2_17HiveGpuCollection30load_from_cache_with_hnsw_dump
FN:35,_RNvMNtNtCs4Tkd3OJeaSh_10vectorizer2db19hive_gpu_collectionNtB2_17HiveGpuCollection3new
FN:402,_RNvMNtNtCs4Tkd3OJeaSh_10vectorizer2db19hive_gpu_collectionNtB2_17HiveGpuCollection5clear
FN:85,_RNvMNtNtCs4Tkd3OJeaSh_10vectorizer2db19hive_gpu_collectionNtB2_17HiveGpuCollection9dimension
FN:430,_RNvXs_NtNtCs4Tkd3OJeaSh_10vectorizer2db19hive_gpu_collectionNtB4_17HiveGpuCollectionNtNtCs9Kp62OsN3pY_4core3fmt5Debug3fmt
FN:451,_RNvNtNtNtCs4Tkd3OJeaSh_10vectorizer2db19hive_gpu_collection5testss_25test_dimension_validation
FN:445,_RNvNtNtNtCs4Tkd3OJeaSh_10vectorizer2db19hive_gpu_collection5testss_33test_hive_gpu_collection_creation
FN:113,_RNCNvMNtNtCs4Tkd3OJeaSh_10vectorizer2db19hive_gpu_collectionNtB4_17HiveGpuCollection10add_vector0B8_
FN:147,_RNCNvMNtNtCs4Tkd3OJeaSh_10vectorizer2db19hive_gpu_collectionNtB4_17HiveGpuCollection11add_vectors0B8_
FN:156,_RNCNvMNtNtCs4Tkd3OJeaSh_10vectorizer2db19hive_gpu_collectionNtB4_17HiveGpuCollection11add_vectorss_0B8_
FN:256,_RNCNvMNtNtCs4Tkd3OJeaSh_10vectorizer2db19hive_gpu_collectionNtB4_17HiveGpuCollection13remove_vector0B8_
FN:191,_RNCNvMNtNtCs4Tkd3OJeaSh_10vectorizer2db19hive_gpu_collectionNtB4_17HiveGpuCollection6search0B8_
FN:200,_RNCNvMNtNtCs4Tkd3OJeaSh_10vectorizer2db19hive_gpu_collectionNtB4_17HiveGpuCollection6searchs_0B8_
FN:95,_RNvMNtNtCs4Tkd3OJeaSh_10vectorizer2db19hive_gpu_collectionNtB2_17HiveGpuCollection10add_vector
FN:233,_RNvMNtNtCs4Tkd3OJeaSh_10vectorizer2db19hive_gpu_collectionNtB2_17HiveGpuCollection10get_vector
FN:129,_RNvMNtNtCs4Tkd3OJeaSh_10vectorizer2db19hive_gpu_collectionNtB2_17HiveGpuCollection11add_vectors
FN:90,_RNvMNtNtCs4Tkd3OJeaSh_10vectorizer2db19hive_gpu_collectionNtB2_17HiveGpuCollection12vector_count
FN:251,_RNvMNtNtCs4Tkd3OJeaSh_10vectorizer2db19hive_gpu_collectionNtB2_17HiveGpuCollection13remove_vector
FN:367,_RNvMNtNtCs4Tkd3OJeaSh_10vectorizer2db19hive_gpu_collectionNtB2_17HiveGpuCollection15get_all_vectors
FN:294,_RNvMNtNtCs4Tkd3OJeaSh_10vectorizer2db19hive_gpu_collectionNtB2_17HiveGpuCollection15load_from_cache
FN:217,_RNvMNtNtCs4Tkd3OJeaSh_10vectorizer2db19hive_gpu_collectionNtB2_17HiveGpuCollection16get_vector_by_id
FN:391,_RNvMNtNtCs4Tkd3OJeaSh_10vectorizer2db19hive_gpu_collectionNtB2_17HiveGpuCollection18get_embedding_type
FN:355,_RNvMNtNtCs4Tkd3OJeaSh_10vectorizer2db19hive_gpu_collectionNtB2_17HiveGpuCollection22estimated_memory_usage
FN:75,_RNvMNtNtCs4Tkd3OJeaSh_10vectorizer2db19hive_gpu_collectionNtB2_17HiveGpuCollection4name
FN:80,_RNvMNtNtCs4Tkd3OJeaSh_10vectorizer2db19hive_gpu_collectionNtB2_17HiveGpuCollection6config
FN:173,_RNvMNtNtCs4Tkd3OJeaSh_10vectorizer2db19hive_gpu_collectionNtB2_17HiveGpuCollection6search
FN:273,_RNvMNtNtCs4Tkd3OJeaSh_10vectorizer2db19hive_gpu_collectionNtB2_17HiveGpuCollection6update
FN:343,_RNvMNtNtCs4Tkd3OJeaSh_10vectorizer2db19hive_gpu_collectionNtB2_17HiveGpuCollection8metadata
FNDA:0,_RNvMNtNtCs1YuMAXYbbDa_10vectorizer2db19hive_gpu_collectionNtB2_17HiveGpuCollection10add_vector
FNDA:0,_RNvMNtNtCs1YuMAXYbbDa_10vectorizer2db19hive_gpu_collectionNtB2_17HiveGpuCollection10get_vector
FNDA:0,_RNvMNtNtCs1YuMAXYbbDa_10vectorizer2db19hive_gpu_collectionNtB2_17HiveGpuCollection11add_vectors
FNDA:0,_RNvMNtNtCs1YuMAXYbbDa_10vectorizer2db19hive_gpu_collectionNtB2_17HiveGpuCollection12vector_count
FNDA:0,_RNvMNtNtCs1YuMAXYbbDa_10vectorizer2db19hive_gpu_collectionNtB2_17HiveGpuCollection13remove_vector
FNDA:0,_RNvMNtNtCs1YuMAXYbbDa_10vectorizer2db19hive_gpu_collectionNtB2_17HiveGpuCollection15get_all_vectors
FNDA:0,_RNvMNtNtCs1YuMAXYbbDa_10vectorizer2db19hive_gpu_collectionNtB2_17HiveGpuCollection15load_from_cache
FNDA:0,_RNvMNtNtCs1YuMAXYbbDa_10vectorizer2db19hive_gpu_collectionNtB2_17HiveGpuCollection16get_vector_by_id
FNDA:0,_RNvMNtNtCs1YuMAXYbbDa_10vectorizer2db19hive_gpu_collectionNtB2_17HiveGpuCollection18get_embedding_type
FNDA:0,_RNvMNtNtCs1YuMAXYbbDa_10vectorizer2db19hive_gpu_collectionNtB2_17HiveGpuCollection22estimated_memory_usage
FNDA:0,_RNvMNtNtCs1YuMAXYbbDa_10vectorizer2db19hive_gpu_collectionNtB2_17HiveGpuCollection27requantize_existing_vectors
FNDA:0,_RNvMNtNtCs1YuMAXYbbDa_10vectorizer2db19hive_gpu_collectionNtB2_17HiveGpuCollection30load_from_cache_with_hnsw_dump
FNDA:0,_RNvMNtNtCs1YuMAXYbbDa_10vectorizer2db19hive_gpu_collectionNtB2_17HiveGpuCollection3new
FNDA:0,_RNvMNtNtCs1YuMAXYbbDa_10vectorizer2db19hive_gpu_collectionNtB2_17HiveGpuCollection4name
FNDA:0,_RNvMNtNtCs1YuMAXYbbDa_10vectorizer2db19hive_gpu_collectionNtB2_17HiveGpuCollection5clear
FNDA:0,_RNvMNtNtCs1YuMAXYbbDa_10vectorizer2db19hive_gpu_collectionNtB2_17HiveGpuCollection6config
FNDA:0,_RNvMNtNtCs1YuMAXYbbDa_10vectorizer2db19hive_gpu_collectionNtB2_17HiveGpuCollection6search
FNDA:0,_RNvMNtNtCs1YuMAXYbbDa_10vectorizer2db19hive_gpu_collectionNtB2_17HiveGpuCollection6update
FNDA:0,_RNvMNtNtCs1YuMAXYbbDa_10vectorizer2db19hive_gpu_collectionNtB2_17HiveGpuCollection8metadata
FNDA:0,_RNvMNtNtCs1YuMAXYbbDa_10vectorizer2db19hive_gpu_collectionNtB2_17HiveGpuCollection9dimension
FNDA:0,_RNvXs_NtNtCs1YuMAXYbbDa_10vectorizer2db19hive_gpu_collectionNtB4_17HiveGpuCollectionNtNtCs9Kp62OsN3pY_4core3fmt5Debug3fmt
FNDA:0,_RNCNvMNtNtCs1YuMAXYbbDa_10vectorizer2db19hive_gpu_collectionNtB4_17HiveGpuCollection10add_vector0B8_
FNDA:0,_RNCNvMNtNtCs1YuMAXYbbDa_10vectorizer2db19hive_gpu_collectionNtB4_17HiveGpuCollection11add_vectors0B8_
FNDA:0,_RNCNvMNtNtCs1YuMAXYbbDa_10vectorizer2db19hive_gpu_collectionNtB4_17HiveGpuCollection11add_vectorss_0B8_
FNDA:0,_RNCNvMNtNtCs1YuMAXYbbDa_10vectorizer2db19hive_gpu_collectionNtB4_17HiveGpuCollection13remove_vector0B8_
FNDA:0,_RNCNvMNtNtCs1YuMAXYbbDa_10vectorizer2db19hive_gpu_collectionNtB4_17HiveGpuCollection3new0B8_
FNDA:0,_RNCNvMNtNtCs1YuMAXYbbDa_10vectorizer2db19hive_gpu_collectionNtB4_17HiveGpuCollection5clear0B8_
FNDA:0,_RNCNvMNtNtCs1YuMAXYbbDa_10vectorizer2db19hive_gpu_collectionNtB4_17HiveGpuCollection6search0B8_
FNDA:0,_RNCNvMNtNtCs1YuMAXYbbDa_10vectorizer2db19hive_gpu_collectionNtB4_17HiveGpuCollection6searchs_0B8_
FNDA:0,_RNCNvMNtNtCs4Tkd3OJeaSh_10vectorizer2db19hive_gpu_collectionNtB4_17HiveGpuCollection3new0B8_
FNDA:0,_RNCNvMNtNtCs4Tkd3OJeaSh_10vectorizer2db19hive_gpu_collectionNtB4_17HiveGpuCollection5clear0B8_
FNDA:0,_RNvMNtNtCs4Tkd3OJeaSh_10vectorizer2db19hive_gpu_collectionNtB2_17HiveGpuCollection27requantize_existing_vectors
FNDA:0,_RNvMNtNtCs4Tkd3OJeaSh_10vectorizer2db19hive_gpu_collectionNtB2_17HiveGpuCollection30load_from_cache_with_hnsw_dump
FNDA:0,_RNvMNtNtCs4Tkd3OJeaSh_10vectorizer2db19hive_gpu_collectionNtB2_17HiveGpuCollection3new
FNDA:0,_RNvMNtNtCs4Tkd3OJeaSh_10vectorizer2db19hive_gpu_collectionNtB2_17HiveGpuCollection5clear
FNDA:0,_RNvMNtNtCs4Tkd3OJeaSh_10vectorizer2db19hive_gpu_collectionNtB2_17HiveGpuCollection9dimension
FNDA:0,_RNvXs_NtNtCs4Tkd3OJeaSh_10vectorizer2db19hive_gpu_collectionNtB4_17HiveGpuCollectionNtNtCs9Kp62OsN3pY_4core3fmt5Debug3fmt
FNDA:1,_RNvNtNtNtCs4Tkd3OJeaSh_10vectorizer2db19hive_gpu_collection5testss_25test_dimension_validation
FNDA:1,_RNvNtNtNtCs4Tkd3OJeaSh_10vectorizer2db19hive_gpu_collection5testss_33test_hive_gpu_collection_creation
FNDA:0,_RNCNvMNtNtCs4Tkd3OJeaSh_10vectorizer2db19hive_gpu_collectionNtB4_17HiveGpuCollection10add_vector0B8_
FNDA:0,_RNCNvMNtNtCs4Tkd3OJeaSh_10vectorizer2db19hive_gpu_collectionNtB4_17HiveGpuCollection11add_vectors0B8_
FNDA:0,_RNCNvMNtNtCs4Tkd3OJeaSh_10vectorizer2db19hive_gpu_collectionNtB4_17HiveGpuCollection11add_vectorss_0B8_
FNDA:0,_RNCNvMNtNtCs4Tkd3OJeaSh_10vectorizer2db19hive_gpu_collectionNtB4_17HiveGpuCollection13remove_vector0B8_
FNDA:0,_RNCNvMNtNtCs4Tkd3OJeaSh_10vectorizer2db19hive_gpu_collectionNtB4_17HiveGpuCollection6search0B8_
FNDA:0,_RNCNvMNtNtCs4Tkd3OJeaSh_10vectorizer2db19hive_gpu_collectionNtB4_17HiveGpuCollection6searchs_0B8_
FNDA:0,_RNvMNtNtCs4Tkd3OJeaSh_10vectorizer2db19hive_gpu_collectionNtB2_17HiveGpuCollection10add_vector
FNDA:0,_RNvMNtNtCs4Tkd3OJeaSh_10vectorizer2db19hive_gpu_collectionNtB2_17HiveGpuCollection10get_vector
FNDA:0,_RNvMNtNtCs4Tkd3OJeaSh_10vectorizer2db19hive_gpu_collectionNtB2_17HiveGpuCollection11add_vectors
FNDA:0,_RNvMNtNtCs4Tkd3OJeaSh_10vectorizer2db19hive_gpu_collectionNtB2_17HiveGpuCollection12vector_count
FNDA:0,_RNvMNtNtCs4Tkd3OJeaSh_10vectorizer2db19hive_gpu_collectionNtB2_17HiveGpuCollection13remove_vector
FNDA:0,_RNvMNtNtCs4Tkd3OJeaSh_10vectorizer2db19hive_gpu_collectionNtB2_17HiveGpuCollection15get_all_vectors
FNDA:0,_RNvMNtNtCs4Tkd3OJeaSh_10vectorizer2db19hive_gpu_collectionNtB2_17HiveGpuCollection15load_from_cache
FNDA:0,_RNvMNtNtCs4Tkd3OJeaSh_10vectorizer2db19hive_gpu_collectionNtB2_17HiveGpuCollection16get_vector_by_id
FNDA:0,_RNvMNtNtCs4Tkd3OJeaSh_10vectorizer2db19hive_gpu_collectionNtB2_17HiveGpuCollection18get_embedding_type
FNDA:0,_RNvMNtNtCs4Tkd3OJeaSh_10vectorizer2db19hive_gpu_collectionNtB2_17HiveGpuCollection22estimated_memory_usage
FNDA:0,_RNvMNtNtCs4Tkd3OJeaSh_10vectorizer2db19hive_gpu_collectionNtB2_17HiveGpuCollection4name
FNDA:0,_RNvMNtNtCs4Tkd3OJeaSh_10vectorizer2db19hive_gpu_collectionNtB2_17HiveGpuCollection6config
FNDA:0,_RNvMNtNtCs4Tkd3OJeaSh_10vectorizer2db19hive_gpu_collectionNtB2_17HiveGpuCollection6search
FNDA:0,_RNvMNtNtCs4Tkd3OJeaSh_10vectorizer2db19hive_gpu_collectionNtB2_17HiveGpuCollection6update
FNDA:0,_RNvMNtNtCs4Tkd3OJeaSh_10vectorizer2db19hive_gpu_collectionNtB2_17HiveGpuCollection8metadata
FNF:31
FNH:2
DA:35,0
DA:36,0
DA:37,0
DA:38,0
DA:39,0
DA:40,0
DA:41,0
DA:44,0
DA:45,0
DA:46,0
DA:47,0
DA:48,0
DA:49,0
DA:50,0
DA:51,0
DA:53,0
DA:54,0
DA:55,0
DA:56,0
DA:59,0
DA:60,0
DA:64,0
DA:65,0
DA:66,0
DA:67,0
DA:68,0
DA:69,0
DA:70,0
DA:71,0
DA:72,0
DA:75,0
DA:76,0
DA:77,0
DA:80,0
DA:81,0
DA:82,0
DA:85,0
DA:86,0
DA:87,0
DA:90,0
DA:91,0
DA:92,0
DA:95,0
DA:97,0
DA:98,0
DA:99,0
DA:100,0
DA:101,0
DA:102,0
DA:105,0
DA:108,0
DA:109,0
DA:110,0
DA:111,0
DA:112,0
DA:113,0
DA:114,0
DA:115,0
DA:116,0
DA:118,0
DA:120,0
DA:121,0
DA:125,0
DA:126,0
DA:129,0
DA:130,0
DA:131,0
DA:132,0
DA:135,0
DA:136,0
DA:137,0
DA:138,0
DA:139,0
DA:140,0
DA:141,0
DA:145,0
DA:146,0
DA:147,0
DA:148,0
DA:151,0
DA:152,0
DA:153,0
DA:154,0
DA:155,0
DA:156,0
DA:157,0
DA:158,0
DA:159,0
DA:161,0
DA:163,0
DA:164,0
DA:165,0
DA:169,0
DA:170,0
DA:173,0
DA:174,0
DA:175,0
DA:176,0
DA:177,0
DA:178,0
DA:179,0
DA:181,0
DA:182,0
DA:183,0
DA:186,0
DA:187,0
DA:188,0
DA:189,0
DA:190,0
DA:191,0
DA:192,0
DA:193,0
DA:194,0
DA:197,0
DA:198,0
DA:199,0
DA:200,0
DA:201,0
DA:202,0
DA:203,0
DA:204,0
DA:205,0
DA:207,0
DA:208,0
DA:209,0
DA:213,0
DA:214,0
DA:217,0
DA:219,0
DA:220,0
DA:221,0
DA:222,0
DA:224,0
DA:225,0
DA:226,0
DA:227,0
DA:230,0
DA:233,0
DA:234,0
DA:235,0
DA:236,0
DA:237,0
DA:239,0
DA:240,0
DA:241,0
DA:242,0
DA:245,0
DA:248,0
DA:251,0
DA:252,0
DA:253,0
DA:254,0
DA:255,0
DA:256,0
DA:257,0
DA:258,0
DA:259,0
DA:261,0
DA:262,0
DA:263,0
DA:265,0
DA:266,0
DA:269,0
DA:270,0
DA:273,0
DA:275,0
DA:276,0
DA:277,0
DA:278,0
DA:279,0
DA:280,0
DA:282,0
DA:286,0
DA:287,0
DA:289,0
DA:290,0
DA:291,0
DA:294,0
DA:295,0
DA:296,0
DA:297,0
DA:298,0
DA:299,0
DA:300,0
DA:305,0
DA:306,0
DA:307,0
DA:311,0
DA:312,0
DA:313,0
DA:315,0
DA:316,0
DA:320,0
DA:321,0
DA:325,0
DA:326,0
DA:327,0
DA:328,0
DA:329,0
DA:330,0
DA:333,0
DA:334,0
DA:335,0
DA:339,0
DA:340,0
DA:343,0
DA:344,0
DA:345,0
DA:346,0
DA:347,0
DA:348,0
DA:349,0
DA:350,0
DA:351,0
DA:352,0
DA:355,0
DA:357,0
DA:358,0
DA:361,0
DA:363,0
DA:364,0
DA:367,0
DA:369,0
DA:371,0
DA:372,0
DA:373,0
DA:376,0
DA:378,0
DA:379,0
DA:381,0
DA:382,0
DA:383,0
DA:384,0
DA:387,0
DA:388,0
DA:391,0
DA:392,0
DA:393,0
DA:396,0
DA:397,0
DA:398,0
DA:399,0
DA:402,0
DA:404,0
DA:406,0
DA:407,0
DA:408,0
DA:409,0
DA:410,0
DA:411,0
DA:412,0
DA:413,0
DA:414,0
DA:416,0
DA:417,0
DA:418,0
DA:419,0
DA:422,0
DA:424,0
DA:425,0
DA:426,0
DA:430,0
DA:431,0
DA:432,0
DA:433,0
DA:434,0
DA:435,0
DA:436,0
DA:445,1
DA:448,1
DA:451,1
DA:453,1
DA:454,1
DA:455,1
DA:456,1
DA:457,1
DA:458,1
DA:459,1
DA:460,1
DA:463,1
BRF:0
BRH:0
LF:293
LH:12
end_of_record
SF:/mnt/f/Node/hivellm/vectorizer/src/db/optimized_hnsw.rs
FN:309,_RINvMs_NtNtCs1YuMAXYbbDa_10vectorizer2db14optimized_hnswNtB5_18OptimizedHnswIndex9file_dumppEB9_
FN:354,_RNCINvMs_NtNtCs1YuMAXYbbDa_10vectorizer2db14optimized_hnswNtB7_18OptimizedHnswIndex9file_dumppE0Bb_
FN:368,_RNCINvMs_NtNtCs1YuMAXYbbDa_10vectorizer2db14optimized_hnswNtB7_18OptimizedHnswIndex9file_dumppEs_0Bb_
FN:436,_RNvMs1_NtNtCs1YuMAXYbbDa_10vectorizer2db14optimized_hnswNtB5_11MemoryStats6format
FN:182,_RNvMs_NtNtCs1YuMAXYbbDa_10vectorizer2db14optimized_hnswNtB4_18OptimizedHnswIndex11flush_batch
FN:147,_RNvMs_NtNtCs1YuMAXYbbDa_10vectorizer2db14optimized_hnswNtB4_18OptimizedHnswIndex12insert_batch
FN:295,_RNvMs_NtNtCs1YuMAXYbbDa_10vectorizer2db14optimized_hnswNtB4_18OptimizedHnswIndex12memory_stats
FN:290,_RNvMs_NtNtCs1YuMAXYbbDa_10vectorizer2db14optimized_hnswNtB4_18OptimizedHnswIndex15get_all_vectors
FN:101,_RNvMs_NtNtCs1YuMAXYbbDa_10vectorizer2db14optimized_hnswNtB4_18OptimizedHnswIndex3add
FN:267,_RNvMs_NtNtCs1YuMAXYbbDa_10vectorizer2db14optimized_hnswNtB4_18OptimizedHnswIndex3len
FN:76,_RNvMs_NtNtCs1YuMAXYbbDa_10vectorizer2db14optimized_hnswNtB4_18OptimizedHnswIndex3new
FN:171,_RNvMs_NtNtCs1YuMAXYbbDa_10vectorizer2db14optimized_hnswNtB4_18OptimizedHnswIndex5flush
FN:240,_RNvMs_NtNtCs1YuMAXYbbDa_10vectorizer2db14optimized_hnswNtB4_18OptimizedHnswIndex6remove
FN:194,_RNvMs_NtNtCs1YuMAXYbbDa_10vectorizer2db14optimized_hnswNtB4_18OptimizedHnswIndex6search
FN:251,_RNvMs_NtNtCs1YuMAXYbbDa_10vectorizer2db14optimized_hnswNtB4_18OptimizedHnswIndex6update
FN:272,_RNvMs_NtNtCs1YuMAXYbbDa_10vectorizer2db14optimized_hnswNtB4_18OptimizedHnswIndex8is_empty
FN:277,_RNvMs_NtNtCs1YuMAXYbbDa_10vectorizer2db14optimized_hnswNtB4_18OptimizedHnswIndex8optimize
FN:123,_RNvMs_NtNtCs1YuMAXYbbDa_10vectorizer2db14optimized_hnswNtB4_18OptimizedHnswIndex9batch_add
FN:42,_RNvXNtNtCs1YuMAXYbbDa_10vectorizer2db14optimized_hnswNtB2_19OptimizedHnswConfigNtNtCs9Kp62OsN3pY_4core7default7Default7default
FN:417,_RNvXs0_NtNtCs1YuMAXYbbDa_10vectorizer2db14optimized_hnswNtB5_18OptimizedHnswIndexNtNtCs9Kp62OsN3pY_4core3fmt5Debug3fmt
FN:400,_RINvMs_NtNtCs1YuMAXYbbDa_10vectorizer2db14optimized_hnswNtB5_18OptimizedHnswIndex14load_from_dumpRNtNtCslLCvXJZBaqX_3std4path4PathEB9_
FN:227,_RNCNCNvMs_NtNtCs1YuMAXYbbDa_10vectorizer2db14optimized_hnswNtB8_18OptimizedHnswIndex6searchs_00Bc_
FN:298,_RNCNvMs_NtNtCs1YuMAXYbbDa_10vectorizer2db14optimized_hnswNtB6_18OptimizedHnswIndex12memory_stats0Ba_
FN:211,_RNCNvMs_NtNtCs1YuMAXYbbDa_10vectorizer2db14optimized_hnswNtB6_18OptimizedHnswIndex6search0Ba_
FN:226,_RNCNvMs_NtNtCs1YuMAXYbbDa_10vectorizer2db14optimized_hnswNtB6_18OptimizedHnswIndex6searchs_0Ba_
FN:400,_RINvMs_NtNtCs4Tkd3OJeaSh_10vectorizer2db14optimized_hnswNtB5_18OptimizedHnswIndex14load_from_dumppEB9_
FN:309,_RINvMs_NtNtCs4Tkd3OJeaSh_10vectorizer2db14optimized_hnswNtB5_18OptimizedHnswIndex9file_dumppEB9_
FN:354,_RNCINvMs_NtNtCs4Tkd3OJeaSh_10vectorizer2db14optimized_hnswNtB7_18OptimizedHnswIndex9file_dumppE0Bb_
FN:368,_RNCINvMs_NtNtCs4Tkd3OJeaSh_10vectorizer2db14optimized_hnswNtB7_18OptimizedHnswIndex9file_dumppEs_0Bb_
FN:436,_RNvMs1_NtNtCs4Tkd3OJeaSh_10vectorizer2db14optimized_hnswNtB5_11MemoryStats6format
FN:290,_RNvMs_NtNtCs4Tkd3OJeaSh_10vectorizer2db14optimized_hnswNtB4_18OptimizedHnswIndex15get_all_vectors
FN:272,_RNvMs_NtNtCs4Tkd3OJeaSh_10vectorizer2db14optimized_hnswNtB4_18OptimizedHnswIndex8is_empty
FN:277,_RNvMs_NtNtCs4Tkd3OJeaSh_10vectorizer2db14optimized_hnswNtB4_18OptimizedHnswIndex8optimize
FN:417,_RNvXs0_NtNtCs4Tkd3OJeaSh_10vectorizer2db14optimized_hnswNtB5_18OptimizedHnswIndexNtNtCs9Kp62OsN3pY_4core3fmt5Debug3fmt
FN:227,_RNCNCNvMs_NtNtCs4Tkd3OJeaSh_10vectorizer2db14optimized_hnswNtB8_18OptimizedHnswIndex6searchs_00Bc_
FN:298,_RNCNvMs_NtNtCs4Tkd3OJeaSh_10vectorizer2db14optimized_hnswNtB6_18OptimizedHnswIndex12memory_stats0Ba_
FN:211,_RNCNvMs_NtNtCs4Tkd3OJeaSh_10vectorizer2db14optimized_hnswNtB6_18OptimizedHnswIndex6search0Ba_
FN:226,_RNCNvMs_NtNtCs4Tkd3OJeaSh_10vectorizer2db14optimized_hnswNtB6_18OptimizedHnswIndex6searchs_0Ba_
FN:182,_RNvMs_NtNtCs4Tkd3OJeaSh_10vectorizer2db14optimized_hnswNtB4_18OptimizedHnswIndex11flush_batch
FN:147,_RNvMs_NtNtCs4Tkd3OJeaSh_10vectorizer2db14optimized_hnswNtB4_18OptimizedHnswIndex12insert_batch
FN:295,_RNvMs_NtNtCs4Tkd3OJeaSh_10vectorizer2db14optimized_hnswNtB4_18OptimizedHnswIndex12memory_stats
FN:101,_RNvMs_NtNtCs4Tkd3OJeaSh_10vectorizer2db14optimized_hnswNtB4_18OptimizedHnswIndex3add
FN:267,_RNvMs_NtNtCs4Tkd3OJeaSh_10vectorizer2db14optimized_hnswNtB4_18OptimizedHnswIndex3len
FN:76,_RNvMs_NtNtCs4Tkd3OJeaSh_10vectorizer2db14optimized_hnswNtB4_18OptimizedHnswIndex3new
FN:171,_RNvMs_NtNtCs4Tkd3OJeaSh_10vectorizer2db14optimized_hnswNtB4_18OptimizedHnswIndex5flush
FN:240,_RNvMs_NtNtCs4Tkd3OJeaSh_10vectorizer2db14optimized_hnswNtB4_18OptimizedHnswIndex6remove
FN:194,_RNvMs_NtNtCs4Tkd3OJeaSh_10vectorizer2db14optimized_hnswNtB4_18OptimizedHnswIndex6search
FN:251,_RNvMs_NtNtCs4Tkd3OJeaSh_10vectorizer2db14optimized_hnswNtB4_18OptimizedHnswIndex6update
FN:123,_RNvMs_NtNtCs4Tkd3OJeaSh_10vectorizer2db14optimized_hnswNtB4_18OptimizedHnswIndex9batch_add
FN:42,_RNvXNtNtCs4Tkd3OJeaSh_10vectorizer2db14optimized_hnswNtB2_19OptimizedHnswConfigNtNtCs9Kp62OsN3pY_4core7default7Default7default
FN:462,_RNCNvNtNtNtCs4Tkd3OJeaSh_10vectorizer2db14optimized_hnsw5testss_20test_batch_insertion0B9_
FN:475,_RNvNtNtNtCs4Tkd3OJeaSh_10vectorizer2db14optimized_hnsw5testss_17test_memory_stats
FN:452,_RNvNtNtNtCs4Tkd3OJeaSh_10vectorizer2db14optimized_hnsw5testss_20test_batch_insertion
FNDA:0,_RINvMs_NtNtCs1YuMAXYbbDa_10vectorizer2db14optimized_hnswNtB5_18OptimizedHnswIndex9file_dumppEB9_
FNDA:0,_RNCINvMs_NtNtCs1YuMAXYbbDa_10vectorizer2db14optimized_hnswNtB7_18OptimizedHnswIndex9file_dumppE0Bb_
FNDA:0,_RNCINvMs_NtNtCs1YuMAXYbbDa_10vectorizer2db14optimized_hnswNtB7_18OptimizedHnswIndex9file_dumppEs_0Bb_
FNDA:0,_RNvMs1_NtNtCs1YuMAXYbbDa_10vectorizer2db14optimized_hnswNtB5_11MemoryStats6format
FNDA:0,_RNvMs_NtNtCs1YuMAXYbbDa_10vectorizer2db14optimized_hnswNtB4_18OptimizedHnswIndex11flush_batch
FNDA:0,_RNvMs_NtNtCs1YuMAXYbbDa_10vectorizer2db14optimized_hnswNtB4_18OptimizedHnswIndex12insert_batch
FNDA:0,_RNvMs_NtNtCs1YuMAXYbbDa_10vectorizer2db14optimized_hnswNtB4_18OptimizedHnswIndex12memory_stats
FNDA:0,_RNvMs_NtNtCs1YuMAXYbbDa_10vectorizer2db14optimized_hnswNtB4_18OptimizedHnswIndex15get_all_vectors
FNDA:0,_RNvMs_NtNtCs1YuMAXYbbDa_10vectorizer2db14optimized_hnswNtB4_18OptimizedHnswIndex3add
FNDA:0,_RNvMs_NtNtCs1YuMAXYbbDa_10vectorizer2db14optimized_hnswNtB4_18OptimizedHnswIndex3len
FNDA:1,_RNvMs_NtNtCs1YuMAXYbbDa_10vectorizer2db14optimized_hnswNtB4_18OptimizedHnswIndex3new
FNDA:0,_RNvMs_NtNtCs1YuMAXYbbDa_10vectorizer2db14optimized_hnswNtB4_18OptimizedHnswIndex5flush
FNDA:0,_RNvMs_NtNtCs1YuMAXYbbDa_10vectorizer2db14optimized_hnswNtB4_18OptimizedHnswIndex6remove
FNDA:0,_RNvMs_NtNtCs1YuMAXYbbDa_10vectorizer2db14optimized_hnswNtB4_18OptimizedHnswIndex6search
FNDA:0,_RNvMs_NtNtCs1YuMAXYbbDa_10vectorizer2db14optimized_hnswNtB4_18OptimizedHnswIndex6update
FNDA:0,_RNvMs_NtNtCs1YuMAXYbbDa_10vectorizer2db14optimized_hnswNtB4_18OptimizedHnswIndex8is_empty
FNDA:0,_RNvMs_NtNtCs1YuMAXYbbDa_10vectorizer2db14optimized_hnswNtB4_18OptimizedHnswIndex8optimize
FNDA:0,_RNvMs_NtNtCs1YuMAXYbbDa_10vectorizer2db14optimized_hnswNtB4_18OptimizedHnswIndex9batch_add
FNDA:0,_RNvXNtNtCs1YuMAXYbbDa_10vectorizer2db14optimized_hnswNtB2_19OptimizedHnswConfigNtNtCs9Kp62OsN3pY_4core7default7Default7default
FNDA:0,_RNvXs0_NtNtCs1YuMAXYbbDa_10vectorizer2db14optimized_hnswNtB5_18OptimizedHnswIndexNtNtCs9Kp62OsN3pY_4core3fmt5Debug3fmt
FNDA:0,_RINvMs_NtNtCs1YuMAXYbbDa_10vectorizer2db14optimized_hnswNtB5_18OptimizedHnswIndex14load_from_dumpRNtNtCslLCvXJZBaqX_3std4path4PathEB9_
FNDA:0,_RNCNCNvMs_NtNtCs1YuMAXYbbDa_10vectorizer2db14optimized_hnswNtB8_18OptimizedHnswIndex6searchs_00Bc_
FNDA:0,_RNCNvMs_NtNtCs1YuMAXYbbDa_10vectorizer2db14optimized_hnswNtB6_18OptimizedHnswIndex12memory_stats0Ba_
FNDA:0,_RNCNvMs_NtNtCs1YuMAXYbbDa_10vectorizer2db14optimized_hnswNtB6_18OptimizedHnswIndex6search0Ba_
FNDA:0,_RNCNvMs_NtNtCs1YuMAXYbbDa_10vectorizer2db14optimized_hnswNtB6_18OptimizedHnswIndex6searchs_0Ba_
FNDA:0,_RINvMs_NtNtCs4Tkd3OJeaSh_10vectorizer2db14optimized_hnswNtB5_18OptimizedHnswIndex14load_from_dumppEB9_
FNDA:0,_RINvMs_NtNtCs4Tkd3OJeaSh_10vectorizer2db14optimized_hnswNtB5_18OptimizedHnswIndex9file_dumppEB9_
FNDA:0,_RNCINvMs_NtNtCs4Tkd3OJeaSh_10vectorizer2db14optimized_hnswNtB7_18OptimizedHnswIndex9file_dumppE0Bb_
FNDA:0,_RNCINvMs_NtNtCs4Tkd3OJeaSh_10vectorizer2db14optimized_hnswNtB7_18OptimizedHnswIndex9file_dumppEs_0Bb_
FNDA:0,_RNvMs1_NtNtCs4Tkd3OJeaSh_10vectorizer2db14optimized_hnswNtB5_11MemoryStats6format
FNDA:0,_RNvMs_NtNtCs4Tkd3OJeaSh_10vectorizer2db14optimized_hnswNtB4_18OptimizedHnswIndex15get_all_vectors
FNDA:0,_RNvMs_NtNtCs4Tkd3OJeaSh_10vectorizer2db14optimized_hnswNtB4_18OptimizedHnswIndex8is_empty
FNDA:0,_RNvMs_NtNtCs4Tkd3OJeaSh_10vectorizer2db14optimized_hnswNtB4_18OptimizedHnswIndex8optimize
FNDA:0,_RNvXs0_NtNtCs4Tkd3OJeaSh_10vectorizer2db14optimized_hnswNtB5_18OptimizedHnswIndexNtNtCs9Kp62OsN3pY_4core3fmt5Debug3fmt
FNDA:56,_RNCNCNvMs_NtNtCs4Tkd3OJeaSh_10vectorizer2db14optimized_hnswNtB8_18OptimizedHnswIndex6searchs_00Bc_
FNDA:10,_RNCNvMs_NtNtCs4Tkd3OJeaSh_10vectorizer2db14optimized_hnswNtB6_18OptimizedHnswIndex12memory_stats0Ba_
FNDA:237,_RNCNvMs_NtNtCs4Tkd3OJeaSh_10vectorizer2db14optimized_hnswNtB6_18OptimizedHnswIndex6search0Ba_
FNDA:56,_RNCNvMs_NtNtCs4Tkd3OJeaSh_10vectorizer2db14optimized_hnswNtB6_18OptimizedHnswIndex6searchs_0Ba_
FNDA:10,_RNvMs_NtNtCs4Tkd3OJeaSh_10vectorizer2db14optimized_hnswNtB4_18OptimizedHnswIndex11flush_batch
FNDA:20,_RNvMs_NtNtCs4Tkd3OJeaSh_10vectorizer2db14optimized_hnswNtB4_18OptimizedHnswIndex12insert_batch
FNDA:1,_RNvMs_NtNtCs4Tkd3OJeaSh_10vectorizer2db14optimized_hnswNtB4_18OptimizedHnswIndex12memory_stats
FNDA:501,_RNvMs_NtNtCs4Tkd3OJeaSh_10vectorizer2db14optimized_hnswNtB4_18OptimizedHnswIndex3add
FNDA:1,_RNvMs_NtNtCs4Tkd3OJeaSh_10vectorizer2db14optimized_hnswNtB4_18OptimizedHnswIndex3len
FNDA:74,_RNvMs_NtNtCs4Tkd3OJeaSh_10vectorizer2db14optimized_hnswNtB4_18OptimizedHnswIndex3new
FNDA:14,_RNvMs_NtNtCs4Tkd3OJeaSh_10vectorizer2db14optimized_hnswNtB4_18OptimizedHnswIndex5flush
FNDA:6,_RNvMs_NtNtCs4Tkd3OJeaSh_10vectorizer2db14optimized_hnswNtB4_18OptimizedHnswIndex6remove
FNDA:13,_RNvMs_NtNtCs4Tkd3OJeaSh_10vectorizer2db14optimized_hnswNtB4_18OptimizedHnswIndex6search
FNDA:2,_RNvMs_NtNtCs4Tkd3OJeaSh_10vectorizer2db14optimized_hnswNtB4_18OptimizedHnswIndex6update
FNDA:1,_RNvMs_NtNtCs4Tkd3OJeaSh_10vectorizer2db14optimized_hnswNtB4_18OptimizedHnswIndex9batch_add
FNDA:2,_RNvXNtNtCs4Tkd3OJeaSh_10vectorizer2db14optimized_hnswNtB2_19OptimizedHnswConfigNtNtCs9Kp62OsN3pY_4core7default7Default7default
FNDA:100,_RNCNvNtNtNtCs4Tkd3OJeaSh_10vectorizer2db14optimized_hnsw5testss_20test_batch_insertion0B9_
FNDA:1,_RNvNtNtNtCs4Tkd3OJeaSh_10vectorizer2db14optimized_hnsw5testss_17test_memory_stats
FNDA:1,_RNvNtNtNtCs4Tkd3OJeaSh_10vectorizer2db14optimized_hnsw5testss_20test_batch_insertion
FNF:28
FNH:19
DA:42,2
DA:43,2
DA:44,2
DA:45,2
DA:46,2
DA:47,2
DA:48,2
DA:49,2
DA:50,2
DA:51,2
DA:52,2
DA:53,2
DA:76,75
DA:77,75
DA:78,75
DA:79,75
DA:81,75
DA:82,75
DA:83,75
DA:84,75
DA:85,75
DA:86,75
DA:89,75
DA:90,75
DA:91,75
DA:92,75
DA:93,75
DA:94,75
DA:95,75
DA:96,75
DA:97,75
DA:98,75
DA:101,501
DA:102,501
DA:103,0
DA:104,0
DA:105,0
DA:106,0
DA:107,501
DA:109,501
DA:110,501
DA:113,501
DA:114,0
DA:115,0
DA:116,0
DA:117,501
DA:119,501
DA:120,501
DA:123,1
DA:124,1
DA:125,0
DA:126,1
DA:129,101
DA:130,100
DA:131,0
DA:132,0
DA:133,0
DA:134,0
DA:135,100
DA:139,10
DA:140,10
DA:143,1
DA:144,1
DA:147,20
DA:148,20
DA:149,20
DA:150,20
DA:151,20
DA:154,20
DA:157,287
DA:158,267
DA:159,267
DA:160,267
DA:161,267
DA:162,267
DA:163,267
DA:164,267
DA:165,267
DA:167,20
DA:168,20
DA:171,14
DA:172,14
DA:173,14
DA:174,10
DA:175,10
DA:176,10
DA:177,4
DA:178,14
DA:179,14
DA:182,10
DA:183,10
DA:186,0
DA:189,10
DA:191,10
DA:194,13
DA:195,13
DA:196,0
DA:197,0
DA:198,0
DA:199,0
DA:200,13
DA:203,13
DA:205,13
DA:206,13
DA:207,13
DA:210,13
DA:211,237
DA:214,13
DA:215,13
DA:216,5
DA:218,8
DA:221,13
DA:224,13
DA:225,13
DA:226,56
DA:227,56
DA:230,56
DA:231,56
DA:232,56
DA:233,56
DA:234,13
DA:236,13
DA:237,13
DA:240,6
DA:241,6
DA:243,6
DA:244,0
DA:246,6
DA:248,6
DA:251,2
DA:252,2
DA:253,0
DA:254,0
DA:255,0
DA:256,0
DA:257,2
DA:260,2
DA:261,2
DA:263,2
DA:264,2
DA:267,1
DA:268,1
DA:269,1
DA:272,0
DA:273,0
DA:274,0
DA:277,0
DA:278,0
DA:285,0
DA:286,0
DA:287,0
DA:290,0
DA:291,0
DA:292,0
DA:295,1
DA:296,1
DA:297,1
DA:298,10
DA:300,1
DA:301,1
DA:302,1
DA:303,1
DA:304,1
DA:305,1
DA:306,1
DA:309,0
DA:314,0
DA:315,0
DA:317,0
DA:318,0
DA:319,0
DA:320,0
DA:321,0
DA:324,0
DA:325,0
DA:326,0
DA:327,0
DA:328,0
DA:329,0
DA:332,0
DA:335,0
DA:336,0
DA:337,0
DA:338,0
DA:339,0
DA:342,0
DA:343,0
DA:344,0
DA:345,0
DA:350,0
DA:351,0
DA:353,0
DA:354,0
DA:355,0
DA:356,0
DA:357,0
DA:361,0
DA:362,0
DA:363,0
DA:367,0
DA:368,0
DA:369,0
DA:370,0
DA:371,0
DA:375,0
DA:376,0
DA:377,0
DA:381,0
DA:383,0
DA:384,0
DA:386,0
DA:387,0
DA:390,0
DA:391,0
DA:393,0
DA:394,0
DA:397,0
DA:400,0
DA:401,0
DA:402,0
DA:403,0
DA:404,0
DA:410,0
DA:411,0
DA:412,0
DA:413,0
DA:417,0
DA:418,0
DA:419,0
DA:420,0
DA:421,0
DA:422,0
DA:423,0
DA:436,0
DA:437,0
DA:438,0
DA:440,0
DA:441,0
DA:442,0
DA:444,0
DA:452,1
DA:453,1
DA:454,1
DA:455,1
DA:456,1
DA:458,1
DA:461,1
DA:462,100
DA:463,100
DA:464,100
DA:465,100
DA:466,1
DA:469,1
DA:471,1
DA:472,1
DA:475,1
DA:476,1
DA:479,11
DA:480,10
DA:481,10
DA:482,10
DA:484,1
DA:486,1
DA:487,1
DA:488,1
DA:489,1
BRF:0
BRH:0
LF:273
LH:163
end_of_record
SF:/mnt/f/Node/hivellm/vectorizer/src/db/vector_store.rs
FN:919,_RNvMs1_NtNtCs1YuMAXYbbDa_10vectorizer2db12vector_storeNtB5_11VectorStore10get_vector
FN:1022,_RNvMs1_NtNtCs1YuMAXYbbDa_10vectorizer2db12vector_storeNtB5_11VectorStore12get_metadata
FN:1027,_RNvMs1_NtNtCs1YuMAXYbbDa_10vectorizer2db12vector_storeNtB5_11VectorStore12set_metadata
FN:635,_RNvMs1_NtNtCs1YuMAXYbbDa_10vectorizer2db12vector_storeNtB5_11VectorStore14get_collection
FN:1032,_RNvMs1_NtNtCs1YuMAXYbbDa_10vectorizer2db12vector_storeNtB5_11VectorStore15remove_metadata
FN:817,_RNvMs1_NtNtCs1YuMAXYbbDa_10vectorizer2db12vector_storeNtB5_11VectorStore16list_collections
FN:462,_RNvMs1_NtNtCs1YuMAXYbbDa_10vectorizer2db12vector_storeNtB5_11VectorStore17create_collection
FN:622,_RNvMs1_NtNtCs1YuMAXYbbDa_10vectorizer2db12vector_storeNtB5_11VectorStore17delete_collection
FN:804,_RNvMs1_NtNtCs1YuMAXYbbDa_10vectorizer2db12vector_storeNtB5_11VectorStore18get_collection_mut
FN:1037,_RNvMs1_NtNtCs1YuMAXYbbDa_10vectorizer2db12vector_storeNtB5_11VectorStore18list_metadata_keys
FN:847,_RNvMs1_NtNtCs1YuMAXYbbDa_10vectorizer2db12vector_storeNtB5_11VectorStore23get_collection_metadata
FN:799,_RNvMs1_NtNtCs1YuMAXYbbDa_10vectorizer2db12vector_storeNtB5_11VectorStore24has_collection_in_memory
FN:395,_RNvMs1_NtNtCs1YuMAXYbbDa_10vectorizer2db12vector_storeNtB5_11VectorStore24new_with_hive_gpu_config
FN:310,_RNvMs1_NtNtCs1YuMAXYbbDa_10vectorizer2db12vector_storeNtB5_11VectorStore25check_and_migrate_storage
FN:473,_RNvMs1_NtNtCs1YuMAXYbbDa_10vectorizer2db12vector_storeNtB5_11VectorStore26create_collection_internal
FN:359,_RNvMs1_NtNtCs1YuMAXYbbDa_10vectorizer2db12vector_storeNtB5_11VectorStore26initialize_compact_storage
FN:941,_RNvMs1_NtNtCs1YuMAXYbbDa_10vectorizer2db12vector_storeNtB5_11VectorStore26load_collection_from_cache
FN:533,_RNvMs1_NtNtCs1YuMAXYbbDa_10vectorizer2db12vector_storeNtB5_11VectorStore35create_collection_with_quantization
FN:732,_RNvMs1_NtNtCs1YuMAXYbbDa_10vectorizer2db12vector_storeNtB5_11VectorStore35load_persisted_collection_from_data
FN:277,_RNvMs1_NtNtCs1YuMAXYbbDa_10vectorizer2db12vector_storeNtB5_11VectorStore3new
FN:972,_RNvMs1_NtNtCs1YuMAXYbbDa_10vectorizer2db12vector_storeNtB5_11VectorStore41load_collection_from_cache_with_hnsw_dump
FN:1004,_RNvMs1_NtNtCs1YuMAXYbbDa_10vectorizer2db12vector_storeNtB5_11VectorStore5stats
FN:903,_RNvMs1_NtNtCs1YuMAXYbbDa_10vectorizer2db12vector_storeNtB5_11VectorStore6delete
FN:853,_RNvMs1_NtNtCs1YuMAXYbbDa_10vectorizer2db12vector_storeNtB5_11VectorStore6insert
FN:925,_RNvMs1_NtNtCs1YuMAXYbbDa_10vectorizer2db12vector_storeNtB5_11VectorStore6search
FN:886,_RNvMs1_NtNtCs1YuMAXYbbDa_10vectorizer2db12vector_storeNtB5_11VectorStore6update
FN:408,_RNvMs1_NtNtCs1YuMAXYbbDa_10vectorizer2db12vector_storeNtB5_11VectorStore8new_auto
FN:1064,_RNvMs3_NtNtCs1YuMAXYbbDa_10vectorizer2db12vector_storeNtB5_11VectorStore12get_data_dir
FN:1732,_RNvMs3_NtNtCs1YuMAXYbbDa_10vectorizer2db12vector_storeNtB5_11VectorStore14force_save_all
FN:1096,_RNvMs3_NtNtCs1YuMAXYbbDa_10vectorizer2db12vector_storeNtB5_11VectorStore15load_from_vecdb
FN:1361,_RNvMs3_NtNtCs1YuMAXYbbDa_10vectorizer2db12vector_storeNtB5_11VectorStore16compact_to_vecdb
FN:1557,_RNvMs3_NtNtCs1YuMAXYbbDa_10vectorizer2db12vector_storeNtB5_11VectorStore16enable_auto_save
FN:1247,_RNvMs3_NtNtCs1YuMAXYbbDa_10vectorizer2db12vector_storeNtB5_11VectorStore17cleanup_raw_files
FN:1724,_RNvMs3_NtNtCs1YuMAXYbbDa_10vectorizer2db12vector_storeNtB5_11VectorStore17disable_auto_save
FN:1287,_RNvMs3_NtNtCs1YuMAXYbbDa_10vectorizer2db12vector_storeNtB5_11VectorStore19load_from_raw_files
FN:1761,_RNvMs3_NtNtCs1YuMAXYbbDa_10vectorizer2db12vector_storeNtB5_11VectorStore23save_collection_to_file
FN:1391,_RNvMs3_NtNtCs1YuMAXYbbDa_10vectorizer2db12vector_storeNtB5_11VectorStore24load_dynamic_collections
FN:1932,_RNvMs3_NtNtCs1YuMAXYbbDa_10vectorizer2db12vector_storeNtB5_11VectorStore24mark_collection_for_save
FN:1977,_RNvMs3_NtNtCs1YuMAXYbbDa_10vectorizer2db12vector_storeNtB5_11VectorStore24save_collection_metadata
FN:2030,_RNvMs3_NtNtCs1YuMAXYbbDa_10vectorizer2db12vector_storeNtB5_11VectorStore25save_collection_tokenizer
FN:1070,_RNvMs3_NtNtCs1YuMAXYbbDa_10vectorizer2db12vector_storeNtB5_11VectorStore30load_all_persisted_collections
FN:1956,_RNvMs3_NtNtCs1YuMAXYbbDa_10vectorizer2db12vector_storeNtB5_11VectorStore30save_collection_vectors_binary
FN:60,_RNvMs_NtNtCs1YuMAXYbbDa_10vectorizer2db12vector_storeNtB4_14CollectionType10add_vector
FN:105,_RNvMs_NtNtCs1YuMAXYbbDa_10vectorizer2db12vector_storeNtB4_14CollectionType10get_vector
FN:114,_RNvMs_NtNtCs1YuMAXYbbDa_10vectorizer2db12vector_storeNtB4_14CollectionType12vector_count
FN:87,_RNvMs_NtNtCs1YuMAXYbbDa_10vectorizer2db12vector_storeNtB4_14CollectionType13delete_vector
FN:172,_RNvMs_NtNtCs1YuMAXYbbDa_10vectorizer2db12vector_storeNtB4_14CollectionType13get_size_info
FN:96,_RNvMs_NtNtCs1YuMAXYbbDa_10vectorizer2db12vector_storeNtB4_14CollectionType13update_vector
FN:132,_RNvMs_NtNtCs1YuMAXYbbDa_10vectorizer2db12vector_storeNtB4_14CollectionType15get_all_vectors
FN:239,_RNvMs_NtNtCs1YuMAXYbbDa_10vectorizer2db12vector_storeNtB4_14CollectionType17fast_load_vectors
FN:141,_RNvMs_NtNtCs1YuMAXYbbDa_10vectorizer2db12vector_storeNtB4_14CollectionType18get_embedding_type
FN:196,_RNvMs_NtNtCs1YuMAXYbbDa_10vectorizer2db12vector_storeNtB4_14CollectionType18set_embedding_type
FN:159,_RNvMs_NtNtCs1YuMAXYbbDa_10vectorizer2db12vector_storeNtB4_14CollectionType22calculate_memory_usage
FN:123,_RNvMs_NtNtCs1YuMAXYbbDa_10vectorizer2db12vector_storeNtB4_14CollectionType22estimated_memory_usage
FN:227,_RNvMs_NtNtCs1YuMAXYbbDa_10vectorizer2db12vector_storeNtB4_14CollectionType24load_vectors_into_memory
FN:150,_RNvMs_NtNtCs1YuMAXYbbDa_10vectorizer2db12vector_storeNtB4_14CollectionType27requantize_existing_vectors
FN:42,_RNvMs_NtNtCs1YuMAXYbbDa_10vectorizer2db12vector_storeNtB4_14CollectionType4name
FN:51,_RNvMs_NtNtCs1YuMAXYbbDa_10vectorizer2db12vector_storeNtB4_14CollectionType6config
FN:69,_RNvMs_NtNtCs1YuMAXYbbDa_10vectorizer2db12vector_storeNtB4_14CollectionType6search
FN:78,_RNvMs_NtNtCs1YuMAXYbbDa_10vectorizer2db12vector_storeNtB4_14CollectionType8metadata
FN:31,_RNvXNtNtCs1YuMAXYbbDa_10vectorizer2db12vector_storeNtB2_14CollectionTypeNtNtCs9Kp62OsN3pY_4core3fmt5Debug3fmt
FN:268,_RNvXs0_NtNtCs1YuMAXYbbDa_10vectorizer2db12vector_storeNtB5_11VectorStoreNtNtCs9Kp62OsN3pY_4core3fmt5Debug3fmt
FN:1046,_RNvXs2_NtNtCs1YuMAXYbbDa_10vectorizer2db12vector_storeNtB5_11VectorStoreNtNtCs9Kp62OsN3pY_4core7default7Default7default
FN:211,_RINvMs_NtNtCs1YuMAXYbbDa_10vectorizer2db12vector_storeNtB5_14CollectionType25load_hnsw_index_from_dumppEB9_
FN:2104,_RNCNvMs3_NtNtCs1YuMAXYbbDa_10vectorizer2db12vector_storeNtB7_11VectorStore31save_collection_metadata_static0Bb_
FN:2109,_RNCNvMs3_NtNtCs1YuMAXYbbDa_10vectorizer2db12vector_storeNtB7_11VectorStore31save_collection_metadata_statics_0Bb_
